---
triple:          'x86_64-apple-darwin'
binary-path:     '/Users/hwaming/Documents/MQF/SMU_CPP_Final_Project/Market'
relocations:
  - { offsetInCU: 0x5C, offset: 0x5C, size: 0x8, addend: 0x0, symName: __ZNSt3__1L19piecewise_constructE, symObjAddr: 0xB765, symBinAddr: 0x10003B051, symSize: 0x0 }
  - { offsetInCU: 0x75D6, offset: 0x75D6, size: 0x8, addend: 0x0, symName: __ZNSt3__124__put_character_sequenceB7v160006IcNS_11char_traitsIcEEEERNS_13basic_ostreamIT_T0_EES7_PKS4_m, symObjAddr: 0x52F0, symBinAddr: 0x100008890, symSize: 0x1F0 }
  - { offsetInCU: 0x120B0, offset: 0x120B0, size: 0x8, addend: 0x0, symName: __ZNSt3__1neB7v160006IPK4DateEEbRKNS_11__wrap_iterIT_EES8_, symObjAddr: 0x860, symBinAddr: 0x100003E00, symSize: 0x30 }
  - { offsetInCU: 0x120F3, offset: 0x120F3, size: 0x8, addend: 0x0, symName: __ZNSt3__1neB7v160006ERKNS_25__hash_map_const_iteratorINS_21__hash_const_iteratorIPNS_11__hash_nodeINS_17__hash_value_typeINS_12basic_stringIcNS_11char_traitsIcEENS_9allocatorIcEEEEdEEPvEEEEEESH_, symObjAddr: 0x1130, symBinAddr: 0x1000046D0, symSize: 0x30 }
  - { offsetInCU: 0x12130, offset: 0x12130, size: 0x8, addend: 0x0, symName: __ZNSt3__1lsB7v160006INS_11char_traitsIcEEEERNS_13basic_ostreamIcT_EES6_PKc, symObjAddr: 0x1210, symBinAddr: 0x1000047B0, symSize: 0x40 }
  - { offsetInCU: 0x12176, offset: 0x12176, size: 0x8, addend: 0x0, symName: __ZNSt3__1lsB7v160006IcNS_11char_traitsIcEENS_9allocatorIcEEEERNS_13basic_ostreamIT_T0_EES9_RKNS_12basic_stringIS6_S7_T1_EE, symObjAddr: 0x1250, symBinAddr: 0x1000047F0, symSize: 0x50 }
  - { offsetInCU: 0x121CE, offset: 0x121CE, size: 0x8, addend: 0x0, symName: __ZNSt3__14endlB7v160006IcNS_11char_traitsIcEEEERNS_13basic_ostreamIT_T0_EES7_, symObjAddr: 0x1320, symBinAddr: 0x1000048C0, symSize: 0x50 }
  - { offsetInCU: 0x1220E, offset: 0x1220E, size: 0x8, addend: 0x0, symName: __ZNSt3__119__debug_db_insert_cB7v160006INS_13unordered_mapINS_12basic_stringIcNS_11char_traitsIcEENS_9allocatorIcEEEE8VolCurveNS_4hashIS7_EENS_8equal_toIS7_EENS5_INS_4pairIKS7_S8_EEEEEEEEvPT_, symObjAddr: 0x1460, symBinAddr: 0x100004A00, symSize: 0x10 }
  - { offsetInCU: 0x1223F, offset: 0x1223F, size: 0x8, addend: 0x0, symName: __ZNSt3__119__debug_db_insert_cB7v160006INS_13unordered_mapINS_12basic_stringIcNS_11char_traitsIcEENS_9allocatorIcEEEE9RateCurveNS_4hashIS7_EENS_8equal_toIS7_EENS5_INS_4pairIKS7_S8_EEEEEEEEvPT_, symObjAddr: 0x1A00, symBinAddr: 0x100004FA0, symSize: 0x10 }
  - { offsetInCU: 0x12270, offset: 0x12270, size: 0x8, addend: 0x0, symName: __ZNSt3__119__debug_db_insert_cB7v160006INS_13unordered_mapINS_12basic_stringIcNS_11char_traitsIcEENS_9allocatorIcEEEEdNS_4hashIS7_EENS_8equal_toIS7_EENS5_INS_4pairIKS7_dEEEEEEEEvPT_, symObjAddr: 0x1F50, symBinAddr: 0x1000054F0, symSize: 0x10 }
  - { offsetInCU: 0x1233A, offset: 0x1233A, size: 0x8, addend: 0x0, symName: __ZNSt3__17launderB7v160006IKNS_4pairIKNS_12basic_stringIcNS_11char_traitsIcEENS_9allocatorIcEEEE9RateCurveEEEEPT_SD_, symObjAddr: 0x25F0, symBinAddr: 0x100005B90, symSize: 0x20 }
  - { offsetInCU: 0x12371, offset: 0x12371, size: 0x8, addend: 0x0, symName: __ZNSt3__19__launderB7v160006IKNS_4pairIKNS_12basic_stringIcNS_11char_traitsIcEENS_9allocatorIcEEEE9RateCurveEEEEPT_SD_, symObjAddr: 0x2610, symBinAddr: 0x100005BB0, symSize: 0x10 }
  - { offsetInCU: 0x123A8, offset: 0x123A8, size: 0x8, addend: 0x0, symName: __ZNSt3__122__make_exception_guardB7v160006INS_6vectorI4DateNS_9allocatorIS2_EEE16__destroy_vectorEEENS_28__exception_guard_exceptionsIT_EES8_, symObjAddr: 0x28C0, symBinAddr: 0x100005E60, symSize: 0x40 }
  - { offsetInCU: 0x123DD, offset: 0x123DD, size: 0x8, addend: 0x0, symName: __ZNSt3__119__debug_db_insert_cB7v160006INS_6vectorI4DateNS_9allocatorIS2_EEEEEEvPT_, symObjAddr: 0x2930, symBinAddr: 0x100005ED0, symSize: 0x10 }
  - { offsetInCU: 0x1240E, offset: 0x1240E, size: 0x8, addend: 0x0, symName: __ZNSt3__119__allocate_at_leastB7v160006INS_9allocatorI4DateEEEENS_19__allocation_resultINS_16allocator_traitsIT_E7pointerEEERS6_m, symObjAddr: 0x2C40, symBinAddr: 0x1000061E0, symSize: 0x40 }
  - { offsetInCU: 0x12451, offset: 0x12451, size: 0x8, addend: 0x0, symName: __ZNSt3__13minB7v160006ImEERKT_S3_S3_, symObjAddr: 0x2D60, symBinAddr: 0x100006300, symSize: 0x30 }
  - { offsetInCU: 0x1267E, offset: 0x1267E, size: 0x8, addend: 0x0, symName: __ZNSt3__13minB7v160006ImNS_6__lessImmEEEERKT_S5_S5_T0_, symObjAddr: 0x2DC0, symBinAddr: 0x100006360, symSize: 0x50 }
  - { offsetInCU: 0x12713, offset: 0x12713, size: 0x8, addend: 0x0, symName: __ZNSt3__120__throw_length_errorB7v160006EPKc, symObjAddr: 0x2E70, symBinAddr: 0x100006410, symSize: 0x70 }
  - { offsetInCU: 0x1273B, offset: 0x1273B, size: 0x8, addend: 0x0, symName: __ZNSt3__117__libcpp_allocateB7v160006Emm, symObjAddr: 0x2FE0, symBinAddr: 0x100006580, symSize: 0x60 }
  - { offsetInCU: 0x12795, offset: 0x12795, size: 0x8, addend: 0x0, symName: __ZNSt3__124__is_overaligned_for_newB7v160006Em, symObjAddr: 0x3040, symBinAddr: 0x1000065E0, symSize: 0x20 }
  - { offsetInCU: 0x127C3, offset: 0x127C3, size: 0x8, addend: 0x0, symName: __ZNSt3__121__libcpp_operator_newB7v160006IJmSt11align_val_tEEEPvDpT_, symObjAddr: 0x3060, symBinAddr: 0x100006600, symSize: 0x30 }
  - { offsetInCU: 0x12810, offset: 0x12810, size: 0x8, addend: 0x0, symName: __ZNSt3__121__libcpp_operator_newB7v160006IJmEEEPvDpT_, symObjAddr: 0x3090, symBinAddr: 0x100006630, symSize: 0x20 }
  - { offsetInCU: 0x12849, offset: 0x12849, size: 0x8, addend: 0x0, symName: __ZNSt3__112__to_addressB7v160006I4DateEEPT_S3_, symObjAddr: 0x3190, symBinAddr: 0x100006730, symSize: 0x10 }
  - { offsetInCU: 0x1287E, offset: 0x1287E, size: 0x8, addend: 0x0, symName: __ZNSt3__130__uninitialized_allocator_copyB7v160006INS_9allocatorI4DateEEPS2_S4_S4_EET2_RT_T0_T1_S5_, symObjAddr: 0x3220, symBinAddr: 0x1000067C0, symSize: 0x100 }
  - { offsetInCU: 0x1291C, offset: 0x1291C, size: 0x8, addend: 0x0, symName: __ZNSt3__122__make_exception_guardB7v160006INS_29_AllocatorDestroyRangeReverseINS_9allocatorI4DateEEPS3_EEEENS_28__exception_guard_exceptionsIT_EES8_, symObjAddr: 0x3380, symBinAddr: 0x100006920, symSize: 0x60 }
  - { offsetInCU: 0x12951, offset: 0x12951, size: 0x8, addend: 0x0, symName: __ZNSt3__119__allocator_destroyB7v160006INS_9allocatorI4DateEENS_16reverse_iteratorIPS2_EES6_EEvRT_T0_T1_, symObjAddr: 0x3610, symBinAddr: 0x100006BB0, symSize: 0x70 }
  - { offsetInCU: 0x129B4, offset: 0x129B4, size: 0x8, addend: 0x0, symName: __ZNSt3__1neB7v160006IP4DateS2_EEbRKNS_16reverse_iteratorIT_EERKNS3_IT0_EE, symObjAddr: 0x36B0, symBinAddr: 0x100006C50, symSize: 0x40 }
  - { offsetInCU: 0x12A00, offset: 0x12A00, size: 0x8, addend: 0x0, symName: __ZNSt3__112__to_addressB7v160006INS_16reverse_iteratorIP4DateEEvEENS_5decayIDTclsr19__to_address_helperIT_EE6__callclsr3stdE7declvalIRKS6_EEEEE4typeES8_, symObjAddr: 0x3720, symBinAddr: 0x100006CC0, symSize: 0x20 }
  - { offsetInCU: 0x12A5F, offset: 0x12A5F, size: 0x8, addend: 0x0, symName: __ZNSt3__118__debug_db_erase_cB7v160006INS_6vectorI4DateNS_9allocatorIS2_EEEEEEvPT_, symObjAddr: 0x39F0, symBinAddr: 0x100006F90, symSize: 0x10 }
  - { offsetInCU: 0x12A90, offset: 0x12A90, size: 0x8, addend: 0x0, symName: __ZNSt3__119__libcpp_deallocateB7v160006EPvmm, symObjAddr: 0x3B20, symBinAddr: 0x1000070C0, symSize: 0x60 }
  - { offsetInCU: 0x12AF5, offset: 0x12AF5, size: 0x8, addend: 0x0, symName: __ZNSt3__127__do_deallocate_handle_sizeB7v160006IJSt11align_val_tEEEvPvmDpT_, symObjAddr: 0x3B80, symBinAddr: 0x100007120, symSize: 0x30 }
  - { offsetInCU: 0x12B48, offset: 0x12B48, size: 0x8, addend: 0x0, symName: __ZNSt3__127__do_deallocate_handle_sizeB7v160006IJEEEvPvmDpT_, symObjAddr: 0x3BB0, symBinAddr: 0x100007150, symSize: 0x20 }
  - { offsetInCU: 0x12B86, offset: 0x12B86, size: 0x8, addend: 0x0, symName: __ZNSt3__124__libcpp_operator_deleteB7v160006IJPvSt11align_val_tEEEvDpT_, symObjAddr: 0x3BD0, symBinAddr: 0x100007170, symSize: 0x30 }
  - { offsetInCU: 0x12BCF, offset: 0x12BCF, size: 0x8, addend: 0x0, symName: __ZNSt3__124__libcpp_operator_deleteB7v160006IJPvEEEvDpT_, symObjAddr: 0x3C00, symBinAddr: 0x1000071A0, symSize: 0x20 }
  - { offsetInCU: 0x12C04, offset: 0x12C04, size: 0x8, addend: 0x0, symName: __ZNSt3__122__make_exception_guardB7v160006INS_6vectorIdNS_9allocatorIdEEE16__destroy_vectorEEENS_28__exception_guard_exceptionsIT_EES7_, symObjAddr: 0x3D90, symBinAddr: 0x100007330, symSize: 0x40 }
  - { offsetInCU: 0x12C39, offset: 0x12C39, size: 0x8, addend: 0x0, symName: __ZNSt3__119__debug_db_insert_cB7v160006INS_6vectorIdNS_9allocatorIdEEEEEEvPT_, symObjAddr: 0x3E00, symBinAddr: 0x1000073A0, symSize: 0x10 }
  - { offsetInCU: 0x12C6A, offset: 0x12C6A, size: 0x8, addend: 0x0, symName: __ZNSt3__119__allocate_at_leastB7v160006INS_9allocatorIdEEEENS_19__allocation_resultINS_16allocator_traitsIT_E7pointerEEERS5_m, symObjAddr: 0x4130, symBinAddr: 0x1000076D0, symSize: 0x40 }
  - { offsetInCU: 0x12CAD, offset: 0x12CAD, size: 0x8, addend: 0x0, symName: __ZNSt3__112__to_addressB7v160006IdEEPT_S2_, symObjAddr: 0x43C0, symBinAddr: 0x100007960, symSize: 0x10 }
  - { offsetInCU: 0x12CE2, offset: 0x12CE2, size: 0x8, addend: 0x0, symName: __ZNSt3__130__uninitialized_allocator_copyB7v160006INS_9allocatorIdEEPdS3_S3_EET2_RT_T0_T1_S4_, symObjAddr: 0x4450, symBinAddr: 0x1000079F0, symSize: 0x100 }
  - { offsetInCU: 0x12D80, offset: 0x12D80, size: 0x8, addend: 0x0, symName: __ZNSt3__122__make_exception_guardB7v160006INS_29_AllocatorDestroyRangeReverseINS_9allocatorIdEEPdEEEENS_28__exception_guard_exceptionsIT_EES7_, symObjAddr: 0x45B0, symBinAddr: 0x100007B50, symSize: 0x60 }
  - { offsetInCU: 0x12DB5, offset: 0x12DB5, size: 0x8, addend: 0x0, symName: __ZNSt3__119__allocator_destroyB7v160006INS_9allocatorIdEENS_16reverse_iteratorIPdEES5_EEvRT_T0_T1_, symObjAddr: 0x4840, symBinAddr: 0x100007DE0, symSize: 0x70 }
  - { offsetInCU: 0x12E18, offset: 0x12E18, size: 0x8, addend: 0x0, symName: __ZNSt3__1neB7v160006IPdS1_EEbRKNS_16reverse_iteratorIT_EERKNS2_IT0_EE, symObjAddr: 0x48E0, symBinAddr: 0x100007E80, symSize: 0x40 }
  - { offsetInCU: 0x12E64, offset: 0x12E64, size: 0x8, addend: 0x0, symName: __ZNSt3__112__to_addressB7v160006INS_16reverse_iteratorIPdEEvEENS_5decayIDTclsr19__to_address_helperIT_EE6__callclsr3stdE7declvalIRKS5_EEEEE4typeES7_, symObjAddr: 0x4950, symBinAddr: 0x100007EF0, symSize: 0x20 }
  - { offsetInCU: 0x12EC3, offset: 0x12EC3, size: 0x8, addend: 0x0, symName: __ZNSt3__118__debug_db_erase_cB7v160006INS_6vectorIdNS_9allocatorIdEEEEEEvPT_, symObjAddr: 0x4C20, symBinAddr: 0x1000081C0, symSize: 0x10 }
  - { offsetInCU: 0x12F8D, offset: 0x12F8D, size: 0x8, addend: 0x0, symName: __ZNSt3__17launderB7v160006IKNS_4pairIKNS_12basic_stringIcNS_11char_traitsIcEENS_9allocatorIcEEEE8VolCurveEEEEPT_SD_, symObjAddr: 0x4F30, symBinAddr: 0x1000084D0, symSize: 0x20 }
  - { offsetInCU: 0x12FC4, offset: 0x12FC4, size: 0x8, addend: 0x0, symName: __ZNSt3__19__launderB7v160006IKNS_4pairIKNS_12basic_stringIcNS_11char_traitsIcEENS_9allocatorIcEEEE8VolCurveEEEEPT_SD_, symObjAddr: 0x4F50, symBinAddr: 0x1000084F0, symSize: 0x10 }
  - { offsetInCU: 0x12FFB, offset: 0x12FFB, size: 0x8, addend: 0x0, symName: __ZNSt3__1neB7v160006ERKNS_21__hash_const_iteratorIPNS_11__hash_nodeINS_17__hash_value_typeINS_12basic_stringIcNS_11char_traitsIcEENS_9allocatorIcEEEEdEEPvEEEESF_, symObjAddr: 0x5150, symBinAddr: 0x1000086F0, symSize: 0x30 }
  - { offsetInCU: 0x13038, offset: 0x13038, size: 0x8, addend: 0x0, symName: __ZNSt3__1eqB7v160006ERKNS_21__hash_const_iteratorIPNS_11__hash_nodeINS_17__hash_value_typeINS_12basic_stringIcNS_11char_traitsIcEENS_9allocatorIcEEEEdEEPvEEEESF_, symObjAddr: 0x5180, symBinAddr: 0x100008720, symSize: 0x30 }
  - { offsetInCU: 0x130DB, offset: 0x130DB, size: 0x8, addend: 0x0, symName: __ZNSt3__17launderB7v160006IKNS_4pairIKNS_12basic_stringIcNS_11char_traitsIcEENS_9allocatorIcEEEEdEEEEPT_SC_, symObjAddr: 0x5240, symBinAddr: 0x1000087E0, symSize: 0x20 }
  - { offsetInCU: 0x13112, offset: 0x13112, size: 0x8, addend: 0x0, symName: __ZNSt3__19__launderB7v160006IKNS_4pairIKNS_12basic_stringIcNS_11char_traitsIcEENS_9allocatorIcEEEEdEEEEPT_SC_, symObjAddr: 0x5260, symBinAddr: 0x100008800, symSize: 0x10 }
  - { offsetInCU: 0x13149, offset: 0x13149, size: 0x8, addend: 0x0, symName: __ZNSt3__116__pad_and_outputB7v160006IcNS_11char_traitsIcEEEENS_19ostreambuf_iteratorIT_T0_EES6_PKS4_S8_S8_RNS_8ios_baseES4_, symObjAddr: 0x5530, symBinAddr: 0x100008AD0, symSize: 0x220 }
  - { offsetInCU: 0x13219, offset: 0x13219, size: 0x8, addend: 0x0, symName: __ZNSt3__119__debug_db_insert_cB7v160006INS_12basic_stringIcNS_11char_traitsIcEENS_9allocatorIcEEEEEEvPT_, symObjAddr: 0x59C0, symBinAddr: 0x100008F60, symSize: 0x10 }
  - { offsetInCU: 0x1324A, offset: 0x1324A, size: 0x8, addend: 0x0, symName: __ZNSt3__112__to_addressB7v160006IcEEPT_S2_, symObjAddr: 0x5A60, symBinAddr: 0x100009000, symSize: 0x10 }
  - { offsetInCU: 0x132B2, offset: 0x132B2, size: 0x8, addend: 0x0, symName: __ZNSt3__19use_facetB7v160006INS_5ctypeIcEEEERKT_RKNS_6localeE, symObjAddr: 0x5CF0, symBinAddr: 0x100009290, symSize: 0x30 }
  - { offsetInCU: 0x13781, offset: 0x13781, size: 0x8, addend: 0x0, symName: __ZNSt3__118__constexpr_strlenB7v160006EPKc, symObjAddr: 0x5D80, symBinAddr: 0x100009320, symSize: 0x20 }
  - { offsetInCU: 0x137AD, offset: 0x137AD, size: 0x8, addend: 0x0, symName: __ZNSt3__112__to_addressB7v160006IKcEEPT_S3_, symObjAddr: 0x5E20, symBinAddr: 0x1000093C0, symSize: 0x10 }
  - { offsetInCU: 0x13815, offset: 0x13815, size: 0x8, addend: 0x0, symName: __ZNSt3__118__debug_db_erase_cB7v160006INS_12__hash_tableINS_17__hash_value_typeINS_12basic_stringIcNS_11char_traitsIcEENS_9allocatorIcEEEEdEENS_22__unordered_map_hasherIS8_S9_NS_4hashIS8_EENS_8equal_toIS8_EELb1EEENS_21__unordered_map_equalIS8_S9_SE_SC_Lb1EEENS6_IS9_EEEEEEvPT_, symObjAddr: 0x6220, symBinAddr: 0x1000097C0, symSize: 0x10 }
  - { offsetInCU: 0x13846, offset: 0x13846, size: 0x8, addend: 0x0, symName: __ZNSt3__17launderB7v160006INS_4pairIKNS_12basic_stringIcNS_11char_traitsIcEENS_9allocatorIcEEEEdEEEEPT_SB_, symObjAddr: 0x6330, symBinAddr: 0x1000098D0, symSize: 0x20 }
  - { offsetInCU: 0x1387D, offset: 0x1387D, size: 0x8, addend: 0x0, symName: __ZNSt3__19__launderB7v160006INS_4pairIKNS_12basic_stringIcNS_11char_traitsIcEENS_9allocatorIcEEEEdEEEEPT_SB_, symObjAddr: 0x6350, symBinAddr: 0x1000098F0, symSize: 0x10 }
  - { offsetInCU: 0x138B4, offset: 0x138B4, size: 0x8, addend: 0x0, symName: __ZNSt3__118__debug_db_erase_cB7v160006INS_12__hash_tableINS_17__hash_value_typeINS_12basic_stringIcNS_11char_traitsIcEENS_9allocatorIcEEEE9RateCurveEENS_22__unordered_map_hasherIS8_SA_NS_4hashIS8_EENS_8equal_toIS8_EELb1EEENS_21__unordered_map_equalIS8_SA_SF_SD_Lb1EEENS6_ISA_EEEEEEvPT_, symObjAddr: 0x6750, symBinAddr: 0x100009CF0, symSize: 0x10 }
  - { offsetInCU: 0x138E5, offset: 0x138E5, size: 0x8, addend: 0x0, symName: __ZNSt3__17launderB7v160006INS_4pairIKNS_12basic_stringIcNS_11char_traitsIcEENS_9allocatorIcEEEE9RateCurveEEEEPT_SC_, symObjAddr: 0x68B0, symBinAddr: 0x100009E50, symSize: 0x20 }
  - { offsetInCU: 0x1391C, offset: 0x1391C, size: 0x8, addend: 0x0, symName: __ZNSt3__19__launderB7v160006INS_4pairIKNS_12basic_stringIcNS_11char_traitsIcEENS_9allocatorIcEEEE9RateCurveEEEEPT_SC_, symObjAddr: 0x68D0, symBinAddr: 0x100009E70, symSize: 0x10 }
  - { offsetInCU: 0x13953, offset: 0x13953, size: 0x8, addend: 0x0, symName: __ZNSt3__118__debug_db_erase_cB7v160006INS_12__hash_tableINS_17__hash_value_typeINS_12basic_stringIcNS_11char_traitsIcEENS_9allocatorIcEEEE8VolCurveEENS_22__unordered_map_hasherIS8_SA_NS_4hashIS8_EENS_8equal_toIS8_EELb1EEENS_21__unordered_map_equalIS8_SA_SF_SD_Lb1EEENS6_ISA_EEEEEEvPT_, symObjAddr: 0x6CB0, symBinAddr: 0x10000A250, symSize: 0x10 }
  - { offsetInCU: 0x13984, offset: 0x13984, size: 0x8, addend: 0x0, symName: __ZNSt3__17launderB7v160006INS_4pairIKNS_12basic_stringIcNS_11char_traitsIcEENS_9allocatorIcEEEE8VolCurveEEEEPT_SC_, symObjAddr: 0x6E10, symBinAddr: 0x10000A3B0, symSize: 0x20 }
  - { offsetInCU: 0x139BB, offset: 0x139BB, size: 0x8, addend: 0x0, symName: __ZNSt3__19__launderB7v160006INS_4pairIKNS_12basic_stringIcNS_11char_traitsIcEENS_9allocatorIcEEEE8VolCurveEEEEPT_SC_, symObjAddr: 0x6E30, symBinAddr: 0x10000A3D0, symSize: 0x10 }
  - { offsetInCU: 0x13A29, offset: 0x13A29, size: 0x8, addend: 0x0, symName: __ZNSt3__116forward_as_tupleB7v160006IJRKNS_12basic_stringIcNS_11char_traitsIcEENS_9allocatorIcEEEEEEENS_5tupleIJDpOT_EEESC_, symObjAddr: 0x7780, symBinAddr: 0x10000AD20, symSize: 0x30 }
  - { offsetInCU: 0x13A62, offset: 0x13A62, size: 0x8, addend: 0x0, symName: __ZNSt3__116forward_as_tupleB7v160006IJEEENS_5tupleIJDpOT_EEES4_, symObjAddr: 0x77B0, symBinAddr: 0x10000AD50, symSize: 0x10 }
  - { offsetInCU: 0x13A86, offset: 0x13A86, size: 0x8, addend: 0x0, symName: __ZNSt3__116__constrain_hashB7v160006Emm, symObjAddr: 0x7870, symBinAddr: 0x10000AE10, symSize: 0x80 }
  - { offsetInCU: 0x13AC0, offset: 0x13AC0, size: 0x8, addend: 0x0, symName: __ZNSt3__13maxB7v160006ImEERKT_S3_S3_, symObjAddr: 0x7B60, symBinAddr: 0x10000B100, symSize: 0x30 }
  - { offsetInCU: 0x13B03, offset: 0x13B03, size: 0x8, addend: 0x0, symName: __ZNSt3__116__is_hash_power2B7v160006Em, symObjAddr: 0x7B90, symBinAddr: 0x10000B130, symSize: 0x40 }
  - { offsetInCU: 0x13B2F, offset: 0x13B2F, size: 0x8, addend: 0x0, symName: __ZNSt3__116__do_string_hashB7v160006IPKcEEmT_S3_, symObjAddr: 0x7DA0, symBinAddr: 0x10000B340, symSize: 0x40 }
  - { offsetInCU: 0x13B75, offset: 0x13B75, size: 0x8, addend: 0x0, symName: __ZNSt3__110__loadwordB7v160006ImEET_PKv, symObjAddr: 0x8690, symBinAddr: 0x10000BC30, symSize: 0x20 }
  - { offsetInCU: 0x13BB8, offset: 0x13BB8, size: 0x8, addend: 0x0, symName: __ZNSt3__14swapB7v160006ImEENS_9enable_ifIXaasr21is_move_constructibleIT_EE5valuesr18is_move_assignableIS2_EE5valueEvE4typeERS2_S5_, symObjAddr: 0x8850, symBinAddr: 0x10000BDF0, symSize: 0x40 }
  - { offsetInCU: 0x13C09, offset: 0x13C09, size: 0x8, addend: 0x0, symName: __ZNSt3__110__loadwordB7v160006IjEET_PKv, symObjAddr: 0x88E0, symBinAddr: 0x10000BE80, symSize: 0x20 }
  - { offsetInCU: 0x13C4C, offset: 0x13C4C, size: 0x8, addend: 0x0, symName: __ZNSt3__1eqB7v160006INS_9allocatorIcEEEEbRKNS_12basic_stringIcNS_11char_traitsIcEET_EES9_, symObjAddr: 0x8B50, symBinAddr: 0x10000C0F0, symSize: 0x110 }
  - { offsetInCU: 0x13CBF, offset: 0x13CBF, size: 0x8, addend: 0x0, symName: __ZNSt3__118__constexpr_memcmpB7v160006IcEEiPKT_S3_m, symObjAddr: 0x8CC0, symBinAddr: 0x10000C260, symSize: 0x30 }
  - { offsetInCU: 0x13D39, offset: 0x13D39, size: 0x8, addend: 0x0, symName: __ZNSt3__13getB7v160006ILm0EJRKNS_12basic_stringIcNS_11char_traitsIcEENS_9allocatorIcEEEEEEERNS_13tuple_elementIXT_ENS_5tupleIJDpT0_EEEE4typeERSD_, symObjAddr: 0x90C0, symBinAddr: 0x10000C660, symSize: 0x20 }
  - { offsetInCU: 0x13D7C, offset: 0x13D7C, size: 0x8, addend: 0x0, symName: __ZNSt3__116__next_hash_pow2B7v160006Em, symObjAddr: 0x9920, symBinAddr: 0x10000CEC0, symSize: 0x60 }
  - { offsetInCU: 0x13DA8, offset: 0x13DA8, size: 0x8, addend: 0x0, symName: __ZNSt3__125__debug_db_invalidate_allB7v160006INS_12__hash_tableINS_17__hash_value_typeINS_12basic_stringIcNS_11char_traitsIcEENS_9allocatorIcEEEE9RateCurveEENS_22__unordered_map_hasherIS8_SA_NS_4hashIS8_EENS_8equal_toIS8_EELb1EEENS_21__unordered_map_equalIS8_SA_SF_SD_Lb1EEENS6_ISA_EEEEEEvPT_, symObjAddr: 0x9980, symBinAddr: 0x10000CF20, symSize: 0x10 }
  - { offsetInCU: 0x13DF5, offset: 0x13DF5, size: 0x8, addend: 0x0, symName: __ZNSt3__112__libcpp_clzB7v160006Em, symObjAddr: 0x9AE0, symBinAddr: 0x10000D080, symSize: 0x20 }
  - { offsetInCU: 0x13E21, offset: 0x13E21, size: 0x8, addend: 0x0, symName: __ZNSt3__13maxB7v160006ImNS_6__lessImmEEEERKT_S5_S5_T0_, symObjAddr: 0x9B00, symBinAddr: 0x10000D0A0, symSize: 0x50 }
  - { offsetInCU: 0x13ED2, offset: 0x13ED2, size: 0x8, addend: 0x0, symName: __ZNSt3__1eqB7v160006IPK4DateEEbRKNS_11__wrap_iterIT_EES8_, symObjAddr: 0x9E00, symBinAddr: 0x10000D3A0, symSize: 0x40 }
  - { offsetInCU: 0x13F15, offset: 0x13F15, size: 0x8, addend: 0x0, symName: __ZNSt3__142__uninitialized_allocator_move_if_noexceptB7v160006INS_9allocatorI4DateEENS_16reverse_iteratorIPS2_EES6_S2_vEET1_RT_T0_SA_S7_, symObjAddr: 0xA6C0, symBinAddr: 0x10000DC60, symSize: 0x70 }
  - { offsetInCU: 0x13F91, offset: 0x13F91, size: 0x8, addend: 0x0, symName: __ZNSt3__14swapB7v160006IP4DateEENS_9enable_ifIXaasr21is_move_constructibleIT_EE5valuesr18is_move_assignableIS4_EE5valueEvE4typeERS4_S7_, symObjAddr: 0xA730, symBinAddr: 0x10000DCD0, symSize: 0x40 }
  - { offsetInCU: 0x13FE2, offset: 0x13FE2, size: 0x8, addend: 0x0, symName: __ZNSt3__125__debug_db_invalidate_allB7v160006INS_6vectorI4DateNS_9allocatorIS2_EEEEEEvPT_, symObjAddr: 0xA770, symBinAddr: 0x10000DD10, symSize: 0x10 }
  - { offsetInCU: 0x14013, offset: 0x14013, size: 0x8, addend: 0x0, symName: __ZNSt3__14moveB7v160006INS_16reverse_iteratorIP4DateEES4_EET0_T_S6_S5_, symObjAddr: 0xA780, symBinAddr: 0x10000DD20, symSize: 0x80 }
  - { offsetInCU: 0x1406D, offset: 0x1406D, size: 0x8, addend: 0x0, symName: __ZNSt3__16__moveB7v160006INS_17_ClassicAlgPolicyENS_16reverse_iteratorIP4DateEES5_S5_EENS_4pairIT0_T2_EES7_T1_S8_, symObjAddr: 0xA800, symBinAddr: 0x10000DDA0, symSize: 0x90 }
  - { offsetInCU: 0x140D9, offset: 0x140D9, size: 0x8, addend: 0x0, symName: __ZNSt3__123__dispatch_copy_or_moveB7v160006INS_17_ClassicAlgPolicyENS_11__move_loopIS1_EENS_14__move_trivialENS_16reverse_iteratorIP4DateEES8_S8_EENS_4pairIT2_T4_EESA_T3_SB_, symObjAddr: 0xA890, symBinAddr: 0x10000DE30, symSize: 0x90 }
  - { offsetInCU: 0x14157, offset: 0x14157, size: 0x8, addend: 0x0, symName: __ZNSt3__121__unwrap_and_dispatchB7v160006INS_10__overloadINS_11__move_loopINS_17_ClassicAlgPolicyEEENS_14__move_trivialEEENS_16reverse_iteratorIP4DateEESA_SA_Li0EEENS_4pairIT0_T2_EESC_T1_SD_, symObjAddr: 0xA920, symBinAddr: 0x10000DEC0, symSize: 0x210 }
  - { offsetInCU: 0x141E6, offset: 0x141E6, size: 0x8, addend: 0x0, symName: __ZNSt3__114__unwrap_rangeB7v160006INS_16reverse_iteratorIP4DateEES4_EENS_4pairIT0_S6_EET_S8_, symObjAddr: 0xAB30, symBinAddr: 0x10000E0D0, symSize: 0x90 }
  - { offsetInCU: 0x14361, offset: 0x14361, size: 0x8, addend: 0x0, symName: __ZNSt3__113__unwrap_iterB7v160006INS_16reverse_iteratorIP4DateEENS_18__unwrap_iter_implIS4_Lb0EEELi0EEEDTclsrT0_8__unwrapclsr3stdE7declvalIT_EEEES8_, symObjAddr: 0xAC60, symBinAddr: 0x10000E200, symSize: 0x40 }
  - { offsetInCU: 0x143A5, offset: 0x143A5, size: 0x8, addend: 0x0, symName: __ZNSt3__19make_pairB7v160006INS_16reverse_iteratorIP4DateEES4_EENS_4pairINS_18__unwrap_ref_decayIT_E4typeENS6_IT0_E4typeEEEOS7_OSA_, symObjAddr: 0xACA0, symBinAddr: 0x10000E240, symSize: 0x30 }
  - { offsetInCU: 0x143F4, offset: 0x143F4, size: 0x8, addend: 0x0, symName: __ZNSt3__114__rewrap_rangeB7v160006INS_16reverse_iteratorIP4DateEES4_EET_S5_T0_, symObjAddr: 0xACD0, symBinAddr: 0x10000E270, symSize: 0x60 }
  - { offsetInCU: 0x14440, offset: 0x14440, size: 0x8, addend: 0x0, symName: __ZNSt3__113__rewrap_iterB7v160006INS_16reverse_iteratorIP4DateEES4_NS_18__unwrap_iter_implIS4_Lb0EEEEET_S7_T0_, symObjAddr: 0xAD30, symBinAddr: 0x10000E2D0, symSize: 0x70 }
  - { offsetInCU: 0x1493B, offset: 0x1493B, size: 0x8, addend: 0x0, symName: __ZSt28__throw_bad_array_new_lengthB7v160006v, symObjAddr: 0x2FA0, symBinAddr: 0x100006540, symSize: 0x40 }
  - { offsetInCU: 0x159C4, offset: 0x159C4, size: 0x8, addend: 0x0, symName: __ZNSt3__16vectorI4DateNS_9allocatorIS1_EEE26__swap_out_circular_bufferERNS_14__split_bufferIS1_RS3_EE, symObjAddr: 0xA380, symBinAddr: 0x10000D920, symSize: 0x130 }
  - { offsetInCU: 0x189EA, offset: 0x189EA, size: 0x8, addend: 0x0, symName: __ZN4Bond20generateBondScheduleEv, symObjAddr: 0x0, symBinAddr: 0x1000035A0, symSize: 0x230 }
  - { offsetInCU: 0x18A4B, offset: 0x18A4B, size: 0x8, addend: 0x0, symName: __ZNSt3__112basic_stringIcNS_11char_traitsIcEENS_9allocatorIcEEEC1B7v160006Ev, symObjAddr: 0x230, symBinAddr: 0x1000037D0, symSize: 0x20 }
  - { offsetInCU: 0x18A75, offset: 0x18A75, size: 0x8, addend: 0x0, symName: __ZNSt3__112basic_stringIcNS_11char_traitsIcEENS_9allocatorIcEEEaSB7v160006EPKc, symObjAddr: 0x250, symBinAddr: 0x1000037F0, symSize: 0x30 }
  - { offsetInCU: 0x18AAA, offset: 0x18AAA, size: 0x8, addend: 0x0, symName: __ZNSt3__16vectorI4DateNS_9allocatorIS1_EEE9push_backB7v160006ERKS1_, symObjAddr: 0x280, symBinAddr: 0x100003820, symSize: 0x60 }
  - { offsetInCU: 0x18AE1, offset: 0x18AE1, size: 0x8, addend: 0x0, symName: __ZNKSt3__16vectorI4DateNS_9allocatorIS1_EEE4sizeB7v160006Ev, symObjAddr: 0x2E0, symBinAddr: 0x100003880, symSize: 0x30 }
  - { offsetInCU: 0x18B07, offset: 0x18B07, size: 0x8, addend: 0x0, symName: __ZNK4Bond6PayoffEd, symObjAddr: 0x310, symBinAddr: 0x1000038B0, symSize: 0x30 }
  - { offsetInCU: 0x18B4B, offset: 0x18B4B, size: 0x8, addend: 0x0, symName: __ZNK4Bond2PvERK6Market, symObjAddr: 0x340, symBinAddr: 0x1000038E0, symSize: 0x410 }
  - { offsetInCU: 0x18C35, offset: 0x18C35, size: 0x8, addend: 0x0, symName: __ZN6MarketC1ERKS_, symObjAddr: 0x750, symBinAddr: 0x100003CF0, symSize: 0x30 }
  - { offsetInCU: 0x18C6D, offset: 0x18C6D, size: 0x8, addend: 0x0, symName: __ZN6Market8getCurveERKNSt3__112basic_stringIcNS0_11char_traitsIcEENS0_9allocatorIcEEEE, symObjAddr: 0x780, symBinAddr: 0x100003D20, symSize: 0x50 }
  - { offsetInCU: 0x18CA6, offset: 0x18CA6, size: 0x8, addend: 0x0, symName: __ZNSt3__112basic_stringIcNS_11char_traitsIcEENS_9allocatorIcEEEC1B7v160006IDnEEPKc, symObjAddr: 0x7D0, symBinAddr: 0x100003D70, symSize: 0x30 }
  - { offsetInCU: 0x18CE4, offset: 0x18CE4, size: 0x8, addend: 0x0, symName: __ZNKSt3__16vectorI4DateNS_9allocatorIS1_EEE5beginB7v160006Ev, symObjAddr: 0x800, symBinAddr: 0x100003DA0, symSize: 0x30 }
  - { offsetInCU: 0x18D0C, offset: 0x18D0C, size: 0x8, addend: 0x0, symName: __ZNKSt3__16vectorI4DateNS_9allocatorIS1_EEE3endB7v160006Ev, symObjAddr: 0x830, symBinAddr: 0x100003DD0, symSize: 0x30 }
  - { offsetInCU: 0x18D34, offset: 0x18D34, size: 0x8, addend: 0x0, symName: __ZNKSt3__111__wrap_iterIPK4DateEdeB7v160006Ev, symObjAddr: 0x890, symBinAddr: 0x100003E30, symSize: 0x20 }
  - { offsetInCU: 0x18D5A, offset: 0x18D5A, size: 0x8, addend: 0x0, symName: __ZNSt3__111__wrap_iterIPK4DateEppB7v160006Ev, symObjAddr: 0x8B0, symBinAddr: 0x100003E50, symSize: 0x20 }
  - { offsetInCU: 0x18D80, offset: 0x18D80, size: 0x8, addend: 0x0, symName: __ZN9RateCurveD1Ev, symObjAddr: 0x8D0, symBinAddr: 0x100003E70, symSize: 0x20 }
  - { offsetInCU: 0x18DAC, offset: 0x18DAC, size: 0x8, addend: 0x0, symName: __ZN6MarketD1Ev, symObjAddr: 0x8F0, symBinAddr: 0x100003E90, symSize: 0x20 }
  - { offsetInCU: 0x18DD8, offset: 0x18DD8, size: 0x8, addend: 0x0, symName: __ZNK5Trade7getNameEv, symObjAddr: 0x910, symBinAddr: 0x100003EB0, symSize: 0x30 }
  - { offsetInCU: 0x18DFE, offset: 0x18DFE, size: 0x8, addend: 0x0, symName: __ZN4BondD1Ev, symObjAddr: 0x940, symBinAddr: 0x100003EE0, symSize: 0x20 }
  - { offsetInCU: 0x18E2A, offset: 0x18E2A, size: 0x8, addend: 0x0, symName: __ZN4BondD0Ev, symObjAddr: 0x960, symBinAddr: 0x100003F00, symSize: 0x30 }
  - { offsetInCU: 0x18E56, offset: 0x18E56, size: 0x8, addend: 0x0, symName: __ZN6MarketC2ERKS_, symObjAddr: 0x990, symBinAddr: 0x100003F30, symSize: 0x5A0 }
  - { offsetInCU: 0x18F44, offset: 0x18F44, size: 0x8, addend: 0x0, symName: __ZN4DateC1Ev, symObjAddr: 0xF30, symBinAddr: 0x1000044D0, symSize: 0x20 }
  - { offsetInCU: 0x18F6E, offset: 0x18F6E, size: 0x8, addend: 0x0, symName: __ZNSt3__113unordered_mapINS_12basic_stringIcNS_11char_traitsIcEENS_9allocatorIcEEEE8VolCurveNS_4hashIS6_EENS_8equal_toIS6_EENS4_INS_4pairIKS6_S7_EEEEEC1B7v160006Ev, symObjAddr: 0xF50, symBinAddr: 0x1000044F0, symSize: 0x20 }
  - { offsetInCU: 0x18F98, offset: 0x18F98, size: 0x8, addend: 0x0, symName: __ZNSt3__113unordered_mapINS_12basic_stringIcNS_11char_traitsIcEENS_9allocatorIcEEEE9RateCurveNS_4hashIS6_EENS_8equal_toIS6_EENS4_INS_4pairIKS6_S7_EEEEEC1B7v160006Ev, symObjAddr: 0xF70, symBinAddr: 0x100004510, symSize: 0x20 }
  - { offsetInCU: 0x18FC2, offset: 0x18FC2, size: 0x8, addend: 0x0, symName: __ZNSt3__113unordered_mapINS_12basic_stringIcNS_11char_traitsIcEENS_9allocatorIcEEEEdNS_4hashIS6_EENS_8equal_toIS6_EENS4_INS_4pairIKS6_dEEEEEC1B7v160006Ev, symObjAddr: 0xF90, symBinAddr: 0x100004530, symSize: 0x20 }
  - { offsetInCU: 0x18FEC, offset: 0x18FEC, size: 0x8, addend: 0x0, symName: __ZNKSt3__113unordered_mapINS_12basic_stringIcNS_11char_traitsIcEENS_9allocatorIcEEEE9RateCurveNS_4hashIS6_EENS_8equal_toIS6_EENS4_INS_4pairIKS6_S7_EEEEE5beginB7v160006Ev, symObjAddr: 0xFB0, symBinAddr: 0x100004550, symSize: 0x30 }
  - { offsetInCU: 0x19012, offset: 0x19012, size: 0x8, addend: 0x0, symName: __ZNKSt3__125__hash_map_const_iteratorINS_21__hash_const_iteratorIPNS_11__hash_nodeINS_17__hash_value_typeINS_12basic_stringIcNS_11char_traitsIcEENS_9allocatorIcEEEE9RateCurveEEPvEEEEEptB7v160006Ev, symObjAddr: 0xFE0, symBinAddr: 0x100004580, symSize: 0x30 }
  - { offsetInCU: 0x19038, offset: 0x19038, size: 0x8, addend: 0x0, symName: __ZN9RateCurveC1ERKS_, symObjAddr: 0x1010, symBinAddr: 0x1000045B0, symSize: 0x30 }
  - { offsetInCU: 0x1906D, offset: 0x1906D, size: 0x8, addend: 0x0, symName: __ZNKSt3__113unordered_mapINS_12basic_stringIcNS_11char_traitsIcEENS_9allocatorIcEEEE8VolCurveNS_4hashIS6_EENS_8equal_toIS6_EENS4_INS_4pairIKS6_S7_EEEEE5beginB7v160006Ev, symObjAddr: 0x1040, symBinAddr: 0x1000045E0, symSize: 0x30 }
  - { offsetInCU: 0x19093, offset: 0x19093, size: 0x8, addend: 0x0, symName: __ZNKSt3__125__hash_map_const_iteratorINS_21__hash_const_iteratorIPNS_11__hash_nodeINS_17__hash_value_typeINS_12basic_stringIcNS_11char_traitsIcEENS_9allocatorIcEEEE8VolCurveEEPvEEEEEptB7v160006Ev, symObjAddr: 0x1070, symBinAddr: 0x100004610, symSize: 0x30 }
  - { offsetInCU: 0x190B9, offset: 0x190B9, size: 0x8, addend: 0x0, symName: __ZN8VolCurveC1ERKS_, symObjAddr: 0x10A0, symBinAddr: 0x100004640, symSize: 0x30 }
  - { offsetInCU: 0x190EE, offset: 0x190EE, size: 0x8, addend: 0x0, symName: __ZNKSt3__113unordered_mapINS_12basic_stringIcNS_11char_traitsIcEENS_9allocatorIcEEEEdNS_4hashIS6_EENS_8equal_toIS6_EENS4_INS_4pairIKS6_dEEEEE5beginB7v160006Ev, symObjAddr: 0x10D0, symBinAddr: 0x100004670, symSize: 0x30 }
  - { offsetInCU: 0x19114, offset: 0x19114, size: 0x8, addend: 0x0, symName: __ZNKSt3__113unordered_mapINS_12basic_stringIcNS_11char_traitsIcEENS_9allocatorIcEEEEdNS_4hashIS6_EENS_8equal_toIS6_EENS4_INS_4pairIKS6_dEEEEE3endB7v160006Ev, symObjAddr: 0x1100, symBinAddr: 0x1000046A0, symSize: 0x30 }
  - { offsetInCU: 0x1913A, offset: 0x1913A, size: 0x8, addend: 0x0, symName: __ZNKSt3__125__hash_map_const_iteratorINS_21__hash_const_iteratorIPNS_11__hash_nodeINS_17__hash_value_typeINS_12basic_stringIcNS_11char_traitsIcEENS_9allocatorIcEEEEdEEPvEEEEEdeB7v160006Ev, symObjAddr: 0x1160, symBinAddr: 0x100004700, symSize: 0x30 }
  - { offsetInCU: 0x19160, offset: 0x19160, size: 0x8, addend: 0x0, symName: __ZNSt3__14pairIKNS_12basic_stringIcNS_11char_traitsIcEENS_9allocatorIcEEEEdEC1ERKS8_, symObjAddr: 0x1190, symBinAddr: 0x100004730, symSize: 0x30 }
  - { offsetInCU: 0x19195, offset: 0x19195, size: 0x8, addend: 0x0, symName: __ZNSt3__14pairIKNS_12basic_stringIcNS_11char_traitsIcEENS_9allocatorIcEEEEdED1Ev, symObjAddr: 0x11C0, symBinAddr: 0x100004760, symSize: 0x20 }
  - { offsetInCU: 0x191C1, offset: 0x191C1, size: 0x8, addend: 0x0, symName: __ZNSt3__125__hash_map_const_iteratorINS_21__hash_const_iteratorIPNS_11__hash_nodeINS_17__hash_value_typeINS_12basic_stringIcNS_11char_traitsIcEENS_9allocatorIcEEEEdEEPvEEEEEppB7v160006Ev, symObjAddr: 0x11E0, symBinAddr: 0x100004780, symSize: 0x30 }
  - { offsetInCU: 0x191E7, offset: 0x191E7, size: 0x8, addend: 0x0, symName: __ZNKSt3__113unordered_mapINS_12basic_stringIcNS_11char_traitsIcEENS_9allocatorIcEEEE8VolCurveNS_4hashIS6_EENS_8equal_toIS6_EENS4_INS_4pairIKS6_S7_EEEEE4sizeB7v160006Ev, symObjAddr: 0x12A0, symBinAddr: 0x100004840, symSize: 0x20 }
  - { offsetInCU: 0x1920D, offset: 0x1920D, size: 0x8, addend: 0x0, symName: __ZNKSt3__113unordered_mapINS_12basic_stringIcNS_11char_traitsIcEENS_9allocatorIcEEEE9RateCurveNS_4hashIS6_EENS_8equal_toIS6_EENS4_INS_4pairIKS6_S7_EEEEE4sizeB7v160006Ev, symObjAddr: 0x12C0, symBinAddr: 0x100004860, symSize: 0x20 }
  - { offsetInCU: 0x19233, offset: 0x19233, size: 0x8, addend: 0x0, symName: __ZNKSt3__113unordered_mapINS_12basic_stringIcNS_11char_traitsIcEENS_9allocatorIcEEEEdNS_4hashIS6_EENS_8equal_toIS6_EENS4_INS_4pairIKS6_dEEEEE4sizeB7v160006Ev, symObjAddr: 0x12E0, symBinAddr: 0x100004880, symSize: 0x20 }
  - { offsetInCU: 0x19259, offset: 0x19259, size: 0x8, addend: 0x0, symName: __ZNSt3__113basic_ostreamIcNS_11char_traitsIcEEElsB7v160006EPFRS3_S4_E, symObjAddr: 0x1300, symBinAddr: 0x1000048A0, symSize: 0x20 }
  - { offsetInCU: 0x1928D, offset: 0x1928D, size: 0x8, addend: 0x0, symName: __ZN8VolCurveD1Ev, symObjAddr: 0x1370, symBinAddr: 0x100004910, symSize: 0x20 }
  - { offsetInCU: 0x192B9, offset: 0x192B9, size: 0x8, addend: 0x0, symName: __ZNSt3__113unordered_mapINS_12basic_stringIcNS_11char_traitsIcEENS_9allocatorIcEEEEdNS_4hashIS6_EENS_8equal_toIS6_EENS4_INS_4pairIKS6_dEEEEED1B7v160006Ev, symObjAddr: 0x1390, symBinAddr: 0x100004930, symSize: 0x20 }
  - { offsetInCU: 0x192E3, offset: 0x192E3, size: 0x8, addend: 0x0, symName: __ZNSt3__113unordered_mapINS_12basic_stringIcNS_11char_traitsIcEENS_9allocatorIcEEEE9RateCurveNS_4hashIS6_EENS_8equal_toIS6_EENS4_INS_4pairIKS6_S7_EEEEED1B7v160006Ev, symObjAddr: 0x13B0, symBinAddr: 0x100004950, symSize: 0x20 }
  - { offsetInCU: 0x1930D, offset: 0x1930D, size: 0x8, addend: 0x0, symName: __ZNSt3__113unordered_mapINS_12basic_stringIcNS_11char_traitsIcEENS_9allocatorIcEEEE8VolCurveNS_4hashIS6_EENS_8equal_toIS6_EENS4_INS_4pairIKS6_S7_EEEEED1B7v160006Ev, symObjAddr: 0x13D0, symBinAddr: 0x100004970, symSize: 0x20 }
  - { offsetInCU: 0x19337, offset: 0x19337, size: 0x8, addend: 0x0, symName: __ZN4DateC2Ev, symObjAddr: 0x13F0, symBinAddr: 0x100004990, symSize: 0x10 }
  - { offsetInCU: 0x19361, offset: 0x19361, size: 0x8, addend: 0x0, symName: __ZNSt3__113unordered_mapINS_12basic_stringIcNS_11char_traitsIcEENS_9allocatorIcEEEE8VolCurveNS_4hashIS6_EENS_8equal_toIS6_EENS4_INS_4pairIKS6_S7_EEEEEC2B7v160006Ev, symObjAddr: 0x1400, symBinAddr: 0x1000049A0, symSize: 0x40 }
  - { offsetInCU: 0x1938B, offset: 0x1938B, size: 0x8, addend: 0x0, symName: __ZNSt3__112__hash_tableINS_17__hash_value_typeINS_12basic_stringIcNS_11char_traitsIcEENS_9allocatorIcEEEE8VolCurveEENS_22__unordered_map_hasherIS7_S9_NS_4hashIS7_EENS_8equal_toIS7_EELb1EEENS_21__unordered_map_equalIS7_S9_SE_SC_Lb1EEENS5_IS9_EEEC1Ev, symObjAddr: 0x1440, symBinAddr: 0x1000049E0, symSize: 0x20 }
  - { offsetInCU: 0x193B7, offset: 0x193B7, size: 0x8, addend: 0x0, symName: __ZNSt3__112__hash_tableINS_17__hash_value_typeINS_12basic_stringIcNS_11char_traitsIcEENS_9allocatorIcEEEE8VolCurveEENS_22__unordered_map_hasherIS7_S9_NS_4hashIS7_EENS_8equal_toIS7_EELb1EEENS_21__unordered_map_equalIS7_S9_SE_SC_Lb1EEENS5_IS9_EEEC2Ev, symObjAddr: 0x1480, symBinAddr: 0x100004A20, symSize: 0x80 }
  - { offsetInCU: 0x193E3, offset: 0x193E3, size: 0x8, addend: 0x0, symName: __ZNSt3__110unique_ptrIA_PNS_16__hash_node_baseIPNS_11__hash_nodeINS_17__hash_value_typeINS_12basic_stringIcNS_11char_traitsIcEENS_9allocatorIcEEEE8VolCurveEEPvEEEENS_25__bucket_list_deallocatorINS7_ISG_EEEEEC1B7v160006ILb1EvEEv, symObjAddr: 0x1500, symBinAddr: 0x100004AA0, symSize: 0x20 }
  - { offsetInCU: 0x19418, offset: 0x19418, size: 0x8, addend: 0x0, symName: __ZNSt3__117__compressed_pairINS_16__hash_node_baseIPNS_11__hash_nodeINS_17__hash_value_typeINS_12basic_stringIcNS_11char_traitsIcEENS_9allocatorIcEEEE8VolCurveEEPvEEEENS7_ISD_EEEC1B7v160006ILb1EvEEv, symObjAddr: 0x1520, symBinAddr: 0x100004AC0, symSize: 0x20 }
  - { offsetInCU: 0x19457, offset: 0x19457, size: 0x8, addend: 0x0, symName: __ZNSt3__117__compressed_pairImNS_22__unordered_map_hasherINS_12basic_stringIcNS_11char_traitsIcEENS_9allocatorIcEEEENS_17__hash_value_typeIS7_8VolCurveEENS_4hashIS7_EENS_8equal_toIS7_EELb1EEEEC1B7v160006IiNS_18__default_init_tagEEEOT_OT0_, symObjAddr: 0x1540, symBinAddr: 0x100004AE0, symSize: 0x30 }
  - { offsetInCU: 0x194B4, offset: 0x194B4, size: 0x8, addend: 0x0, symName: __ZNSt3__117__compressed_pairIfNS_21__unordered_map_equalINS_12basic_stringIcNS_11char_traitsIcEENS_9allocatorIcEEEENS_17__hash_value_typeIS7_8VolCurveEENS_8equal_toIS7_EENS_4hashIS7_EELb1EEEEC1B7v160006IfNS_18__default_init_tagEEEOT_OT0_, symObjAddr: 0x1570, symBinAddr: 0x100004B10, symSize: 0x30 }
  - { offsetInCU: 0x1950C, offset: 0x1950C, size: 0x8, addend: 0x0, symName: __ZNSt3__110unique_ptrIA_PNS_16__hash_node_baseIPNS_11__hash_nodeINS_17__hash_value_typeINS_12basic_stringIcNS_11char_traitsIcEENS_9allocatorIcEEEE8VolCurveEEPvEEEENS_25__bucket_list_deallocatorINS7_ISG_EEEEEC2B7v160006ILb1EvEEv, symObjAddr: 0x15A0, symBinAddr: 0x100004B40, symSize: 0x30 }
  - { offsetInCU: 0x19546, offset: 0x19546, size: 0x8, addend: 0x0, symName: __ZNSt3__117__compressed_pairIPPNS_16__hash_node_baseIPNS_11__hash_nodeINS_17__hash_value_typeINS_12basic_stringIcNS_11char_traitsIcEENS_9allocatorIcEEEE8VolCurveEEPvEEEENS_25__bucket_list_deallocatorINS7_ISG_EEEEEC1B7v160006INS_16__value_init_tagESN_EEOT_OT0_, symObjAddr: 0x15D0, symBinAddr: 0x100004B70, symSize: 0x30 }
  - { offsetInCU: 0x1959E, offset: 0x1959E, size: 0x8, addend: 0x0, symName: __ZNSt3__117__compressed_pairIPPNS_16__hash_node_baseIPNS_11__hash_nodeINS_17__hash_value_typeINS_12basic_stringIcNS_11char_traitsIcEENS_9allocatorIcEEEE8VolCurveEEPvEEEENS_25__bucket_list_deallocatorINS7_ISG_EEEEEC2B7v160006INS_16__value_init_tagESN_EEOT_OT0_, symObjAddr: 0x1600, symBinAddr: 0x100004BA0, symSize: 0x40 }
  - { offsetInCU: 0x195F6, offset: 0x195F6, size: 0x8, addend: 0x0, symName: __ZNSt3__122__compressed_pair_elemIPPNS_16__hash_node_baseIPNS_11__hash_nodeINS_17__hash_value_typeINS_12basic_stringIcNS_11char_traitsIcEENS_9allocatorIcEEEE8VolCurveEEPvEEEELi0ELb0EEC2B7v160006ENS_16__value_init_tagE, symObjAddr: 0x1640, symBinAddr: 0x100004BE0, symSize: 0x20 }
  - { offsetInCU: 0x1962B, offset: 0x1962B, size: 0x8, addend: 0x0, symName: __ZNSt3__122__compressed_pair_elemINS_25__bucket_list_deallocatorINS_9allocatorIPNS_16__hash_node_baseIPNS_11__hash_nodeINS_17__hash_value_typeINS_12basic_stringIcNS_11char_traitsIcEENS2_IcEEEE8VolCurveEEPvEEEEEEEELi1ELb0EEC2B7v160006ENS_16__value_init_tagE, symObjAddr: 0x1660, symBinAddr: 0x100004C00, symSize: 0x20 }
  - { offsetInCU: 0x19660, offset: 0x19660, size: 0x8, addend: 0x0, symName: __ZNSt3__125__bucket_list_deallocatorINS_9allocatorIPNS_16__hash_node_baseIPNS_11__hash_nodeINS_17__hash_value_typeINS_12basic_stringIcNS_11char_traitsIcEENS1_IcEEEE8VolCurveEEPvEEEEEEEC1B7v160006Ev, symObjAddr: 0x1680, symBinAddr: 0x100004C20, symSize: 0x20 }
  - { offsetInCU: 0x1968A, offset: 0x1968A, size: 0x8, addend: 0x0, symName: __ZNSt3__125__bucket_list_deallocatorINS_9allocatorIPNS_16__hash_node_baseIPNS_11__hash_nodeINS_17__hash_value_typeINS_12basic_stringIcNS_11char_traitsIcEENS1_IcEEEE8VolCurveEEPvEEEEEEEC2B7v160006Ev, symObjAddr: 0x16A0, symBinAddr: 0x100004C40, symSize: 0x40 }
  - { offsetInCU: 0x196B4, offset: 0x196B4, size: 0x8, addend: 0x0, symName: __ZNSt3__117__compressed_pairImNS_9allocatorIPNS_16__hash_node_baseIPNS_11__hash_nodeINS_17__hash_value_typeINS_12basic_stringIcNS_11char_traitsIcEENS1_IcEEEE8VolCurveEEPvEEEEEEEC1B7v160006IiNS_18__default_init_tagEEEOT_OT0_, symObjAddr: 0x16E0, symBinAddr: 0x100004C80, symSize: 0x30 }
  - { offsetInCU: 0x1970C, offset: 0x1970C, size: 0x8, addend: 0x0, symName: __ZNSt3__117__compressed_pairImNS_9allocatorIPNS_16__hash_node_baseIPNS_11__hash_nodeINS_17__hash_value_typeINS_12basic_stringIcNS_11char_traitsIcEENS1_IcEEEE8VolCurveEEPvEEEEEEEC2B7v160006IiNS_18__default_init_tagEEEOT_OT0_, symObjAddr: 0x1710, symBinAddr: 0x100004CB0, symSize: 0x40 }
  - { offsetInCU: 0x19764, offset: 0x19764, size: 0x8, addend: 0x0, symName: __ZNSt3__122__compressed_pair_elemImLi0ELb0EEC2B7v160006IivEEOT_, symObjAddr: 0x1750, symBinAddr: 0x100004CF0, symSize: 0x20 }
  - { offsetInCU: 0x197A6, offset: 0x197A6, size: 0x8, addend: 0x0, symName: __ZNSt3__122__compressed_pair_elemINS_9allocatorIPNS_16__hash_node_baseIPNS_11__hash_nodeINS_17__hash_value_typeINS_12basic_stringIcNS_11char_traitsIcEENS1_IcEEEE8VolCurveEEPvEEEEEELi1ELb1EEC2B7v160006ENS_18__default_init_tagE, symObjAddr: 0x1770, symBinAddr: 0x100004D10, symSize: 0x20 }
  - { offsetInCU: 0x197DB, offset: 0x197DB, size: 0x8, addend: 0x0, symName: __ZNSt3__19allocatorIPNS_16__hash_node_baseIPNS_11__hash_nodeINS_17__hash_value_typeINS_12basic_stringIcNS_11char_traitsIcEENS0_IcEEEE8VolCurveEEPvEEEEEC2B7v160006Ev, symObjAddr: 0x1790, symBinAddr: 0x100004D30, symSize: 0x20 }
  - { offsetInCU: 0x19805, offset: 0x19805, size: 0x8, addend: 0x0, symName: __ZNSt3__116__non_trivial_ifILb1ENS_9allocatorIPNS_16__hash_node_baseIPNS_11__hash_nodeINS_17__hash_value_typeINS_12basic_stringIcNS_11char_traitsIcEENS1_IcEEEE8VolCurveEEPvEEEEEEEC2B7v160006Ev, symObjAddr: 0x17B0, symBinAddr: 0x100004D50, symSize: 0x10 }
  - { offsetInCU: 0x1982F, offset: 0x1982F, size: 0x8, addend: 0x0, symName: __ZNSt3__117__compressed_pairINS_16__hash_node_baseIPNS_11__hash_nodeINS_17__hash_value_typeINS_12basic_stringIcNS_11char_traitsIcEENS_9allocatorIcEEEE8VolCurveEEPvEEEENS7_ISD_EEEC2B7v160006ILb1EvEEv, symObjAddr: 0x17C0, symBinAddr: 0x100004D60, symSize: 0x30 }
  - { offsetInCU: 0x19864, offset: 0x19864, size: 0x8, addend: 0x0, symName: __ZNSt3__122__compressed_pair_elemINS_16__hash_node_baseIPNS_11__hash_nodeINS_17__hash_value_typeINS_12basic_stringIcNS_11char_traitsIcEENS_9allocatorIcEEEE8VolCurveEEPvEEEELi0ELb0EEC2B7v160006ENS_16__value_init_tagE, symObjAddr: 0x17F0, symBinAddr: 0x100004D90, symSize: 0x20 }
  - { offsetInCU: 0x19899, offset: 0x19899, size: 0x8, addend: 0x0, symName: __ZNSt3__122__compressed_pair_elemINS_9allocatorINS_11__hash_nodeINS_17__hash_value_typeINS_12basic_stringIcNS_11char_traitsIcEENS1_IcEEEE8VolCurveEEPvEEEELi1ELb1EEC2B7v160006ENS_16__value_init_tagE, symObjAddr: 0x1810, symBinAddr: 0x100004DB0, symSize: 0x20 }
  - { offsetInCU: 0x198CE, offset: 0x198CE, size: 0x8, addend: 0x0, symName: __ZNSt3__116__hash_node_baseIPNS_11__hash_nodeINS_17__hash_value_typeINS_12basic_stringIcNS_11char_traitsIcEENS_9allocatorIcEEEE8VolCurveEEPvEEEC1B7v160006Ev, symObjAddr: 0x1830, symBinAddr: 0x100004DD0, symSize: 0x20 }
  - { offsetInCU: 0x198F8, offset: 0x198F8, size: 0x8, addend: 0x0, symName: __ZNSt3__116__hash_node_baseIPNS_11__hash_nodeINS_17__hash_value_typeINS_12basic_stringIcNS_11char_traitsIcEENS_9allocatorIcEEEE8VolCurveEEPvEEEC2B7v160006Ev, symObjAddr: 0x1850, symBinAddr: 0x100004DF0, symSize: 0x20 }
  - { offsetInCU: 0x19922, offset: 0x19922, size: 0x8, addend: 0x0, symName: __ZNSt3__19allocatorINS_11__hash_nodeINS_17__hash_value_typeINS_12basic_stringIcNS_11char_traitsIcEENS0_IcEEEE8VolCurveEEPvEEEC2B7v160006Ev, symObjAddr: 0x1870, symBinAddr: 0x100004E10, symSize: 0x20 }
  - { offsetInCU: 0x1994C, offset: 0x1994C, size: 0x8, addend: 0x0, symName: __ZNSt3__116__non_trivial_ifILb1ENS_9allocatorINS_11__hash_nodeINS_17__hash_value_typeINS_12basic_stringIcNS_11char_traitsIcEENS1_IcEEEE8VolCurveEEPvEEEEEC2B7v160006Ev, symObjAddr: 0x1890, symBinAddr: 0x100004E30, symSize: 0x10 }
  - { offsetInCU: 0x19976, offset: 0x19976, size: 0x8, addend: 0x0, symName: __ZNSt3__117__compressed_pairImNS_22__unordered_map_hasherINS_12basic_stringIcNS_11char_traitsIcEENS_9allocatorIcEEEENS_17__hash_value_typeIS7_8VolCurveEENS_4hashIS7_EENS_8equal_toIS7_EELb1EEEEC2B7v160006IiNS_18__default_init_tagEEEOT_OT0_, symObjAddr: 0x18A0, symBinAddr: 0x100004E40, symSize: 0x40 }
  - { offsetInCU: 0x199CE, offset: 0x199CE, size: 0x8, addend: 0x0, symName: __ZNSt3__122__compressed_pair_elemINS_22__unordered_map_hasherINS_12basic_stringIcNS_11char_traitsIcEENS_9allocatorIcEEEENS_17__hash_value_typeIS7_8VolCurveEENS_4hashIS7_EENS_8equal_toIS7_EELb1EEELi1ELb1EEC2B7v160006ENS_18__default_init_tagE, symObjAddr: 0x18E0, symBinAddr: 0x100004E80, symSize: 0x20 }
  - { offsetInCU: 0x19A03, offset: 0x19A03, size: 0x8, addend: 0x0, symName: __ZNSt3__122__unordered_map_hasherINS_12basic_stringIcNS_11char_traitsIcEENS_9allocatorIcEEEENS_17__hash_value_typeIS6_8VolCurveEENS_4hashIS6_EENS_8equal_toIS6_EELb1EEC2B7v160006Ev, symObjAddr: 0x1900, symBinAddr: 0x100004EA0, symSize: 0x10 }
  - { offsetInCU: 0x19A2D, offset: 0x19A2D, size: 0x8, addend: 0x0, symName: __ZNSt3__117__compressed_pairIfNS_21__unordered_map_equalINS_12basic_stringIcNS_11char_traitsIcEENS_9allocatorIcEEEENS_17__hash_value_typeIS7_8VolCurveEENS_8equal_toIS7_EENS_4hashIS7_EELb1EEEEC2B7v160006IfNS_18__default_init_tagEEEOT_OT0_, symObjAddr: 0x1910, symBinAddr: 0x100004EB0, symSize: 0x40 }
  - { offsetInCU: 0x19A85, offset: 0x19A85, size: 0x8, addend: 0x0, symName: __ZNSt3__122__compressed_pair_elemIfLi0ELb0EEC2B7v160006IfvEEOT_, symObjAddr: 0x1950, symBinAddr: 0x100004EF0, symSize: 0x20 }
  - { offsetInCU: 0x19AC7, offset: 0x19AC7, size: 0x8, addend: 0x0, symName: __ZNSt3__122__compressed_pair_elemINS_21__unordered_map_equalINS_12basic_stringIcNS_11char_traitsIcEENS_9allocatorIcEEEENS_17__hash_value_typeIS7_8VolCurveEENS_8equal_toIS7_EENS_4hashIS7_EELb1EEELi1ELb1EEC2B7v160006ENS_18__default_init_tagE, symObjAddr: 0x1970, symBinAddr: 0x100004F10, symSize: 0x20 }
  - { offsetInCU: 0x19AFC, offset: 0x19AFC, size: 0x8, addend: 0x0, symName: __ZNSt3__121__unordered_map_equalINS_12basic_stringIcNS_11char_traitsIcEENS_9allocatorIcEEEENS_17__hash_value_typeIS6_8VolCurveEENS_8equal_toIS6_EENS_4hashIS6_EELb1EEC2B7v160006Ev, symObjAddr: 0x1990, symBinAddr: 0x100004F30, symSize: 0x10 }
  - { offsetInCU: 0x19B26, offset: 0x19B26, size: 0x8, addend: 0x0, symName: __ZNSt3__113unordered_mapINS_12basic_stringIcNS_11char_traitsIcEENS_9allocatorIcEEEE9RateCurveNS_4hashIS6_EENS_8equal_toIS6_EENS4_INS_4pairIKS6_S7_EEEEEC2B7v160006Ev, symObjAddr: 0x19A0, symBinAddr: 0x100004F40, symSize: 0x40 }
  - { offsetInCU: 0x19B50, offset: 0x19B50, size: 0x8, addend: 0x0, symName: __ZNSt3__112__hash_tableINS_17__hash_value_typeINS_12basic_stringIcNS_11char_traitsIcEENS_9allocatorIcEEEE9RateCurveEENS_22__unordered_map_hasherIS7_S9_NS_4hashIS7_EENS_8equal_toIS7_EELb1EEENS_21__unordered_map_equalIS7_S9_SE_SC_Lb1EEENS5_IS9_EEEC1Ev, symObjAddr: 0x19E0, symBinAddr: 0x100004F80, symSize: 0x20 }
  - { offsetInCU: 0x19B7C, offset: 0x19B7C, size: 0x8, addend: 0x0, symName: __ZNSt3__112__hash_tableINS_17__hash_value_typeINS_12basic_stringIcNS_11char_traitsIcEENS_9allocatorIcEEEE9RateCurveEENS_22__unordered_map_hasherIS7_S9_NS_4hashIS7_EENS_8equal_toIS7_EELb1EEENS_21__unordered_map_equalIS7_S9_SE_SC_Lb1EEENS5_IS9_EEEC2Ev, symObjAddr: 0x1A10, symBinAddr: 0x100004FB0, symSize: 0x80 }
  - { offsetInCU: 0x19BA8, offset: 0x19BA8, size: 0x8, addend: 0x0, symName: __ZNSt3__110unique_ptrIA_PNS_16__hash_node_baseIPNS_11__hash_nodeINS_17__hash_value_typeINS_12basic_stringIcNS_11char_traitsIcEENS_9allocatorIcEEEE9RateCurveEEPvEEEENS_25__bucket_list_deallocatorINS7_ISG_EEEEEC1B7v160006ILb1EvEEv, symObjAddr: 0x1A90, symBinAddr: 0x100005030, symSize: 0x20 }
  - { offsetInCU: 0x19BDD, offset: 0x19BDD, size: 0x8, addend: 0x0, symName: __ZNSt3__117__compressed_pairINS_16__hash_node_baseIPNS_11__hash_nodeINS_17__hash_value_typeINS_12basic_stringIcNS_11char_traitsIcEENS_9allocatorIcEEEE9RateCurveEEPvEEEENS7_ISD_EEEC1B7v160006ILb1EvEEv, symObjAddr: 0x1AB0, symBinAddr: 0x100005050, symSize: 0x20 }
  - { offsetInCU: 0x19C12, offset: 0x19C12, size: 0x8, addend: 0x0, symName: __ZNSt3__117__compressed_pairImNS_22__unordered_map_hasherINS_12basic_stringIcNS_11char_traitsIcEENS_9allocatorIcEEEENS_17__hash_value_typeIS7_9RateCurveEENS_4hashIS7_EENS_8equal_toIS7_EELb1EEEEC1B7v160006IiNS_18__default_init_tagEEEOT_OT0_, symObjAddr: 0x1AD0, symBinAddr: 0x100005070, symSize: 0x30 }
  - { offsetInCU: 0x19C6A, offset: 0x19C6A, size: 0x8, addend: 0x0, symName: __ZNSt3__117__compressed_pairIfNS_21__unordered_map_equalINS_12basic_stringIcNS_11char_traitsIcEENS_9allocatorIcEEEENS_17__hash_value_typeIS7_9RateCurveEENS_8equal_toIS7_EENS_4hashIS7_EELb1EEEEC1B7v160006IfNS_18__default_init_tagEEEOT_OT0_, symObjAddr: 0x1B00, symBinAddr: 0x1000050A0, symSize: 0x30 }
  - { offsetInCU: 0x19CC2, offset: 0x19CC2, size: 0x8, addend: 0x0, symName: __ZNSt3__110unique_ptrIA_PNS_16__hash_node_baseIPNS_11__hash_nodeINS_17__hash_value_typeINS_12basic_stringIcNS_11char_traitsIcEENS_9allocatorIcEEEE9RateCurveEEPvEEEENS_25__bucket_list_deallocatorINS7_ISG_EEEEEC2B7v160006ILb1EvEEv, symObjAddr: 0x1B30, symBinAddr: 0x1000050D0, symSize: 0x30 }
  - { offsetInCU: 0x19CF7, offset: 0x19CF7, size: 0x8, addend: 0x0, symName: __ZNSt3__117__compressed_pairIPPNS_16__hash_node_baseIPNS_11__hash_nodeINS_17__hash_value_typeINS_12basic_stringIcNS_11char_traitsIcEENS_9allocatorIcEEEE9RateCurveEEPvEEEENS_25__bucket_list_deallocatorINS7_ISG_EEEEEC1B7v160006INS_16__value_init_tagESN_EEOT_OT0_, symObjAddr: 0x1B60, symBinAddr: 0x100005100, symSize: 0x30 }
  - { offsetInCU: 0x19D4F, offset: 0x19D4F, size: 0x8, addend: 0x0, symName: __ZNSt3__117__compressed_pairIPPNS_16__hash_node_baseIPNS_11__hash_nodeINS_17__hash_value_typeINS_12basic_stringIcNS_11char_traitsIcEENS_9allocatorIcEEEE9RateCurveEEPvEEEENS_25__bucket_list_deallocatorINS7_ISG_EEEEEC2B7v160006INS_16__value_init_tagESN_EEOT_OT0_, symObjAddr: 0x1B90, symBinAddr: 0x100005130, symSize: 0x40 }
  - { offsetInCU: 0x19DA7, offset: 0x19DA7, size: 0x8, addend: 0x0, symName: __ZNSt3__122__compressed_pair_elemIPPNS_16__hash_node_baseIPNS_11__hash_nodeINS_17__hash_value_typeINS_12basic_stringIcNS_11char_traitsIcEENS_9allocatorIcEEEE9RateCurveEEPvEEEELi0ELb0EEC2B7v160006ENS_16__value_init_tagE, symObjAddr: 0x1BD0, symBinAddr: 0x100005170, symSize: 0x20 }
  - { offsetInCU: 0x19DDC, offset: 0x19DDC, size: 0x8, addend: 0x0, symName: __ZNSt3__122__compressed_pair_elemINS_25__bucket_list_deallocatorINS_9allocatorIPNS_16__hash_node_baseIPNS_11__hash_nodeINS_17__hash_value_typeINS_12basic_stringIcNS_11char_traitsIcEENS2_IcEEEE9RateCurveEEPvEEEEEEEELi1ELb0EEC2B7v160006ENS_16__value_init_tagE, symObjAddr: 0x1BF0, symBinAddr: 0x100005190, symSize: 0x20 }
  - { offsetInCU: 0x19E11, offset: 0x19E11, size: 0x8, addend: 0x0, symName: __ZNSt3__125__bucket_list_deallocatorINS_9allocatorIPNS_16__hash_node_baseIPNS_11__hash_nodeINS_17__hash_value_typeINS_12basic_stringIcNS_11char_traitsIcEENS1_IcEEEE9RateCurveEEPvEEEEEEEC1B7v160006Ev, symObjAddr: 0x1C10, symBinAddr: 0x1000051B0, symSize: 0x20 }
  - { offsetInCU: 0x19E3B, offset: 0x19E3B, size: 0x8, addend: 0x0, symName: __ZNSt3__125__bucket_list_deallocatorINS_9allocatorIPNS_16__hash_node_baseIPNS_11__hash_nodeINS_17__hash_value_typeINS_12basic_stringIcNS_11char_traitsIcEENS1_IcEEEE9RateCurveEEPvEEEEEEEC2B7v160006Ev, symObjAddr: 0x1C30, symBinAddr: 0x1000051D0, symSize: 0x40 }
  - { offsetInCU: 0x19E65, offset: 0x19E65, size: 0x8, addend: 0x0, symName: __ZNSt3__117__compressed_pairImNS_9allocatorIPNS_16__hash_node_baseIPNS_11__hash_nodeINS_17__hash_value_typeINS_12basic_stringIcNS_11char_traitsIcEENS1_IcEEEE9RateCurveEEPvEEEEEEEC1B7v160006IiNS_18__default_init_tagEEEOT_OT0_, symObjAddr: 0x1C70, symBinAddr: 0x100005210, symSize: 0x30 }
  - { offsetInCU: 0x19EBD, offset: 0x19EBD, size: 0x8, addend: 0x0, symName: __ZNSt3__117__compressed_pairImNS_9allocatorIPNS_16__hash_node_baseIPNS_11__hash_nodeINS_17__hash_value_typeINS_12basic_stringIcNS_11char_traitsIcEENS1_IcEEEE9RateCurveEEPvEEEEEEEC2B7v160006IiNS_18__default_init_tagEEEOT_OT0_, symObjAddr: 0x1CA0, symBinAddr: 0x100005240, symSize: 0x40 }
  - { offsetInCU: 0x19F15, offset: 0x19F15, size: 0x8, addend: 0x0, symName: __ZNSt3__122__compressed_pair_elemINS_9allocatorIPNS_16__hash_node_baseIPNS_11__hash_nodeINS_17__hash_value_typeINS_12basic_stringIcNS_11char_traitsIcEENS1_IcEEEE9RateCurveEEPvEEEEEELi1ELb1EEC2B7v160006ENS_18__default_init_tagE, symObjAddr: 0x1CE0, symBinAddr: 0x100005280, symSize: 0x20 }
  - { offsetInCU: 0x19F4A, offset: 0x19F4A, size: 0x8, addend: 0x0, symName: __ZNSt3__19allocatorIPNS_16__hash_node_baseIPNS_11__hash_nodeINS_17__hash_value_typeINS_12basic_stringIcNS_11char_traitsIcEENS0_IcEEEE9RateCurveEEPvEEEEEC2B7v160006Ev, symObjAddr: 0x1D00, symBinAddr: 0x1000052A0, symSize: 0x20 }
  - { offsetInCU: 0x19F74, offset: 0x19F74, size: 0x8, addend: 0x0, symName: __ZNSt3__116__non_trivial_ifILb1ENS_9allocatorIPNS_16__hash_node_baseIPNS_11__hash_nodeINS_17__hash_value_typeINS_12basic_stringIcNS_11char_traitsIcEENS1_IcEEEE9RateCurveEEPvEEEEEEEC2B7v160006Ev, symObjAddr: 0x1D20, symBinAddr: 0x1000052C0, symSize: 0x10 }
  - { offsetInCU: 0x19F9E, offset: 0x19F9E, size: 0x8, addend: 0x0, symName: __ZNSt3__117__compressed_pairINS_16__hash_node_baseIPNS_11__hash_nodeINS_17__hash_value_typeINS_12basic_stringIcNS_11char_traitsIcEENS_9allocatorIcEEEE9RateCurveEEPvEEEENS7_ISD_EEEC2B7v160006ILb1EvEEv, symObjAddr: 0x1D30, symBinAddr: 0x1000052D0, symSize: 0x30 }
  - { offsetInCU: 0x19FD3, offset: 0x19FD3, size: 0x8, addend: 0x0, symName: __ZNSt3__122__compressed_pair_elemINS_16__hash_node_baseIPNS_11__hash_nodeINS_17__hash_value_typeINS_12basic_stringIcNS_11char_traitsIcEENS_9allocatorIcEEEE9RateCurveEEPvEEEELi0ELb0EEC2B7v160006ENS_16__value_init_tagE, symObjAddr: 0x1D60, symBinAddr: 0x100005300, symSize: 0x20 }
  - { offsetInCU: 0x1A008, offset: 0x1A008, size: 0x8, addend: 0x0, symName: __ZNSt3__122__compressed_pair_elemINS_9allocatorINS_11__hash_nodeINS_17__hash_value_typeINS_12basic_stringIcNS_11char_traitsIcEENS1_IcEEEE9RateCurveEEPvEEEELi1ELb1EEC2B7v160006ENS_16__value_init_tagE, symObjAddr: 0x1D80, symBinAddr: 0x100005320, symSize: 0x20 }
  - { offsetInCU: 0x1A03D, offset: 0x1A03D, size: 0x8, addend: 0x0, symName: __ZNSt3__116__hash_node_baseIPNS_11__hash_nodeINS_17__hash_value_typeINS_12basic_stringIcNS_11char_traitsIcEENS_9allocatorIcEEEE9RateCurveEEPvEEEC1B7v160006Ev, symObjAddr: 0x1DA0, symBinAddr: 0x100005340, symSize: 0x20 }
  - { offsetInCU: 0x1A067, offset: 0x1A067, size: 0x8, addend: 0x0, symName: __ZNSt3__116__hash_node_baseIPNS_11__hash_nodeINS_17__hash_value_typeINS_12basic_stringIcNS_11char_traitsIcEENS_9allocatorIcEEEE9RateCurveEEPvEEEC2B7v160006Ev, symObjAddr: 0x1DC0, symBinAddr: 0x100005360, symSize: 0x20 }
  - { offsetInCU: 0x1A091, offset: 0x1A091, size: 0x8, addend: 0x0, symName: __ZNSt3__19allocatorINS_11__hash_nodeINS_17__hash_value_typeINS_12basic_stringIcNS_11char_traitsIcEENS0_IcEEEE9RateCurveEEPvEEEC2B7v160006Ev, symObjAddr: 0x1DE0, symBinAddr: 0x100005380, symSize: 0x20 }
  - { offsetInCU: 0x1A0BB, offset: 0x1A0BB, size: 0x8, addend: 0x0, symName: __ZNSt3__116__non_trivial_ifILb1ENS_9allocatorINS_11__hash_nodeINS_17__hash_value_typeINS_12basic_stringIcNS_11char_traitsIcEENS1_IcEEEE9RateCurveEEPvEEEEEC2B7v160006Ev, symObjAddr: 0x1E00, symBinAddr: 0x1000053A0, symSize: 0x10 }
  - { offsetInCU: 0x1A0E5, offset: 0x1A0E5, size: 0x8, addend: 0x0, symName: __ZNSt3__117__compressed_pairImNS_22__unordered_map_hasherINS_12basic_stringIcNS_11char_traitsIcEENS_9allocatorIcEEEENS_17__hash_value_typeIS7_9RateCurveEENS_4hashIS7_EENS_8equal_toIS7_EELb1EEEEC2B7v160006IiNS_18__default_init_tagEEEOT_OT0_, symObjAddr: 0x1E10, symBinAddr: 0x1000053B0, symSize: 0x40 }
  - { offsetInCU: 0x1A13D, offset: 0x1A13D, size: 0x8, addend: 0x0, symName: __ZNSt3__122__compressed_pair_elemINS_22__unordered_map_hasherINS_12basic_stringIcNS_11char_traitsIcEENS_9allocatorIcEEEENS_17__hash_value_typeIS7_9RateCurveEENS_4hashIS7_EENS_8equal_toIS7_EELb1EEELi1ELb1EEC2B7v160006ENS_18__default_init_tagE, symObjAddr: 0x1E50, symBinAddr: 0x1000053F0, symSize: 0x20 }
  - { offsetInCU: 0x1A172, offset: 0x1A172, size: 0x8, addend: 0x0, symName: __ZNSt3__122__unordered_map_hasherINS_12basic_stringIcNS_11char_traitsIcEENS_9allocatorIcEEEENS_17__hash_value_typeIS6_9RateCurveEENS_4hashIS6_EENS_8equal_toIS6_EELb1EEC2B7v160006Ev, symObjAddr: 0x1E70, symBinAddr: 0x100005410, symSize: 0x10 }
  - { offsetInCU: 0x1A19C, offset: 0x1A19C, size: 0x8, addend: 0x0, symName: __ZNSt3__117__compressed_pairIfNS_21__unordered_map_equalINS_12basic_stringIcNS_11char_traitsIcEENS_9allocatorIcEEEENS_17__hash_value_typeIS7_9RateCurveEENS_8equal_toIS7_EENS_4hashIS7_EELb1EEEEC2B7v160006IfNS_18__default_init_tagEEEOT_OT0_, symObjAddr: 0x1E80, symBinAddr: 0x100005420, symSize: 0x40 }
  - { offsetInCU: 0x1A1F4, offset: 0x1A1F4, size: 0x8, addend: 0x0, symName: __ZNSt3__122__compressed_pair_elemINS_21__unordered_map_equalINS_12basic_stringIcNS_11char_traitsIcEENS_9allocatorIcEEEENS_17__hash_value_typeIS7_9RateCurveEENS_8equal_toIS7_EENS_4hashIS7_EELb1EEELi1ELb1EEC2B7v160006ENS_18__default_init_tagE, symObjAddr: 0x1EC0, symBinAddr: 0x100005460, symSize: 0x20 }
  - { offsetInCU: 0x1A229, offset: 0x1A229, size: 0x8, addend: 0x0, symName: __ZNSt3__121__unordered_map_equalINS_12basic_stringIcNS_11char_traitsIcEENS_9allocatorIcEEEENS_17__hash_value_typeIS6_9RateCurveEENS_8equal_toIS6_EENS_4hashIS6_EELb1EEC2B7v160006Ev, symObjAddr: 0x1EE0, symBinAddr: 0x100005480, symSize: 0x10 }
  - { offsetInCU: 0x1A253, offset: 0x1A253, size: 0x8, addend: 0x0, symName: __ZNSt3__113unordered_mapINS_12basic_stringIcNS_11char_traitsIcEENS_9allocatorIcEEEEdNS_4hashIS6_EENS_8equal_toIS6_EENS4_INS_4pairIKS6_dEEEEEC2B7v160006Ev, symObjAddr: 0x1EF0, symBinAddr: 0x100005490, symSize: 0x40 }
  - { offsetInCU: 0x1A27D, offset: 0x1A27D, size: 0x8, addend: 0x0, symName: __ZNSt3__112__hash_tableINS_17__hash_value_typeINS_12basic_stringIcNS_11char_traitsIcEENS_9allocatorIcEEEEdEENS_22__unordered_map_hasherIS7_S8_NS_4hashIS7_EENS_8equal_toIS7_EELb1EEENS_21__unordered_map_equalIS7_S8_SD_SB_Lb1EEENS5_IS8_EEEC1Ev, symObjAddr: 0x1F30, symBinAddr: 0x1000054D0, symSize: 0x20 }
  - { offsetInCU: 0x1A2A9, offset: 0x1A2A9, size: 0x8, addend: 0x0, symName: __ZNSt3__112__hash_tableINS_17__hash_value_typeINS_12basic_stringIcNS_11char_traitsIcEENS_9allocatorIcEEEEdEENS_22__unordered_map_hasherIS7_S8_NS_4hashIS7_EENS_8equal_toIS7_EELb1EEENS_21__unordered_map_equalIS7_S8_SD_SB_Lb1EEENS5_IS8_EEEC2Ev, symObjAddr: 0x1F60, symBinAddr: 0x100005500, symSize: 0x80 }
  - { offsetInCU: 0x1A2D5, offset: 0x1A2D5, size: 0x8, addend: 0x0, symName: __ZNSt3__110unique_ptrIA_PNS_16__hash_node_baseIPNS_11__hash_nodeINS_17__hash_value_typeINS_12basic_stringIcNS_11char_traitsIcEENS_9allocatorIcEEEEdEEPvEEEENS_25__bucket_list_deallocatorINS7_ISF_EEEEEC1B7v160006ILb1EvEEv, symObjAddr: 0x1FE0, symBinAddr: 0x100005580, symSize: 0x20 }
  - { offsetInCU: 0x1A30A, offset: 0x1A30A, size: 0x8, addend: 0x0, symName: __ZNSt3__117__compressed_pairINS_16__hash_node_baseIPNS_11__hash_nodeINS_17__hash_value_typeINS_12basic_stringIcNS_11char_traitsIcEENS_9allocatorIcEEEEdEEPvEEEENS7_ISC_EEEC1B7v160006ILb1EvEEv, symObjAddr: 0x2000, symBinAddr: 0x1000055A0, symSize: 0x20 }
  - { offsetInCU: 0x1A33F, offset: 0x1A33F, size: 0x8, addend: 0x0, symName: __ZNSt3__117__compressed_pairImNS_22__unordered_map_hasherINS_12basic_stringIcNS_11char_traitsIcEENS_9allocatorIcEEEENS_17__hash_value_typeIS7_dEENS_4hashIS7_EENS_8equal_toIS7_EELb1EEEEC1B7v160006IiNS_18__default_init_tagEEEOT_OT0_, symObjAddr: 0x2020, symBinAddr: 0x1000055C0, symSize: 0x30 }
  - { offsetInCU: 0x1A397, offset: 0x1A397, size: 0x8, addend: 0x0, symName: __ZNSt3__117__compressed_pairIfNS_21__unordered_map_equalINS_12basic_stringIcNS_11char_traitsIcEENS_9allocatorIcEEEENS_17__hash_value_typeIS7_dEENS_8equal_toIS7_EENS_4hashIS7_EELb1EEEEC1B7v160006IfNS_18__default_init_tagEEEOT_OT0_, symObjAddr: 0x2050, symBinAddr: 0x1000055F0, symSize: 0x30 }
  - { offsetInCU: 0x1A3EF, offset: 0x1A3EF, size: 0x8, addend: 0x0, symName: __ZNSt3__110unique_ptrIA_PNS_16__hash_node_baseIPNS_11__hash_nodeINS_17__hash_value_typeINS_12basic_stringIcNS_11char_traitsIcEENS_9allocatorIcEEEEdEEPvEEEENS_25__bucket_list_deallocatorINS7_ISF_EEEEEC2B7v160006ILb1EvEEv, symObjAddr: 0x2080, symBinAddr: 0x100005620, symSize: 0x30 }
  - { offsetInCU: 0x1A424, offset: 0x1A424, size: 0x8, addend: 0x0, symName: __ZNSt3__117__compressed_pairIPPNS_16__hash_node_baseIPNS_11__hash_nodeINS_17__hash_value_typeINS_12basic_stringIcNS_11char_traitsIcEENS_9allocatorIcEEEEdEEPvEEEENS_25__bucket_list_deallocatorINS7_ISF_EEEEEC1B7v160006INS_16__value_init_tagESM_EEOT_OT0_, symObjAddr: 0x20B0, symBinAddr: 0x100005650, symSize: 0x30 }
  - { offsetInCU: 0x1A47C, offset: 0x1A47C, size: 0x8, addend: 0x0, symName: __ZNSt3__117__compressed_pairIPPNS_16__hash_node_baseIPNS_11__hash_nodeINS_17__hash_value_typeINS_12basic_stringIcNS_11char_traitsIcEENS_9allocatorIcEEEEdEEPvEEEENS_25__bucket_list_deallocatorINS7_ISF_EEEEEC2B7v160006INS_16__value_init_tagESM_EEOT_OT0_, symObjAddr: 0x20E0, symBinAddr: 0x100005680, symSize: 0x40 }
  - { offsetInCU: 0x1A4D4, offset: 0x1A4D4, size: 0x8, addend: 0x0, symName: __ZNSt3__122__compressed_pair_elemIPPNS_16__hash_node_baseIPNS_11__hash_nodeINS_17__hash_value_typeINS_12basic_stringIcNS_11char_traitsIcEENS_9allocatorIcEEEEdEEPvEEEELi0ELb0EEC2B7v160006ENS_16__value_init_tagE, symObjAddr: 0x2120, symBinAddr: 0x1000056C0, symSize: 0x20 }
  - { offsetInCU: 0x1A509, offset: 0x1A509, size: 0x8, addend: 0x0, symName: __ZNSt3__122__compressed_pair_elemINS_25__bucket_list_deallocatorINS_9allocatorIPNS_16__hash_node_baseIPNS_11__hash_nodeINS_17__hash_value_typeINS_12basic_stringIcNS_11char_traitsIcEENS2_IcEEEEdEEPvEEEEEEEELi1ELb0EEC2B7v160006ENS_16__value_init_tagE, symObjAddr: 0x2140, symBinAddr: 0x1000056E0, symSize: 0x20 }
  - { offsetInCU: 0x1A53E, offset: 0x1A53E, size: 0x8, addend: 0x0, symName: __ZNSt3__125__bucket_list_deallocatorINS_9allocatorIPNS_16__hash_node_baseIPNS_11__hash_nodeINS_17__hash_value_typeINS_12basic_stringIcNS_11char_traitsIcEENS1_IcEEEEdEEPvEEEEEEEC1B7v160006Ev, symObjAddr: 0x2160, symBinAddr: 0x100005700, symSize: 0x20 }
  - { offsetInCU: 0x1A568, offset: 0x1A568, size: 0x8, addend: 0x0, symName: __ZNSt3__125__bucket_list_deallocatorINS_9allocatorIPNS_16__hash_node_baseIPNS_11__hash_nodeINS_17__hash_value_typeINS_12basic_stringIcNS_11char_traitsIcEENS1_IcEEEEdEEPvEEEEEEEC2B7v160006Ev, symObjAddr: 0x2180, symBinAddr: 0x100005720, symSize: 0x40 }
  - { offsetInCU: 0x1A592, offset: 0x1A592, size: 0x8, addend: 0x0, symName: __ZNSt3__117__compressed_pairImNS_9allocatorIPNS_16__hash_node_baseIPNS_11__hash_nodeINS_17__hash_value_typeINS_12basic_stringIcNS_11char_traitsIcEENS1_IcEEEEdEEPvEEEEEEEC1B7v160006IiNS_18__default_init_tagEEEOT_OT0_, symObjAddr: 0x21C0, symBinAddr: 0x100005760, symSize: 0x30 }
  - { offsetInCU: 0x1A5EA, offset: 0x1A5EA, size: 0x8, addend: 0x0, symName: __ZNSt3__117__compressed_pairImNS_9allocatorIPNS_16__hash_node_baseIPNS_11__hash_nodeINS_17__hash_value_typeINS_12basic_stringIcNS_11char_traitsIcEENS1_IcEEEEdEEPvEEEEEEEC2B7v160006IiNS_18__default_init_tagEEEOT_OT0_, symObjAddr: 0x21F0, symBinAddr: 0x100005790, symSize: 0x40 }
  - { offsetInCU: 0x1A642, offset: 0x1A642, size: 0x8, addend: 0x0, symName: __ZNSt3__122__compressed_pair_elemINS_9allocatorIPNS_16__hash_node_baseIPNS_11__hash_nodeINS_17__hash_value_typeINS_12basic_stringIcNS_11char_traitsIcEENS1_IcEEEEdEEPvEEEEEELi1ELb1EEC2B7v160006ENS_18__default_init_tagE, symObjAddr: 0x2230, symBinAddr: 0x1000057D0, symSize: 0x20 }
  - { offsetInCU: 0x1A677, offset: 0x1A677, size: 0x8, addend: 0x0, symName: __ZNSt3__19allocatorIPNS_16__hash_node_baseIPNS_11__hash_nodeINS_17__hash_value_typeINS_12basic_stringIcNS_11char_traitsIcEENS0_IcEEEEdEEPvEEEEEC2B7v160006Ev, symObjAddr: 0x2250, symBinAddr: 0x1000057F0, symSize: 0x20 }
  - { offsetInCU: 0x1A6A1, offset: 0x1A6A1, size: 0x8, addend: 0x0, symName: __ZNSt3__116__non_trivial_ifILb1ENS_9allocatorIPNS_16__hash_node_baseIPNS_11__hash_nodeINS_17__hash_value_typeINS_12basic_stringIcNS_11char_traitsIcEENS1_IcEEEEdEEPvEEEEEEEC2B7v160006Ev, symObjAddr: 0x2270, symBinAddr: 0x100005810, symSize: 0x10 }
  - { offsetInCU: 0x1A6CB, offset: 0x1A6CB, size: 0x8, addend: 0x0, symName: __ZNSt3__117__compressed_pairINS_16__hash_node_baseIPNS_11__hash_nodeINS_17__hash_value_typeINS_12basic_stringIcNS_11char_traitsIcEENS_9allocatorIcEEEEdEEPvEEEENS7_ISC_EEEC2B7v160006ILb1EvEEv, symObjAddr: 0x2280, symBinAddr: 0x100005820, symSize: 0x30 }
  - { offsetInCU: 0x1A700, offset: 0x1A700, size: 0x8, addend: 0x0, symName: __ZNSt3__122__compressed_pair_elemINS_16__hash_node_baseIPNS_11__hash_nodeINS_17__hash_value_typeINS_12basic_stringIcNS_11char_traitsIcEENS_9allocatorIcEEEEdEEPvEEEELi0ELb0EEC2B7v160006ENS_16__value_init_tagE, symObjAddr: 0x22B0, symBinAddr: 0x100005850, symSize: 0x20 }
  - { offsetInCU: 0x1A735, offset: 0x1A735, size: 0x8, addend: 0x0, symName: __ZNSt3__122__compressed_pair_elemINS_9allocatorINS_11__hash_nodeINS_17__hash_value_typeINS_12basic_stringIcNS_11char_traitsIcEENS1_IcEEEEdEEPvEEEELi1ELb1EEC2B7v160006ENS_16__value_init_tagE, symObjAddr: 0x22D0, symBinAddr: 0x100005870, symSize: 0x20 }
  - { offsetInCU: 0x1A76A, offset: 0x1A76A, size: 0x8, addend: 0x0, symName: __ZNSt3__116__hash_node_baseIPNS_11__hash_nodeINS_17__hash_value_typeINS_12basic_stringIcNS_11char_traitsIcEENS_9allocatorIcEEEEdEEPvEEEC1B7v160006Ev, symObjAddr: 0x22F0, symBinAddr: 0x100005890, symSize: 0x20 }
  - { offsetInCU: 0x1A794, offset: 0x1A794, size: 0x8, addend: 0x0, symName: __ZNSt3__116__hash_node_baseIPNS_11__hash_nodeINS_17__hash_value_typeINS_12basic_stringIcNS_11char_traitsIcEENS_9allocatorIcEEEEdEEPvEEEC2B7v160006Ev, symObjAddr: 0x2310, symBinAddr: 0x1000058B0, symSize: 0x20 }
  - { offsetInCU: 0x1A7BE, offset: 0x1A7BE, size: 0x8, addend: 0x0, symName: __ZNSt3__19allocatorINS_11__hash_nodeINS_17__hash_value_typeINS_12basic_stringIcNS_11char_traitsIcEENS0_IcEEEEdEEPvEEEC2B7v160006Ev, symObjAddr: 0x2330, symBinAddr: 0x1000058D0, symSize: 0x20 }
  - { offsetInCU: 0x1A7E8, offset: 0x1A7E8, size: 0x8, addend: 0x0, symName: __ZNSt3__116__non_trivial_ifILb1ENS_9allocatorINS_11__hash_nodeINS_17__hash_value_typeINS_12basic_stringIcNS_11char_traitsIcEENS1_IcEEEEdEEPvEEEEEC2B7v160006Ev, symObjAddr: 0x2350, symBinAddr: 0x1000058F0, symSize: 0x10 }
  - { offsetInCU: 0x1A812, offset: 0x1A812, size: 0x8, addend: 0x0, symName: __ZNSt3__117__compressed_pairImNS_22__unordered_map_hasherINS_12basic_stringIcNS_11char_traitsIcEENS_9allocatorIcEEEENS_17__hash_value_typeIS7_dEENS_4hashIS7_EENS_8equal_toIS7_EELb1EEEEC2B7v160006IiNS_18__default_init_tagEEEOT_OT0_, symObjAddr: 0x2360, symBinAddr: 0x100005900, symSize: 0x40 }
  - { offsetInCU: 0x1A86A, offset: 0x1A86A, size: 0x8, addend: 0x0, symName: __ZNSt3__122__compressed_pair_elemINS_22__unordered_map_hasherINS_12basic_stringIcNS_11char_traitsIcEENS_9allocatorIcEEEENS_17__hash_value_typeIS7_dEENS_4hashIS7_EENS_8equal_toIS7_EELb1EEELi1ELb1EEC2B7v160006ENS_18__default_init_tagE, symObjAddr: 0x23A0, symBinAddr: 0x100005940, symSize: 0x20 }
  - { offsetInCU: 0x1A89F, offset: 0x1A89F, size: 0x8, addend: 0x0, symName: __ZNSt3__122__unordered_map_hasherINS_12basic_stringIcNS_11char_traitsIcEENS_9allocatorIcEEEENS_17__hash_value_typeIS6_dEENS_4hashIS6_EENS_8equal_toIS6_EELb1EEC2B7v160006Ev, symObjAddr: 0x23C0, symBinAddr: 0x100005960, symSize: 0x10 }
  - { offsetInCU: 0x1A8C9, offset: 0x1A8C9, size: 0x8, addend: 0x0, symName: __ZNSt3__117__compressed_pairIfNS_21__unordered_map_equalINS_12basic_stringIcNS_11char_traitsIcEENS_9allocatorIcEEEENS_17__hash_value_typeIS7_dEENS_8equal_toIS7_EENS_4hashIS7_EELb1EEEEC2B7v160006IfNS_18__default_init_tagEEEOT_OT0_, symObjAddr: 0x23D0, symBinAddr: 0x100005970, symSize: 0x40 }
  - { offsetInCU: 0x1A921, offset: 0x1A921, size: 0x8, addend: 0x0, symName: __ZNSt3__122__compressed_pair_elemINS_21__unordered_map_equalINS_12basic_stringIcNS_11char_traitsIcEENS_9allocatorIcEEEENS_17__hash_value_typeIS7_dEENS_8equal_toIS7_EENS_4hashIS7_EELb1EEELi1ELb1EEC2B7v160006ENS_18__default_init_tagE, symObjAddr: 0x2410, symBinAddr: 0x1000059B0, symSize: 0x20 }
  - { offsetInCU: 0x1A956, offset: 0x1A956, size: 0x8, addend: 0x0, symName: __ZNSt3__121__unordered_map_equalINS_12basic_stringIcNS_11char_traitsIcEENS_9allocatorIcEEEENS_17__hash_value_typeIS6_dEENS_8equal_toIS6_EENS_4hashIS6_EELb1EEC2B7v160006Ev, symObjAddr: 0x2430, symBinAddr: 0x1000059D0, symSize: 0x10 }
  - { offsetInCU: 0x1A980, offset: 0x1A980, size: 0x8, addend: 0x0, symName: __ZNKSt3__112__hash_tableINS_17__hash_value_typeINS_12basic_stringIcNS_11char_traitsIcEENS_9allocatorIcEEEE9RateCurveEENS_22__unordered_map_hasherIS7_S9_NS_4hashIS7_EENS_8equal_toIS7_EELb1EEENS_21__unordered_map_equalIS7_S9_SE_SC_Lb1EEENS5_IS9_EEE5beginEv, symObjAddr: 0x2440, symBinAddr: 0x1000059E0, symSize: 0x40 }
  - { offsetInCU: 0x1A9A8, offset: 0x1A9A8, size: 0x8, addend: 0x0, symName: __ZNSt3__125__hash_map_const_iteratorINS_21__hash_const_iteratorIPNS_11__hash_nodeINS_17__hash_value_typeINS_12basic_stringIcNS_11char_traitsIcEENS_9allocatorIcEEEE9RateCurveEEPvEEEEEC1B7v160006ESF_, symObjAddr: 0x2480, symBinAddr: 0x100005A20, symSize: 0x30 }
  - { offsetInCU: 0x1A9E1, offset: 0x1A9E1, size: 0x8, addend: 0x0, symName: __ZNKSt3__117__compressed_pairINS_16__hash_node_baseIPNS_11__hash_nodeINS_17__hash_value_typeINS_12basic_stringIcNS_11char_traitsIcEENS_9allocatorIcEEEE9RateCurveEEPvEEEENS7_ISD_EEE5firstB7v160006Ev, symObjAddr: 0x24B0, symBinAddr: 0x100005A50, symSize: 0x20 }
  - { offsetInCU: 0x1AA07, offset: 0x1AA07, size: 0x8, addend: 0x0, symName: __ZNSt3__121__hash_const_iteratorIPNS_11__hash_nodeINS_17__hash_value_typeINS_12basic_stringIcNS_11char_traitsIcEENS_9allocatorIcEEEE9RateCurveEEPvEEEC1B7v160006EPNS_16__hash_node_baseISD_EEPKv, symObjAddr: 0x24D0, symBinAddr: 0x100005A70, symSize: 0x30 }
  - { offsetInCU: 0x1AA4F, offset: 0x1AA4F, size: 0x8, addend: 0x0, symName: __ZNKSt3__122__compressed_pair_elemINS_16__hash_node_baseIPNS_11__hash_nodeINS_17__hash_value_typeINS_12basic_stringIcNS_11char_traitsIcEENS_9allocatorIcEEEE9RateCurveEEPvEEEELi0ELb0EE5__getB7v160006Ev, symObjAddr: 0x2500, symBinAddr: 0x100005AA0, symSize: 0x10 }
  - { offsetInCU: 0x1AA75, offset: 0x1AA75, size: 0x8, addend: 0x0, symName: __ZNSt3__121__hash_const_iteratorIPNS_11__hash_nodeINS_17__hash_value_typeINS_12basic_stringIcNS_11char_traitsIcEENS_9allocatorIcEEEE9RateCurveEEPvEEEC2B7v160006EPNS_16__hash_node_baseISD_EEPKv, symObjAddr: 0x2510, symBinAddr: 0x100005AB0, symSize: 0x20 }
  - { offsetInCU: 0x1AABD, offset: 0x1AABD, size: 0x8, addend: 0x0, symName: __ZNSt3__125__hash_map_const_iteratorINS_21__hash_const_iteratorIPNS_11__hash_nodeINS_17__hash_value_typeINS_12basic_stringIcNS_11char_traitsIcEENS_9allocatorIcEEEE9RateCurveEEPvEEEEEC2B7v160006ESF_, symObjAddr: 0x2530, symBinAddr: 0x100005AD0, symSize: 0x20 }
  - { offsetInCU: 0x1AAF6, offset: 0x1AAF6, size: 0x8, addend: 0x0, symName: __ZNSt3__114pointer_traitsIPKNS_4pairIKNS_12basic_stringIcNS_11char_traitsIcEENS_9allocatorIcEEEE9RateCurveEEE10pointer_toB7v160006ERSB_, symObjAddr: 0x2550, symBinAddr: 0x100005AF0, symSize: 0x10 }
  - { offsetInCU: 0x1AB19, offset: 0x1AB19, size: 0x8, addend: 0x0, symName: __ZNKSt3__121__hash_const_iteratorIPNS_11__hash_nodeINS_17__hash_value_typeINS_12basic_stringIcNS_11char_traitsIcEENS_9allocatorIcEEEE9RateCurveEEPvEEEptB7v160006Ev, symObjAddr: 0x2560, symBinAddr: 0x100005B00, symSize: 0x30 }
  - { offsetInCU: 0x1AB3F, offset: 0x1AB3F, size: 0x8, addend: 0x0, symName: __ZNKSt3__117__hash_value_typeINS_12basic_stringIcNS_11char_traitsIcEENS_9allocatorIcEEEE9RateCurveE11__get_valueB7v160006Ev, symObjAddr: 0x2590, symBinAddr: 0x100005B30, symSize: 0x20 }
  - { offsetInCU: 0x1AB65, offset: 0x1AB65, size: 0x8, addend: 0x0, symName: __ZNSt3__114pointer_traitsIPKNS_17__hash_value_typeINS_12basic_stringIcNS_11char_traitsIcEENS_9allocatorIcEEEE9RateCurveEEE10pointer_toB7v160006ERSA_, symObjAddr: 0x25B0, symBinAddr: 0x100005B50, symSize: 0x10 }
  - { offsetInCU: 0x1AB88, offset: 0x1AB88, size: 0x8, addend: 0x0, symName: __ZNSt3__116__hash_node_baseIPNS_11__hash_nodeINS_17__hash_value_typeINS_12basic_stringIcNS_11char_traitsIcEENS_9allocatorIcEEEE9RateCurveEEPvEEE8__upcastB7v160006Ev, symObjAddr: 0x25C0, symBinAddr: 0x100005B60, symSize: 0x20 }
  - { offsetInCU: 0x1ABAE, offset: 0x1ABAE, size: 0x8, addend: 0x0, symName: __ZNSt3__114pointer_traitsIPNS_16__hash_node_baseIPNS_11__hash_nodeINS_17__hash_value_typeINS_12basic_stringIcNS_11char_traitsIcEENS_9allocatorIcEEEE9RateCurveEEPvEEEEE10pointer_toB7v160006ERSF_, symObjAddr: 0x25E0, symBinAddr: 0x100005B80, symSize: 0x10 }
  - { offsetInCU: 0x1ABD1, offset: 0x1ABD1, size: 0x8, addend: 0x0, symName: __ZN9RateCurveC2ERKS_, symObjAddr: 0x2620, symBinAddr: 0x100005BC0, symSize: 0xB0 }
  - { offsetInCU: 0x1AC06, offset: 0x1AC06, size: 0x8, addend: 0x0, symName: __ZNSt3__16vectorI4DateNS_9allocatorIS1_EEEC1ERKS4_, symObjAddr: 0x26D0, symBinAddr: 0x100005C70, symSize: 0x30 }
  - { offsetInCU: 0x1AC41, offset: 0x1AC41, size: 0x8, addend: 0x0, symName: __ZNSt3__16vectorIdNS_9allocatorIdEEEC1ERKS3_, symObjAddr: 0x2700, symBinAddr: 0x100005CA0, symSize: 0x30 }
  - { offsetInCU: 0x1AC7C, offset: 0x1AC7C, size: 0x8, addend: 0x0, symName: __ZNSt3__16vectorI4DateNS_9allocatorIS1_EEED1B7v160006Ev, symObjAddr: 0x2730, symBinAddr: 0x100005CD0, symSize: 0x20 }
  - { offsetInCU: 0x1ACA6, offset: 0x1ACA6, size: 0x8, addend: 0x0, symName: __ZNSt3__16vectorI4DateNS_9allocatorIS1_EEEC2ERKS4_, symObjAddr: 0x2750, symBinAddr: 0x100005CF0, symSize: 0x110 }
  - { offsetInCU: 0x1AD10, offset: 0x1AD10, size: 0x8, addend: 0x0, symName: __ZNSt3__116allocator_traitsINS_9allocatorI4DateEEE37select_on_container_copy_constructionB7v160006IS3_vvEES3_RKS3_, symObjAddr: 0x2860, symBinAddr: 0x100005E00, symSize: 0x10 }
  - { offsetInCU: 0x1AD3F, offset: 0x1AD3F, size: 0x8, addend: 0x0, symName: __ZNKSt3__16vectorI4DateNS_9allocatorIS1_EEE7__allocB7v160006Ev, symObjAddr: 0x2870, symBinAddr: 0x100005E10, symSize: 0x20 }
  - { offsetInCU: 0x1AD6F, offset: 0x1AD6F, size: 0x8, addend: 0x0, symName: __ZNSt3__117__compressed_pairIP4DateNS_9allocatorIS1_EEEC1B7v160006IDnS4_EEOT_OT0_, symObjAddr: 0x2890, symBinAddr: 0x100005E30, symSize: 0x30 }
  - { offsetInCU: 0x1ADC7, offset: 0x1ADC7, size: 0x8, addend: 0x0, symName: __ZNSt3__16vectorI4DateNS_9allocatorIS1_EEE16__destroy_vectorC1ERS4_, symObjAddr: 0x2900, symBinAddr: 0x100005EA0, symSize: 0x30 }
  - { offsetInCU: 0x1AE00, offset: 0x1AE00, size: 0x8, addend: 0x0, symName: __ZNSt3__16vectorI4DateNS_9allocatorIS1_EEE11__vallocateB7v160006Em, symObjAddr: 0x2940, symBinAddr: 0x100005EE0, symSize: 0xA0 }
  - { offsetInCU: 0x1AE44, offset: 0x1AE44, size: 0x8, addend: 0x0, symName: __ZNSt3__16vectorI4DateNS_9allocatorIS1_EEE18__construct_at_endIPS1_Li0EEEvT_S7_m, symObjAddr: 0x29E0, symBinAddr: 0x100005F80, symSize: 0x90 }
  - { offsetInCU: 0x1AEB7, offset: 0x1AEB7, size: 0x8, addend: 0x0, symName: __ZNSt3__128__exception_guard_exceptionsINS_6vectorI4DateNS_9allocatorIS2_EEE16__destroy_vectorEE10__completeB7v160006Ev, symObjAddr: 0x2A70, symBinAddr: 0x100006010, symSize: 0x20 }
  - { offsetInCU: 0x1AEDD, offset: 0x1AEDD, size: 0x8, addend: 0x0, symName: __ZNSt3__128__exception_guard_exceptionsINS_6vectorI4DateNS_9allocatorIS2_EEE16__destroy_vectorEED1B7v160006Ev, symObjAddr: 0x2A90, symBinAddr: 0x100006030, symSize: 0x20 }
  - { offsetInCU: 0x1AF07, offset: 0x1AF07, size: 0x8, addend: 0x0, symName: __ZNKSt3__117__compressed_pairIP4DateNS_9allocatorIS1_EEE6secondB7v160006Ev, symObjAddr: 0x2AB0, symBinAddr: 0x100006050, symSize: 0x20 }
  - { offsetInCU: 0x1AF2D, offset: 0x1AF2D, size: 0x8, addend: 0x0, symName: __ZNKSt3__122__compressed_pair_elemINS_9allocatorI4DateEELi1ELb1EE5__getB7v160006Ev, symObjAddr: 0x2AD0, symBinAddr: 0x100006070, symSize: 0x10 }
  - { offsetInCU: 0x1AF53, offset: 0x1AF53, size: 0x8, addend: 0x0, symName: __ZNSt3__117__compressed_pairIP4DateNS_9allocatorIS1_EEEC2B7v160006IDnS4_EEOT_OT0_, symObjAddr: 0x2AE0, symBinAddr: 0x100006080, symSize: 0x40 }
  - { offsetInCU: 0x1AFAB, offset: 0x1AFAB, size: 0x8, addend: 0x0, symName: __ZNSt3__122__compressed_pair_elemIP4DateLi0ELb0EEC2B7v160006IDnvEEOT_, symObjAddr: 0x2B20, symBinAddr: 0x1000060C0, symSize: 0x20 }
  - { offsetInCU: 0x1AFED, offset: 0x1AFED, size: 0x8, addend: 0x0, symName: __ZNSt3__122__compressed_pair_elemINS_9allocatorI4DateEELi1ELb1EEC2B7v160006IS3_vEEOT_, symObjAddr: 0x2B40, symBinAddr: 0x1000060E0, symSize: 0x10 }
  - { offsetInCU: 0x1B02F, offset: 0x1B02F, size: 0x8, addend: 0x0, symName: __ZNSt3__128__exception_guard_exceptionsINS_6vectorI4DateNS_9allocatorIS2_EEE16__destroy_vectorEEC1B7v160006ES6_, symObjAddr: 0x2B50, symBinAddr: 0x1000060F0, symSize: 0x30 }
  - { offsetInCU: 0x1B067, offset: 0x1B067, size: 0x8, addend: 0x0, symName: __ZNSt3__128__exception_guard_exceptionsINS_6vectorI4DateNS_9allocatorIS2_EEE16__destroy_vectorEEC2B7v160006ES6_, symObjAddr: 0x2B80, symBinAddr: 0x100006120, symSize: 0x20 }
  - { offsetInCU: 0x1B09F, offset: 0x1B09F, size: 0x8, addend: 0x0, symName: __ZNSt3__16vectorI4DateNS_9allocatorIS1_EEE16__destroy_vectorC2ERS4_, symObjAddr: 0x2BA0, symBinAddr: 0x100006140, symSize: 0x20 }
  - { offsetInCU: 0x1B0D8, offset: 0x1B0D8, size: 0x8, addend: 0x0, symName: __ZNKSt3__16vectorI4DateNS_9allocatorIS1_EEE8max_sizeEv, symObjAddr: 0x2BC0, symBinAddr: 0x100006160, symSize: 0x60 }
  - { offsetInCU: 0x1B100, offset: 0x1B100, size: 0x8, addend: 0x0, symName: __ZNKSt3__16vectorI4DateNS_9allocatorIS1_EEE20__throw_length_errorB7v160006Ev, symObjAddr: 0x2C20, symBinAddr: 0x1000061C0, symSize: 0x20 }
  - { offsetInCU: 0x1B126, offset: 0x1B126, size: 0x8, addend: 0x0, symName: __ZNSt3__16vectorI4DateNS_9allocatorIS1_EEE7__allocB7v160006Ev, symObjAddr: 0x2C80, symBinAddr: 0x100006220, symSize: 0x20 }
  - { offsetInCU: 0x1B14C, offset: 0x1B14C, size: 0x8, addend: 0x0, symName: __ZNSt3__16vectorI4DateNS_9allocatorIS1_EEE9__end_capB7v160006Ev, symObjAddr: 0x2CA0, symBinAddr: 0x100006240, symSize: 0x20 }
  - { offsetInCU: 0x1B172, offset: 0x1B172, size: 0x8, addend: 0x0, symName: __ZNKSt3__16vectorI4DateNS_9allocatorIS1_EEE14__annotate_newB7v160006Em, symObjAddr: 0x2CC0, symBinAddr: 0x100006260, symSize: 0xA0 }
  - { offsetInCU: 0x1B1A7, offset: 0x1B1A7, size: 0x8, addend: 0x0, symName: __ZNSt3__116allocator_traitsINS_9allocatorI4DateEEE8max_sizeB7v160006IS3_vEEmRKS3_, symObjAddr: 0x2D90, symBinAddr: 0x100006330, symSize: 0x20 }
  - { offsetInCU: 0x1B1D5, offset: 0x1B1D5, size: 0x8, addend: 0x0, symName: __ZNSt3__114numeric_limitsIlE3maxB7v160006Ev, symObjAddr: 0x2DB0, symBinAddr: 0x100006350, symSize: 0x10 }
  - { offsetInCU: 0x1B1F3, offset: 0x1B1F3, size: 0x8, addend: 0x0, symName: __ZNKSt3__16__lessImmEclB7v160006ERKmS3_, symObjAddr: 0x2E10, symBinAddr: 0x1000063B0, symSize: 0x30 }
  - { offsetInCU: 0x1B235, offset: 0x1B235, size: 0x8, addend: 0x0, symName: __ZNKSt3__19allocatorI4DateE8max_sizeB7v160006Ev, symObjAddr: 0x2E40, symBinAddr: 0x1000063E0, symSize: 0x20 }
  - { offsetInCU: 0x1B25B, offset: 0x1B25B, size: 0x8, addend: 0x0, symName: __ZNSt3__123__libcpp_numeric_limitsIlLb1EE3maxB7v160006Ev, symObjAddr: 0x2E60, symBinAddr: 0x100006400, symSize: 0x10 }
  - { offsetInCU: 0x1B26F, offset: 0x1B26F, size: 0x8, addend: 0x0, symName: __ZNSt12length_errorC1B7v160006EPKc, symObjAddr: 0x2EE0, symBinAddr: 0x100006480, symSize: 0x30 }
  - { offsetInCU: 0x1B2A7, offset: 0x1B2A7, size: 0x8, addend: 0x0, symName: __ZNSt12length_errorC2B7v160006EPKc, symObjAddr: 0x2F10, symBinAddr: 0x1000064B0, symSize: 0x40 }
  - { offsetInCU: 0x1B2DF, offset: 0x1B2DF, size: 0x8, addend: 0x0, symName: __ZNSt3__19allocatorI4DateE8allocateB7v160006Em, symObjAddr: 0x2F50, symBinAddr: 0x1000064F0, symSize: 0x50 }
  - { offsetInCU: 0x1B313, offset: 0x1B313, size: 0x8, addend: 0x0, symName: __ZNSt3__117__compressed_pairIP4DateNS_9allocatorIS1_EEE6secondB7v160006Ev, symObjAddr: 0x30B0, symBinAddr: 0x100006650, symSize: 0x20 }
  - { offsetInCU: 0x1B339, offset: 0x1B339, size: 0x8, addend: 0x0, symName: __ZNSt3__122__compressed_pair_elemINS_9allocatorI4DateEELi1ELb1EE5__getB7v160006Ev, symObjAddr: 0x30D0, symBinAddr: 0x100006670, symSize: 0x10 }
  - { offsetInCU: 0x1B35F, offset: 0x1B35F, size: 0x8, addend: 0x0, symName: __ZNSt3__117__compressed_pairIP4DateNS_9allocatorIS1_EEE5firstB7v160006Ev, symObjAddr: 0x30E0, symBinAddr: 0x100006680, symSize: 0x20 }
  - { offsetInCU: 0x1B385, offset: 0x1B385, size: 0x8, addend: 0x0, symName: __ZNSt3__122__compressed_pair_elemIP4DateLi0ELb0EE5__getB7v160006Ev, symObjAddr: 0x3100, symBinAddr: 0x1000066A0, symSize: 0x10 }
  - { offsetInCU: 0x1B3AB, offset: 0x1B3AB, size: 0x8, addend: 0x0, symName: __ZNKSt3__16vectorI4DateNS_9allocatorIS1_EEE31__annotate_contiguous_containerB7v160006EPKvS6_S6_S6_, symObjAddr: 0x3110, symBinAddr: 0x1000066B0, symSize: 0x20 }
  - { offsetInCU: 0x1B3FD, offset: 0x1B3FD, size: 0x8, addend: 0x0, symName: __ZNKSt3__16vectorI4DateNS_9allocatorIS1_EEE4dataB7v160006Ev, symObjAddr: 0x3130, symBinAddr: 0x1000066D0, symSize: 0x20 }
  - { offsetInCU: 0x1B423, offset: 0x1B423, size: 0x8, addend: 0x0, symName: __ZNKSt3__16vectorI4DateNS_9allocatorIS1_EEE8capacityB7v160006Ev, symObjAddr: 0x3150, symBinAddr: 0x1000066F0, symSize: 0x40 }
  - { offsetInCU: 0x1B449, offset: 0x1B449, size: 0x8, addend: 0x0, symName: __ZNKSt3__16vectorI4DateNS_9allocatorIS1_EEE9__end_capB7v160006Ev, symObjAddr: 0x31A0, symBinAddr: 0x100006740, symSize: 0x20 }
  - { offsetInCU: 0x1B46F, offset: 0x1B46F, size: 0x8, addend: 0x0, symName: __ZNKSt3__117__compressed_pairIP4DateNS_9allocatorIS1_EEE5firstB7v160006Ev, symObjAddr: 0x31C0, symBinAddr: 0x100006760, symSize: 0x20 }
  - { offsetInCU: 0x1B495, offset: 0x1B495, size: 0x8, addend: 0x0, symName: __ZNKSt3__122__compressed_pair_elemIP4DateLi0ELb0EE5__getB7v160006Ev, symObjAddr: 0x31E0, symBinAddr: 0x100006780, symSize: 0x10 }
  - { offsetInCU: 0x1B4D4, offset: 0x1B4D4, size: 0x8, addend: 0x0, symName: __ZNSt3__16vectorI4DateNS_9allocatorIS1_EEE21_ConstructTransactionC1B7v160006ERS4_m, symObjAddr: 0x31F0, symBinAddr: 0x100006790, symSize: 0x30 }
  - { offsetInCU: 0x1B51C, offset: 0x1B51C, size: 0x8, addend: 0x0, symName: __ZNSt3__16vectorI4DateNS_9allocatorIS1_EEE21_ConstructTransactionD1B7v160006Ev, symObjAddr: 0x3320, symBinAddr: 0x1000068C0, symSize: 0x20 }
  - { offsetInCU: 0x1B546, offset: 0x1B546, size: 0x8, addend: 0x0, symName: __ZNSt3__16vectorI4DateNS_9allocatorIS1_EEE21_ConstructTransactionC2B7v160006ERS4_m, symObjAddr: 0x3340, symBinAddr: 0x1000068E0, symSize: 0x40 }
  - { offsetInCU: 0x1B58E, offset: 0x1B58E, size: 0x8, addend: 0x0, symName: __ZNSt3__129_AllocatorDestroyRangeReverseINS_9allocatorI4DateEEPS2_EC1B7v160006ERS3_RS4_S7_, symObjAddr: 0x33E0, symBinAddr: 0x100006980, symSize: 0x40 }
  - { offsetInCU: 0x1B5E5, offset: 0x1B5E5, size: 0x8, addend: 0x0, symName: __ZNSt3__116allocator_traitsINS_9allocatorI4DateEEE9constructB7v160006IS2_JRS2_EvEEvRS3_PT_DpOT0_, symObjAddr: 0x3420, symBinAddr: 0x1000069C0, symSize: 0x30 }
  - { offsetInCU: 0x1B63C, offset: 0x1B63C, size: 0x8, addend: 0x0, symName: __ZNSt3__128__exception_guard_exceptionsINS_29_AllocatorDestroyRangeReverseINS_9allocatorI4DateEEPS3_EEE10__completeB7v160006Ev, symObjAddr: 0x3450, symBinAddr: 0x1000069F0, symSize: 0x20 }
  - { offsetInCU: 0x1B662, offset: 0x1B662, size: 0x8, addend: 0x0, symName: __ZNSt3__128__exception_guard_exceptionsINS_29_AllocatorDestroyRangeReverseINS_9allocatorI4DateEEPS3_EEED1B7v160006Ev, symObjAddr: 0x3470, symBinAddr: 0x100006A10, symSize: 0x20 }
  - { offsetInCU: 0x1B68C, offset: 0x1B68C, size: 0x8, addend: 0x0, symName: __ZNSt3__128__exception_guard_exceptionsINS_29_AllocatorDestroyRangeReverseINS_9allocatorI4DateEEPS3_EEEC1B7v160006ES6_, symObjAddr: 0x3490, symBinAddr: 0x100006A30, symSize: 0x40 }
  - { offsetInCU: 0x1B6C4, offset: 0x1B6C4, size: 0x8, addend: 0x0, symName: __ZNSt3__128__exception_guard_exceptionsINS_29_AllocatorDestroyRangeReverseINS_9allocatorI4DateEEPS3_EEEC2B7v160006ES6_, symObjAddr: 0x34D0, symBinAddr: 0x100006A70, symSize: 0x30 }
  - { offsetInCU: 0x1B6FC, offset: 0x1B6FC, size: 0x8, addend: 0x0, symName: __ZNSt3__129_AllocatorDestroyRangeReverseINS_9allocatorI4DateEEPS2_EC2B7v160006ERS3_RS4_S7_, symObjAddr: 0x3500, symBinAddr: 0x100006AA0, symSize: 0x40 }
  - { offsetInCU: 0x1B753, offset: 0x1B753, size: 0x8, addend: 0x0, symName: __ZNSt3__19allocatorI4DateE9constructB7v160006IS1_JRS1_EEEvPT_DpOT0_, symObjAddr: 0x3540, symBinAddr: 0x100006AE0, symSize: 0x30 }
  - { offsetInCU: 0x1B7A9, offset: 0x1B7A9, size: 0x8, addend: 0x0, symName: __ZNSt3__128__exception_guard_exceptionsINS_29_AllocatorDestroyRangeReverseINS_9allocatorI4DateEEPS3_EEED2B7v160006Ev, symObjAddr: 0x3570, symBinAddr: 0x100006B10, symSize: 0x40 }
  - { offsetInCU: 0x1B7D3, offset: 0x1B7D3, size: 0x8, addend: 0x0, symName: __ZNKSt3__129_AllocatorDestroyRangeReverseINS_9allocatorI4DateEEPS2_EclB7v160006Ev, symObjAddr: 0x35B0, symBinAddr: 0x100006B50, symSize: 0x60 }
  - { offsetInCU: 0x1B7F9, offset: 0x1B7F9, size: 0x8, addend: 0x0, symName: __ZNSt3__116reverse_iteratorIP4DateEC1B7v160006ES2_, symObjAddr: 0x3680, symBinAddr: 0x100006C20, symSize: 0x30 }
  - { offsetInCU: 0x1B831, offset: 0x1B831, size: 0x8, addend: 0x0, symName: __ZNSt3__116allocator_traitsINS_9allocatorI4DateEEE7destroyB7v160006IS2_vEEvRS3_PT_, symObjAddr: 0x36F0, symBinAddr: 0x100006C90, symSize: 0x30 }
  - { offsetInCU: 0x1B86E, offset: 0x1B86E, size: 0x8, addend: 0x0, symName: __ZNSt3__116reverse_iteratorIP4DateEppB7v160006Ev, symObjAddr: 0x3740, symBinAddr: 0x100006CE0, symSize: 0x20 }
  - { offsetInCU: 0x1B894, offset: 0x1B894, size: 0x8, addend: 0x0, symName: __ZNKSt3__116reverse_iteratorIP4DateE4baseB7v160006Ev, symObjAddr: 0x3760, symBinAddr: 0x100006D00, symSize: 0x20 }
  - { offsetInCU: 0x1B8BA, offset: 0x1B8BA, size: 0x8, addend: 0x0, symName: __ZNSt3__19allocatorI4DateE7destroyB7v160006EPS1_, symObjAddr: 0x3780, symBinAddr: 0x100006D20, symSize: 0x10 }
  - { offsetInCU: 0x1B8F3, offset: 0x1B8F3, size: 0x8, addend: 0x0, symName: __ZNSt3__119__to_address_helperINS_16reverse_iteratorIP4DateEEvE6__callB7v160006ERKS4_, symObjAddr: 0x3790, symBinAddr: 0x100006D30, symSize: 0x40 }
  - { offsetInCU: 0x1B916, offset: 0x1B916, size: 0x8, addend: 0x0, symName: __ZNKSt3__116reverse_iteratorIP4DateEptB7v160006Ev, symObjAddr: 0x37D0, symBinAddr: 0x100006D70, symSize: 0x20 }
  - { offsetInCU: 0x1B93C, offset: 0x1B93C, size: 0x8, addend: 0x0, symName: __ZNKSt3__116reverse_iteratorIP4DateEdeB7v160006Ev, symObjAddr: 0x37F0, symBinAddr: 0x100006D90, symSize: 0x30 }
  - { offsetInCU: 0x1B970, offset: 0x1B970, size: 0x8, addend: 0x0, symName: __ZNSt3__116reverse_iteratorIP4DateEC2B7v160006ES2_, symObjAddr: 0x3820, symBinAddr: 0x100006DC0, symSize: 0x30 }
  - { offsetInCU: 0x1B9A8, offset: 0x1B9A8, size: 0x8, addend: 0x0, symName: __ZNSt3__16vectorI4DateNS_9allocatorIS1_EEE21_ConstructTransactionD2B7v160006Ev, symObjAddr: 0x3850, symBinAddr: 0x100006DF0, symSize: 0x20 }
  - { offsetInCU: 0x1B9D2, offset: 0x1B9D2, size: 0x8, addend: 0x0, symName: __ZNSt3__128__exception_guard_exceptionsINS_6vectorI4DateNS_9allocatorIS2_EEE16__destroy_vectorEED2B7v160006Ev, symObjAddr: 0x3870, symBinAddr: 0x100006E10, symSize: 0x40 }
  - { offsetInCU: 0x1B9FC, offset: 0x1B9FC, size: 0x8, addend: 0x0, symName: __ZNSt3__16vectorI4DateNS_9allocatorIS1_EEE16__destroy_vectorclB7v160006Ev, symObjAddr: 0x38B0, symBinAddr: 0x100006E50, symSize: 0x90 }
  - { offsetInCU: 0x1BA22, offset: 0x1BA22, size: 0x8, addend: 0x0, symName: __ZNKSt3__16vectorI4DateNS_9allocatorIS1_EEE17__annotate_deleteB7v160006Ev, symObjAddr: 0x3940, symBinAddr: 0x100006EE0, symSize: 0xB0 }
  - { offsetInCU: 0x1BA48, offset: 0x1BA48, size: 0x8, addend: 0x0, symName: __ZNSt3__16vectorI4DateNS_9allocatorIS1_EEE7__clearB7v160006Ev, symObjAddr: 0x3A00, symBinAddr: 0x100006FA0, symSize: 0x20 }
  - { offsetInCU: 0x1BA6E, offset: 0x1BA6E, size: 0x8, addend: 0x0, symName: __ZNSt3__116allocator_traitsINS_9allocatorI4DateEEE10deallocateB7v160006ERS3_PS2_m, symObjAddr: 0x3A20, symBinAddr: 0x100006FC0, symSize: 0x30 }
  - { offsetInCU: 0x1BAB0, offset: 0x1BAB0, size: 0x8, addend: 0x0, symName: __ZNSt3__16vectorI4DateNS_9allocatorIS1_EEE22__base_destruct_at_endB7v160006EPS1_, symObjAddr: 0x3A50, symBinAddr: 0x100006FF0, symSize: 0x80 }
  - { offsetInCU: 0x1BAF4, offset: 0x1BAF4, size: 0x8, addend: 0x0, symName: __ZNSt3__19allocatorI4DateE10deallocateB7v160006EPS1_m, symObjAddr: 0x3AD0, symBinAddr: 0x100007070, symSize: 0x50 }
  - { offsetInCU: 0x1BB36, offset: 0x1BB36, size: 0x8, addend: 0x0, symName: __ZNSt3__16vectorIdNS_9allocatorIdEEEC2ERKS3_, symObjAddr: 0x3C20, symBinAddr: 0x1000071C0, symSize: 0x110 }
  - { offsetInCU: 0x1BBA0, offset: 0x1BBA0, size: 0x8, addend: 0x0, symName: __ZNSt3__116allocator_traitsINS_9allocatorIdEEE37select_on_container_copy_constructionB7v160006IS2_vvEES2_RKS2_, symObjAddr: 0x3D30, symBinAddr: 0x1000072D0, symSize: 0x10 }
  - { offsetInCU: 0x1BBCF, offset: 0x1BBCF, size: 0x8, addend: 0x0, symName: __ZNKSt3__16vectorIdNS_9allocatorIdEEE7__allocB7v160006Ev, symObjAddr: 0x3D40, symBinAddr: 0x1000072E0, symSize: 0x20 }
  - { offsetInCU: 0x1BBFA, offset: 0x1BBFA, size: 0x8, addend: 0x0, symName: __ZNSt3__117__compressed_pairIPdNS_9allocatorIdEEEC1B7v160006IDnS3_EEOT_OT0_, symObjAddr: 0x3D60, symBinAddr: 0x100007300, symSize: 0x30 }
  - { offsetInCU: 0x1BC52, offset: 0x1BC52, size: 0x8, addend: 0x0, symName: __ZNSt3__16vectorIdNS_9allocatorIdEEE16__destroy_vectorC1ERS3_, symObjAddr: 0x3DD0, symBinAddr: 0x100007370, symSize: 0x30 }
  - { offsetInCU: 0x1BC8B, offset: 0x1BC8B, size: 0x8, addend: 0x0, symName: __ZNKSt3__16vectorIdNS_9allocatorIdEEE4sizeB7v160006Ev, symObjAddr: 0x3E10, symBinAddr: 0x1000073B0, symSize: 0x20 }
  - { offsetInCU: 0x1BCB1, offset: 0x1BCB1, size: 0x8, addend: 0x0, symName: __ZNSt3__16vectorIdNS_9allocatorIdEEE11__vallocateB7v160006Em, symObjAddr: 0x3E30, symBinAddr: 0x1000073D0, symSize: 0xA0 }
  - { offsetInCU: 0x1BCF5, offset: 0x1BCF5, size: 0x8, addend: 0x0, symName: __ZNSt3__16vectorIdNS_9allocatorIdEEE18__construct_at_endIPdLi0EEEvT_S6_m, symObjAddr: 0x3ED0, symBinAddr: 0x100007470, symSize: 0x90 }
  - { offsetInCU: 0x1BD68, offset: 0x1BD68, size: 0x8, addend: 0x0, symName: __ZNSt3__128__exception_guard_exceptionsINS_6vectorIdNS_9allocatorIdEEE16__destroy_vectorEE10__completeB7v160006Ev, symObjAddr: 0x3F60, symBinAddr: 0x100007500, symSize: 0x20 }
  - { offsetInCU: 0x1BD8E, offset: 0x1BD8E, size: 0x8, addend: 0x0, symName: __ZNSt3__128__exception_guard_exceptionsINS_6vectorIdNS_9allocatorIdEEE16__destroy_vectorEED1B7v160006Ev, symObjAddr: 0x3F80, symBinAddr: 0x100007520, symSize: 0x20 }
  - { offsetInCU: 0x1BDB8, offset: 0x1BDB8, size: 0x8, addend: 0x0, symName: __ZNKSt3__117__compressed_pairIPdNS_9allocatorIdEEE6secondB7v160006Ev, symObjAddr: 0x3FA0, symBinAddr: 0x100007540, symSize: 0x20 }
  - { offsetInCU: 0x1BDDE, offset: 0x1BDDE, size: 0x8, addend: 0x0, symName: __ZNKSt3__122__compressed_pair_elemINS_9allocatorIdEELi1ELb1EE5__getB7v160006Ev, symObjAddr: 0x3FC0, symBinAddr: 0x100007560, symSize: 0x10 }
  - { offsetInCU: 0x1BE04, offset: 0x1BE04, size: 0x8, addend: 0x0, symName: __ZNSt3__117__compressed_pairIPdNS_9allocatorIdEEEC2B7v160006IDnS3_EEOT_OT0_, symObjAddr: 0x3FD0, symBinAddr: 0x100007570, symSize: 0x40 }
  - { offsetInCU: 0x1BE5C, offset: 0x1BE5C, size: 0x8, addend: 0x0, symName: __ZNSt3__122__compressed_pair_elemIPdLi0ELb0EEC2B7v160006IDnvEEOT_, symObjAddr: 0x4010, symBinAddr: 0x1000075B0, symSize: 0x20 }
  - { offsetInCU: 0x1BE9E, offset: 0x1BE9E, size: 0x8, addend: 0x0, symName: __ZNSt3__122__compressed_pair_elemINS_9allocatorIdEELi1ELb1EEC2B7v160006IS2_vEEOT_, symObjAddr: 0x4030, symBinAddr: 0x1000075D0, symSize: 0x10 }
  - { offsetInCU: 0x1BEE0, offset: 0x1BEE0, size: 0x8, addend: 0x0, symName: __ZNSt3__128__exception_guard_exceptionsINS_6vectorIdNS_9allocatorIdEEE16__destroy_vectorEEC1B7v160006ES5_, symObjAddr: 0x4040, symBinAddr: 0x1000075E0, symSize: 0x30 }
  - { offsetInCU: 0x1BF18, offset: 0x1BF18, size: 0x8, addend: 0x0, symName: __ZNSt3__128__exception_guard_exceptionsINS_6vectorIdNS_9allocatorIdEEE16__destroy_vectorEEC2B7v160006ES5_, symObjAddr: 0x4070, symBinAddr: 0x100007610, symSize: 0x20 }
  - { offsetInCU: 0x1BF50, offset: 0x1BF50, size: 0x8, addend: 0x0, symName: __ZNSt3__16vectorIdNS_9allocatorIdEEE16__destroy_vectorC2ERS3_, symObjAddr: 0x4090, symBinAddr: 0x100007630, symSize: 0x20 }
  - { offsetInCU: 0x1BF89, offset: 0x1BF89, size: 0x8, addend: 0x0, symName: __ZNKSt3__16vectorIdNS_9allocatorIdEEE8max_sizeEv, symObjAddr: 0x40B0, symBinAddr: 0x100007650, symSize: 0x60 }
  - { offsetInCU: 0x1BFB1, offset: 0x1BFB1, size: 0x8, addend: 0x0, symName: __ZNKSt3__16vectorIdNS_9allocatorIdEEE20__throw_length_errorB7v160006Ev, symObjAddr: 0x4110, symBinAddr: 0x1000076B0, symSize: 0x20 }
  - { offsetInCU: 0x1BFD7, offset: 0x1BFD7, size: 0x8, addend: 0x0, symName: __ZNSt3__16vectorIdNS_9allocatorIdEEE7__allocB7v160006Ev, symObjAddr: 0x4170, symBinAddr: 0x100007710, symSize: 0x20 }
  - { offsetInCU: 0x1BFFD, offset: 0x1BFFD, size: 0x8, addend: 0x0, symName: __ZNSt3__16vectorIdNS_9allocatorIdEEE9__end_capB7v160006Ev, symObjAddr: 0x4190, symBinAddr: 0x100007730, symSize: 0x20 }
  - { offsetInCU: 0x1C023, offset: 0x1C023, size: 0x8, addend: 0x0, symName: __ZNKSt3__16vectorIdNS_9allocatorIdEEE14__annotate_newB7v160006Em, symObjAddr: 0x41B0, symBinAddr: 0x100007750, symSize: 0xB0 }
  - { offsetInCU: 0x1C058, offset: 0x1C058, size: 0x8, addend: 0x0, symName: __ZNSt3__116allocator_traitsINS_9allocatorIdEEE8max_sizeB7v160006IS2_vEEmRKS2_, symObjAddr: 0x4260, symBinAddr: 0x100007800, symSize: 0x20 }
  - { offsetInCU: 0x1C086, offset: 0x1C086, size: 0x8, addend: 0x0, symName: __ZNKSt3__19allocatorIdE8max_sizeB7v160006Ev, symObjAddr: 0x4280, symBinAddr: 0x100007820, symSize: 0x20 }
  - { offsetInCU: 0x1C0AC, offset: 0x1C0AC, size: 0x8, addend: 0x0, symName: __ZNSt3__19allocatorIdE8allocateB7v160006Em, symObjAddr: 0x42A0, symBinAddr: 0x100007840, symSize: 0x50 }
  - { offsetInCU: 0x1C0E0, offset: 0x1C0E0, size: 0x8, addend: 0x0, symName: __ZNSt3__117__compressed_pairIPdNS_9allocatorIdEEE6secondB7v160006Ev, symObjAddr: 0x42F0, symBinAddr: 0x100007890, symSize: 0x20 }
  - { offsetInCU: 0x1C106, offset: 0x1C106, size: 0x8, addend: 0x0, symName: __ZNSt3__122__compressed_pair_elemINS_9allocatorIdEELi1ELb1EE5__getB7v160006Ev, symObjAddr: 0x4310, symBinAddr: 0x1000078B0, symSize: 0x10 }
  - { offsetInCU: 0x1C12C, offset: 0x1C12C, size: 0x8, addend: 0x0, symName: __ZNSt3__117__compressed_pairIPdNS_9allocatorIdEEE5firstB7v160006Ev, symObjAddr: 0x4320, symBinAddr: 0x1000078C0, symSize: 0x20 }
  - { offsetInCU: 0x1C152, offset: 0x1C152, size: 0x8, addend: 0x0, symName: __ZNSt3__122__compressed_pair_elemIPdLi0ELb0EE5__getB7v160006Ev, symObjAddr: 0x4340, symBinAddr: 0x1000078E0, symSize: 0x10 }
  - { offsetInCU: 0x1C178, offset: 0x1C178, size: 0x8, addend: 0x0, symName: __ZNKSt3__16vectorIdNS_9allocatorIdEEE31__annotate_contiguous_containerB7v160006EPKvS5_S5_S5_, symObjAddr: 0x4350, symBinAddr: 0x1000078F0, symSize: 0x20 }
  - { offsetInCU: 0x1C1CA, offset: 0x1C1CA, size: 0x8, addend: 0x0, symName: __ZNKSt3__16vectorIdNS_9allocatorIdEEE4dataB7v160006Ev, symObjAddr: 0x4370, symBinAddr: 0x100007910, symSize: 0x20 }
  - { offsetInCU: 0x1C1F0, offset: 0x1C1F0, size: 0x8, addend: 0x0, symName: __ZNKSt3__16vectorIdNS_9allocatorIdEEE8capacityB7v160006Ev, symObjAddr: 0x4390, symBinAddr: 0x100007930, symSize: 0x30 }
  - { offsetInCU: 0x1C216, offset: 0x1C216, size: 0x8, addend: 0x0, symName: __ZNKSt3__16vectorIdNS_9allocatorIdEEE9__end_capB7v160006Ev, symObjAddr: 0x43D0, symBinAddr: 0x100007970, symSize: 0x20 }
  - { offsetInCU: 0x1C23C, offset: 0x1C23C, size: 0x8, addend: 0x0, symName: __ZNKSt3__117__compressed_pairIPdNS_9allocatorIdEEE5firstB7v160006Ev, symObjAddr: 0x43F0, symBinAddr: 0x100007990, symSize: 0x20 }
  - { offsetInCU: 0x1C262, offset: 0x1C262, size: 0x8, addend: 0x0, symName: __ZNKSt3__122__compressed_pair_elemIPdLi0ELb0EE5__getB7v160006Ev, symObjAddr: 0x4410, symBinAddr: 0x1000079B0, symSize: 0x10 }
  - { offsetInCU: 0x1C2A1, offset: 0x1C2A1, size: 0x8, addend: 0x0, symName: __ZNSt3__16vectorIdNS_9allocatorIdEEE21_ConstructTransactionC1B7v160006ERS3_m, symObjAddr: 0x4420, symBinAddr: 0x1000079C0, symSize: 0x30 }
  - { offsetInCU: 0x1C2E9, offset: 0x1C2E9, size: 0x8, addend: 0x0, symName: __ZNSt3__16vectorIdNS_9allocatorIdEEE21_ConstructTransactionD1B7v160006Ev, symObjAddr: 0x4550, symBinAddr: 0x100007AF0, symSize: 0x20 }
  - { offsetInCU: 0x1C313, offset: 0x1C313, size: 0x8, addend: 0x0, symName: __ZNSt3__16vectorIdNS_9allocatorIdEEE21_ConstructTransactionC2B7v160006ERS3_m, symObjAddr: 0x4570, symBinAddr: 0x100007B10, symSize: 0x40 }
  - { offsetInCU: 0x1C35B, offset: 0x1C35B, size: 0x8, addend: 0x0, symName: __ZNSt3__129_AllocatorDestroyRangeReverseINS_9allocatorIdEEPdEC1B7v160006ERS2_RS3_S6_, symObjAddr: 0x4610, symBinAddr: 0x100007BB0, symSize: 0x40 }
  - { offsetInCU: 0x1C3B2, offset: 0x1C3B2, size: 0x8, addend: 0x0, symName: __ZNSt3__116allocator_traitsINS_9allocatorIdEEE9constructB7v160006IdJRdEvEEvRS2_PT_DpOT0_, symObjAddr: 0x4650, symBinAddr: 0x100007BF0, symSize: 0x30 }
  - { offsetInCU: 0x1C409, offset: 0x1C409, size: 0x8, addend: 0x0, symName: __ZNSt3__128__exception_guard_exceptionsINS_29_AllocatorDestroyRangeReverseINS_9allocatorIdEEPdEEE10__completeB7v160006Ev, symObjAddr: 0x4680, symBinAddr: 0x100007C20, symSize: 0x20 }
  - { offsetInCU: 0x1C42F, offset: 0x1C42F, size: 0x8, addend: 0x0, symName: __ZNSt3__128__exception_guard_exceptionsINS_29_AllocatorDestroyRangeReverseINS_9allocatorIdEEPdEEED1B7v160006Ev, symObjAddr: 0x46A0, symBinAddr: 0x100007C40, symSize: 0x20 }
  - { offsetInCU: 0x1C459, offset: 0x1C459, size: 0x8, addend: 0x0, symName: __ZNSt3__128__exception_guard_exceptionsINS_29_AllocatorDestroyRangeReverseINS_9allocatorIdEEPdEEEC1B7v160006ES5_, symObjAddr: 0x46C0, symBinAddr: 0x100007C60, symSize: 0x40 }
  - { offsetInCU: 0x1C491, offset: 0x1C491, size: 0x8, addend: 0x0, symName: __ZNSt3__128__exception_guard_exceptionsINS_29_AllocatorDestroyRangeReverseINS_9allocatorIdEEPdEEEC2B7v160006ES5_, symObjAddr: 0x4700, symBinAddr: 0x100007CA0, symSize: 0x30 }
  - { offsetInCU: 0x1C4C9, offset: 0x1C4C9, size: 0x8, addend: 0x0, symName: __ZNSt3__129_AllocatorDestroyRangeReverseINS_9allocatorIdEEPdEC2B7v160006ERS2_RS3_S6_, symObjAddr: 0x4730, symBinAddr: 0x100007CD0, symSize: 0x40 }
  - { offsetInCU: 0x1C520, offset: 0x1C520, size: 0x8, addend: 0x0, symName: __ZNSt3__19allocatorIdE9constructB7v160006IdJRdEEEvPT_DpOT0_, symObjAddr: 0x4770, symBinAddr: 0x100007D10, symSize: 0x30 }
  - { offsetInCU: 0x1C576, offset: 0x1C576, size: 0x8, addend: 0x0, symName: __ZNSt3__128__exception_guard_exceptionsINS_29_AllocatorDestroyRangeReverseINS_9allocatorIdEEPdEEED2B7v160006Ev, symObjAddr: 0x47A0, symBinAddr: 0x100007D40, symSize: 0x40 }
  - { offsetInCU: 0x1C5A0, offset: 0x1C5A0, size: 0x8, addend: 0x0, symName: __ZNKSt3__129_AllocatorDestroyRangeReverseINS_9allocatorIdEEPdEclB7v160006Ev, symObjAddr: 0x47E0, symBinAddr: 0x100007D80, symSize: 0x60 }
  - { offsetInCU: 0x1C5C6, offset: 0x1C5C6, size: 0x8, addend: 0x0, symName: __ZNSt3__116reverse_iteratorIPdEC1B7v160006ES1_, symObjAddr: 0x48B0, symBinAddr: 0x100007E50, symSize: 0x30 }
  - { offsetInCU: 0x1C5FE, offset: 0x1C5FE, size: 0x8, addend: 0x0, symName: __ZNSt3__116allocator_traitsINS_9allocatorIdEEE7destroyB7v160006IdvEEvRS2_PT_, symObjAddr: 0x4920, symBinAddr: 0x100007EC0, symSize: 0x30 }
  - { offsetInCU: 0x1C63B, offset: 0x1C63B, size: 0x8, addend: 0x0, symName: __ZNSt3__116reverse_iteratorIPdEppB7v160006Ev, symObjAddr: 0x4970, symBinAddr: 0x100007F10, symSize: 0x20 }
  - { offsetInCU: 0x1C661, offset: 0x1C661, size: 0x8, addend: 0x0, symName: __ZNKSt3__116reverse_iteratorIPdE4baseB7v160006Ev, symObjAddr: 0x4990, symBinAddr: 0x100007F30, symSize: 0x20 }
  - { offsetInCU: 0x1C687, offset: 0x1C687, size: 0x8, addend: 0x0, symName: __ZNSt3__19allocatorIdE7destroyB7v160006EPd, symObjAddr: 0x49B0, symBinAddr: 0x100007F50, symSize: 0x10 }
  - { offsetInCU: 0x1C6C0, offset: 0x1C6C0, size: 0x8, addend: 0x0, symName: __ZNSt3__119__to_address_helperINS_16reverse_iteratorIPdEEvE6__callB7v160006ERKS3_, symObjAddr: 0x49C0, symBinAddr: 0x100007F60, symSize: 0x40 }
  - { offsetInCU: 0x1C6E3, offset: 0x1C6E3, size: 0x8, addend: 0x0, symName: __ZNKSt3__116reverse_iteratorIPdEptB7v160006Ev, symObjAddr: 0x4A00, symBinAddr: 0x100007FA0, symSize: 0x20 }
  - { offsetInCU: 0x1C709, offset: 0x1C709, size: 0x8, addend: 0x0, symName: __ZNKSt3__116reverse_iteratorIPdEdeB7v160006Ev, symObjAddr: 0x4A20, symBinAddr: 0x100007FC0, symSize: 0x30 }
  - { offsetInCU: 0x1C73D, offset: 0x1C73D, size: 0x8, addend: 0x0, symName: __ZNSt3__116reverse_iteratorIPdEC2B7v160006ES1_, symObjAddr: 0x4A50, symBinAddr: 0x100007FF0, symSize: 0x30 }
  - { offsetInCU: 0x1C775, offset: 0x1C775, size: 0x8, addend: 0x0, symName: __ZNSt3__16vectorIdNS_9allocatorIdEEE21_ConstructTransactionD2B7v160006Ev, symObjAddr: 0x4A80, symBinAddr: 0x100008020, symSize: 0x20 }
  - { offsetInCU: 0x1C79F, offset: 0x1C79F, size: 0x8, addend: 0x0, symName: __ZNSt3__128__exception_guard_exceptionsINS_6vectorIdNS_9allocatorIdEEE16__destroy_vectorEED2B7v160006Ev, symObjAddr: 0x4AA0, symBinAddr: 0x100008040, symSize: 0x40 }
  - { offsetInCU: 0x1C7C9, offset: 0x1C7C9, size: 0x8, addend: 0x0, symName: __ZNSt3__16vectorIdNS_9allocatorIdEEE16__destroy_vectorclB7v160006Ev, symObjAddr: 0x4AE0, symBinAddr: 0x100008080, symSize: 0x90 }
  - { offsetInCU: 0x1C7EF, offset: 0x1C7EF, size: 0x8, addend: 0x0, symName: __ZNKSt3__16vectorIdNS_9allocatorIdEEE17__annotate_deleteB7v160006Ev, symObjAddr: 0x4B70, symBinAddr: 0x100008110, symSize: 0xB0 }
  - { offsetInCU: 0x1C815, offset: 0x1C815, size: 0x8, addend: 0x0, symName: __ZNSt3__16vectorIdNS_9allocatorIdEEE7__clearB7v160006Ev, symObjAddr: 0x4C30, symBinAddr: 0x1000081D0, symSize: 0x20 }
  - { offsetInCU: 0x1C83B, offset: 0x1C83B, size: 0x8, addend: 0x0, symName: __ZNSt3__116allocator_traitsINS_9allocatorIdEEE10deallocateB7v160006ERS2_Pdm, symObjAddr: 0x4C50, symBinAddr: 0x1000081F0, symSize: 0x30 }
  - { offsetInCU: 0x1C87D, offset: 0x1C87D, size: 0x8, addend: 0x0, symName: __ZNSt3__16vectorIdNS_9allocatorIdEEE22__base_destruct_at_endB7v160006EPd, symObjAddr: 0x4C80, symBinAddr: 0x100008220, symSize: 0x80 }
  - { offsetInCU: 0x1C8C1, offset: 0x1C8C1, size: 0x8, addend: 0x0, symName: __ZNSt3__19allocatorIdE10deallocateB7v160006EPdm, symObjAddr: 0x4D00, symBinAddr: 0x1000082A0, symSize: 0x40 }
  - { offsetInCU: 0x1C903, offset: 0x1C903, size: 0x8, addend: 0x0, symName: __ZNSt3__16vectorI4DateNS_9allocatorIS1_EEED2B7v160006Ev, symObjAddr: 0x4D40, symBinAddr: 0x1000082E0, symSize: 0x40 }
  - { offsetInCU: 0x1C92D, offset: 0x1C92D, size: 0x8, addend: 0x0, symName: __ZNKSt3__112__hash_tableINS_17__hash_value_typeINS_12basic_stringIcNS_11char_traitsIcEENS_9allocatorIcEEEE8VolCurveEENS_22__unordered_map_hasherIS7_S9_NS_4hashIS7_EENS_8equal_toIS7_EELb1EEENS_21__unordered_map_equalIS7_S9_SE_SC_Lb1EEENS5_IS9_EEE5beginEv, symObjAddr: 0x4D80, symBinAddr: 0x100008320, symSize: 0x40 }
  - { offsetInCU: 0x1C955, offset: 0x1C955, size: 0x8, addend: 0x0, symName: __ZNSt3__125__hash_map_const_iteratorINS_21__hash_const_iteratorIPNS_11__hash_nodeINS_17__hash_value_typeINS_12basic_stringIcNS_11char_traitsIcEENS_9allocatorIcEEEE8VolCurveEEPvEEEEEC1B7v160006ESF_, symObjAddr: 0x4DC0, symBinAddr: 0x100008360, symSize: 0x30 }
  - { offsetInCU: 0x1C98E, offset: 0x1C98E, size: 0x8, addend: 0x0, symName: __ZNKSt3__117__compressed_pairINS_16__hash_node_baseIPNS_11__hash_nodeINS_17__hash_value_typeINS_12basic_stringIcNS_11char_traitsIcEENS_9allocatorIcEEEE8VolCurveEEPvEEEENS7_ISD_EEE5firstB7v160006Ev, symObjAddr: 0x4DF0, symBinAddr: 0x100008390, symSize: 0x20 }
  - { offsetInCU: 0x1C9B4, offset: 0x1C9B4, size: 0x8, addend: 0x0, symName: __ZNSt3__121__hash_const_iteratorIPNS_11__hash_nodeINS_17__hash_value_typeINS_12basic_stringIcNS_11char_traitsIcEENS_9allocatorIcEEEE8VolCurveEEPvEEEC1B7v160006EPNS_16__hash_node_baseISD_EEPKv, symObjAddr: 0x4E10, symBinAddr: 0x1000083B0, symSize: 0x30 }
  - { offsetInCU: 0x1C9FC, offset: 0x1C9FC, size: 0x8, addend: 0x0, symName: __ZNKSt3__122__compressed_pair_elemINS_16__hash_node_baseIPNS_11__hash_nodeINS_17__hash_value_typeINS_12basic_stringIcNS_11char_traitsIcEENS_9allocatorIcEEEE8VolCurveEEPvEEEELi0ELb0EE5__getB7v160006Ev, symObjAddr: 0x4E40, symBinAddr: 0x1000083E0, symSize: 0x10 }
  - { offsetInCU: 0x1CA22, offset: 0x1CA22, size: 0x8, addend: 0x0, symName: __ZNSt3__121__hash_const_iteratorIPNS_11__hash_nodeINS_17__hash_value_typeINS_12basic_stringIcNS_11char_traitsIcEENS_9allocatorIcEEEE8VolCurveEEPvEEEC2B7v160006EPNS_16__hash_node_baseISD_EEPKv, symObjAddr: 0x4E50, symBinAddr: 0x1000083F0, symSize: 0x20 }
  - { offsetInCU: 0x1CA6A, offset: 0x1CA6A, size: 0x8, addend: 0x0, symName: __ZNSt3__125__hash_map_const_iteratorINS_21__hash_const_iteratorIPNS_11__hash_nodeINS_17__hash_value_typeINS_12basic_stringIcNS_11char_traitsIcEENS_9allocatorIcEEEE8VolCurveEEPvEEEEEC2B7v160006ESF_, symObjAddr: 0x4E70, symBinAddr: 0x100008410, symSize: 0x20 }
  - { offsetInCU: 0x1CAA3, offset: 0x1CAA3, size: 0x8, addend: 0x0, symName: __ZNSt3__114pointer_traitsIPKNS_4pairIKNS_12basic_stringIcNS_11char_traitsIcEENS_9allocatorIcEEEE8VolCurveEEE10pointer_toB7v160006ERSB_, symObjAddr: 0x4E90, symBinAddr: 0x100008430, symSize: 0x10 }
  - { offsetInCU: 0x1CAC6, offset: 0x1CAC6, size: 0x8, addend: 0x0, symName: __ZNKSt3__121__hash_const_iteratorIPNS_11__hash_nodeINS_17__hash_value_typeINS_12basic_stringIcNS_11char_traitsIcEENS_9allocatorIcEEEE8VolCurveEEPvEEEptB7v160006Ev, symObjAddr: 0x4EA0, symBinAddr: 0x100008440, symSize: 0x30 }
  - { offsetInCU: 0x1CAEC, offset: 0x1CAEC, size: 0x8, addend: 0x0, symName: __ZNKSt3__117__hash_value_typeINS_12basic_stringIcNS_11char_traitsIcEENS_9allocatorIcEEEE8VolCurveE11__get_valueB7v160006Ev, symObjAddr: 0x4ED0, symBinAddr: 0x100008470, symSize: 0x20 }
  - { offsetInCU: 0x1CB12, offset: 0x1CB12, size: 0x8, addend: 0x0, symName: __ZNSt3__114pointer_traitsIPKNS_17__hash_value_typeINS_12basic_stringIcNS_11char_traitsIcEENS_9allocatorIcEEEE8VolCurveEEE10pointer_toB7v160006ERSA_, symObjAddr: 0x4EF0, symBinAddr: 0x100008490, symSize: 0x10 }
  - { offsetInCU: 0x1CB35, offset: 0x1CB35, size: 0x8, addend: 0x0, symName: __ZNSt3__116__hash_node_baseIPNS_11__hash_nodeINS_17__hash_value_typeINS_12basic_stringIcNS_11char_traitsIcEENS_9allocatorIcEEEE8VolCurveEEPvEEE8__upcastB7v160006Ev, symObjAddr: 0x4F00, symBinAddr: 0x1000084A0, symSize: 0x20 }
  - { offsetInCU: 0x1CB5B, offset: 0x1CB5B, size: 0x8, addend: 0x0, symName: __ZNSt3__114pointer_traitsIPNS_16__hash_node_baseIPNS_11__hash_nodeINS_17__hash_value_typeINS_12basic_stringIcNS_11char_traitsIcEENS_9allocatorIcEEEE8VolCurveEEPvEEEEE10pointer_toB7v160006ERSF_, symObjAddr: 0x4F20, symBinAddr: 0x1000084C0, symSize: 0x10 }
  - { offsetInCU: 0x1CB7E, offset: 0x1CB7E, size: 0x8, addend: 0x0, symName: __ZN8VolCurveC2ERKS_, symObjAddr: 0x4F60, symBinAddr: 0x100008500, symSize: 0xB0 }
  - { offsetInCU: 0x1CBB3, offset: 0x1CBB3, size: 0x8, addend: 0x0, symName: __ZNKSt3__112__hash_tableINS_17__hash_value_typeINS_12basic_stringIcNS_11char_traitsIcEENS_9allocatorIcEEEEdEENS_22__unordered_map_hasherIS7_S8_NS_4hashIS7_EENS_8equal_toIS7_EELb1EEENS_21__unordered_map_equalIS7_S8_SD_SB_Lb1EEENS5_IS8_EEE5beginEv, symObjAddr: 0x5010, symBinAddr: 0x1000085B0, symSize: 0x40 }
  - { offsetInCU: 0x1CBDB, offset: 0x1CBDB, size: 0x8, addend: 0x0, symName: __ZNSt3__125__hash_map_const_iteratorINS_21__hash_const_iteratorIPNS_11__hash_nodeINS_17__hash_value_typeINS_12basic_stringIcNS_11char_traitsIcEENS_9allocatorIcEEEEdEEPvEEEEEC1B7v160006ESE_, symObjAddr: 0x5050, symBinAddr: 0x1000085F0, symSize: 0x30 }
  - { offsetInCU: 0x1CC14, offset: 0x1CC14, size: 0x8, addend: 0x0, symName: __ZNKSt3__117__compressed_pairINS_16__hash_node_baseIPNS_11__hash_nodeINS_17__hash_value_typeINS_12basic_stringIcNS_11char_traitsIcEENS_9allocatorIcEEEEdEEPvEEEENS7_ISC_EEE5firstB7v160006Ev, symObjAddr: 0x5080, symBinAddr: 0x100008620, symSize: 0x20 }
  - { offsetInCU: 0x1CC3A, offset: 0x1CC3A, size: 0x8, addend: 0x0, symName: __ZNSt3__121__hash_const_iteratorIPNS_11__hash_nodeINS_17__hash_value_typeINS_12basic_stringIcNS_11char_traitsIcEENS_9allocatorIcEEEEdEEPvEEEC1B7v160006EPNS_16__hash_node_baseISC_EEPKv, symObjAddr: 0x50A0, symBinAddr: 0x100008640, symSize: 0x30 }
  - { offsetInCU: 0x1CC82, offset: 0x1CC82, size: 0x8, addend: 0x0, symName: __ZNKSt3__122__compressed_pair_elemINS_16__hash_node_baseIPNS_11__hash_nodeINS_17__hash_value_typeINS_12basic_stringIcNS_11char_traitsIcEENS_9allocatorIcEEEEdEEPvEEEELi0ELb0EE5__getB7v160006Ev, symObjAddr: 0x50D0, symBinAddr: 0x100008670, symSize: 0x10 }
  - { offsetInCU: 0x1CCA8, offset: 0x1CCA8, size: 0x8, addend: 0x0, symName: __ZNSt3__121__hash_const_iteratorIPNS_11__hash_nodeINS_17__hash_value_typeINS_12basic_stringIcNS_11char_traitsIcEENS_9allocatorIcEEEEdEEPvEEEC2B7v160006EPNS_16__hash_node_baseISC_EEPKv, symObjAddr: 0x50E0, symBinAddr: 0x100008680, symSize: 0x20 }
  - { offsetInCU: 0x1CCF0, offset: 0x1CCF0, size: 0x8, addend: 0x0, symName: __ZNSt3__125__hash_map_const_iteratorINS_21__hash_const_iteratorIPNS_11__hash_nodeINS_17__hash_value_typeINS_12basic_stringIcNS_11char_traitsIcEENS_9allocatorIcEEEEdEEPvEEEEEC2B7v160006ESE_, symObjAddr: 0x5100, symBinAddr: 0x1000086A0, symSize: 0x20 }
  - { offsetInCU: 0x1CD29, offset: 0x1CD29, size: 0x8, addend: 0x0, symName: __ZNKSt3__112__hash_tableINS_17__hash_value_typeINS_12basic_stringIcNS_11char_traitsIcEENS_9allocatorIcEEEEdEENS_22__unordered_map_hasherIS7_S8_NS_4hashIS7_EENS_8equal_toIS7_EELb1EEENS_21__unordered_map_equalIS7_S8_SD_SB_Lb1EEENS5_IS8_EEE3endEv, symObjAddr: 0x5120, symBinAddr: 0x1000086C0, symSize: 0x30 }
  - { offsetInCU: 0x1CD51, offset: 0x1CD51, size: 0x8, addend: 0x0, symName: __ZNKSt3__121__hash_const_iteratorIPNS_11__hash_nodeINS_17__hash_value_typeINS_12basic_stringIcNS_11char_traitsIcEENS_9allocatorIcEEEEdEEPvEEEptB7v160006Ev, symObjAddr: 0x51B0, symBinAddr: 0x100008750, symSize: 0x30 }
  - { offsetInCU: 0x1CD77, offset: 0x1CD77, size: 0x8, addend: 0x0, symName: __ZNKSt3__117__hash_value_typeINS_12basic_stringIcNS_11char_traitsIcEENS_9allocatorIcEEEEdE11__get_valueB7v160006Ev, symObjAddr: 0x51E0, symBinAddr: 0x100008780, symSize: 0x20 }
  - { offsetInCU: 0x1CD9D, offset: 0x1CD9D, size: 0x8, addend: 0x0, symName: __ZNSt3__114pointer_traitsIPKNS_17__hash_value_typeINS_12basic_stringIcNS_11char_traitsIcEENS_9allocatorIcEEEEdEEE10pointer_toB7v160006ERS9_, symObjAddr: 0x5200, symBinAddr: 0x1000087A0, symSize: 0x10 }
  - { offsetInCU: 0x1CDC0, offset: 0x1CDC0, size: 0x8, addend: 0x0, symName: __ZNSt3__116__hash_node_baseIPNS_11__hash_nodeINS_17__hash_value_typeINS_12basic_stringIcNS_11char_traitsIcEENS_9allocatorIcEEEEdEEPvEEE8__upcastB7v160006Ev, symObjAddr: 0x5210, symBinAddr: 0x1000087B0, symSize: 0x20 }
  - { offsetInCU: 0x1CDE6, offset: 0x1CDE6, size: 0x8, addend: 0x0, symName: __ZNSt3__114pointer_traitsIPNS_16__hash_node_baseIPNS_11__hash_nodeINS_17__hash_value_typeINS_12basic_stringIcNS_11char_traitsIcEENS_9allocatorIcEEEEdEEPvEEEEE10pointer_toB7v160006ERSE_, symObjAddr: 0x5230, symBinAddr: 0x1000087D0, symSize: 0x10 }
  - { offsetInCU: 0x1CE09, offset: 0x1CE09, size: 0x8, addend: 0x0, symName: __ZNSt3__14pairIKNS_12basic_stringIcNS_11char_traitsIcEENS_9allocatorIcEEEEdEC2ERKS8_, symObjAddr: 0x5270, symBinAddr: 0x100008810, symSize: 0x40 }
  - { offsetInCU: 0x1CE3E, offset: 0x1CE3E, size: 0x8, addend: 0x0, symName: __ZNSt3__14pairIKNS_12basic_stringIcNS_11char_traitsIcEENS_9allocatorIcEEEEdED2Ev, symObjAddr: 0x52B0, symBinAddr: 0x100008850, symSize: 0x20 }
  - { offsetInCU: 0x1CE6A, offset: 0x1CE6A, size: 0x8, addend: 0x0, symName: __ZNSt3__121__hash_const_iteratorIPNS_11__hash_nodeINS_17__hash_value_typeINS_12basic_stringIcNS_11char_traitsIcEENS_9allocatorIcEEEEdEEPvEEEppB7v160006Ev, symObjAddr: 0x52D0, symBinAddr: 0x100008870, symSize: 0x20 }
  - { offsetInCU: 0x1CE90, offset: 0x1CE90, size: 0x8, addend: 0x0, symName: __ZNSt3__111char_traitsIcE6lengthEPKc, symObjAddr: 0x54E0, symBinAddr: 0x100008A80, symSize: 0x30 }
  - { offsetInCU: 0x1CED1, offset: 0x1CED1, size: 0x8, addend: 0x0, symName: __ZNKSt3__113basic_ostreamIcNS_11char_traitsIcEEE6sentrycvbB7v160006Ev, symObjAddr: 0x5510, symBinAddr: 0x100008AB0, symSize: 0x20 }
  - { offsetInCU: 0x1CEF7, offset: 0x1CEF7, size: 0x8, addend: 0x0, symName: __ZNSt3__119ostreambuf_iteratorIcNS_11char_traitsIcEEEC1B7v160006ERNS_13basic_ostreamIcS2_EE, symObjAddr: 0x5750, symBinAddr: 0x100008CF0, symSize: 0x30 }
  - { offsetInCU: 0x1CF2F, offset: 0x1CF2F, size: 0x8, addend: 0x0, symName: __ZNKSt3__18ios_base5flagsB7v160006Ev, symObjAddr: 0x5780, symBinAddr: 0x100008D20, symSize: 0x20 }
  - { offsetInCU: 0x1CF57, offset: 0x1CF57, size: 0x8, addend: 0x0, symName: __ZNKSt3__19basic_iosIcNS_11char_traitsIcEEE4fillB7v160006Ev, symObjAddr: 0x57A0, symBinAddr: 0x100008D40, symSize: 0x70 }
  - { offsetInCU: 0x1CF7F, offset: 0x1CF7F, size: 0x8, addend: 0x0, symName: __ZNKSt3__119ostreambuf_iteratorIcNS_11char_traitsIcEEE6failedB7v160006Ev, symObjAddr: 0x5810, symBinAddr: 0x100008DB0, symSize: 0x20 }
  - { offsetInCU: 0x1CFA5, offset: 0x1CFA5, size: 0x8, addend: 0x0, symName: __ZNSt3__19basic_iosIcNS_11char_traitsIcEEE8setstateB7v160006Ej, symObjAddr: 0x5830, symBinAddr: 0x100008DD0, symSize: 0x30 }
  - { offsetInCU: 0x1CFDA, offset: 0x1CFDA, size: 0x8, addend: 0x0, symName: __ZNKSt3__18ios_base5widthB7v160006Ev, symObjAddr: 0x5860, symBinAddr: 0x100008E00, symSize: 0x20 }
  - { offsetInCU: 0x1D002, offset: 0x1D002, size: 0x8, addend: 0x0, symName: __ZNSt3__115basic_streambufIcNS_11char_traitsIcEEE5sputnB7v160006EPKcl, symObjAddr: 0x5880, symBinAddr: 0x100008E20, symSize: 0x30 }
  - { offsetInCU: 0x1D044, offset: 0x1D044, size: 0x8, addend: 0x0, symName: __ZNSt3__112basic_stringIcNS_11char_traitsIcEENS_9allocatorIcEEEC1B7v160006Emc, symObjAddr: 0x58B0, symBinAddr: 0x100008E50, symSize: 0x30 }
  - { offsetInCU: 0x1D08C, offset: 0x1D08C, size: 0x8, addend: 0x0, symName: __ZNSt3__112basic_stringIcNS_11char_traitsIcEENS_9allocatorIcEEE4dataB7v160006Ev, symObjAddr: 0x58E0, symBinAddr: 0x100008E80, symSize: 0x30 }
  - { offsetInCU: 0x1D0B2, offset: 0x1D0B2, size: 0x8, addend: 0x0, symName: __ZNSt3__18ios_base5widthB7v160006El, symObjAddr: 0x5910, symBinAddr: 0x100008EB0, symSize: 0x30 }
  - { offsetInCU: 0x1D0F8, offset: 0x1D0F8, size: 0x8, addend: 0x0, symName: __ZNSt3__112basic_stringIcNS_11char_traitsIcEENS_9allocatorIcEEEC2B7v160006Emc, symObjAddr: 0x5940, symBinAddr: 0x100008EE0, symSize: 0x50 }
  - { offsetInCU: 0x1D140, offset: 0x1D140, size: 0x8, addend: 0x0, symName: __ZNSt3__117__compressed_pairINS_12basic_stringIcNS_11char_traitsIcEENS_9allocatorIcEEE5__repES5_EC1B7v160006INS_18__default_init_tagESA_EEOT_OT0_, symObjAddr: 0x5990, symBinAddr: 0x100008F30, symSize: 0x30 }
  - { offsetInCU: 0x1D198, offset: 0x1D198, size: 0x8, addend: 0x0, symName: __ZNSt3__117__compressed_pairINS_12basic_stringIcNS_11char_traitsIcEENS_9allocatorIcEEE5__repES5_EC2B7v160006INS_18__default_init_tagESA_EEOT_OT0_, symObjAddr: 0x59D0, symBinAddr: 0x100008F70, symSize: 0x30 }
  - { offsetInCU: 0x1D1F0, offset: 0x1D1F0, size: 0x8, addend: 0x0, symName: __ZNSt3__122__compressed_pair_elemINS_12basic_stringIcNS_11char_traitsIcEENS_9allocatorIcEEE5__repELi0ELb0EEC2B7v160006ENS_18__default_init_tagE, symObjAddr: 0x5A00, symBinAddr: 0x100008FA0, symSize: 0x10 }
  - { offsetInCU: 0x1D225, offset: 0x1D225, size: 0x8, addend: 0x0, symName: __ZNSt3__122__compressed_pair_elemINS_9allocatorIcEELi1ELb1EEC2B7v160006ENS_18__default_init_tagE, symObjAddr: 0x5A10, symBinAddr: 0x100008FB0, symSize: 0x20 }
  - { offsetInCU: 0x1D25A, offset: 0x1D25A, size: 0x8, addend: 0x0, symName: __ZNSt3__19allocatorIcEC2B7v160006Ev, symObjAddr: 0x5A30, symBinAddr: 0x100008FD0, symSize: 0x20 }
  - { offsetInCU: 0x1D284, offset: 0x1D284, size: 0x8, addend: 0x0, symName: __ZNSt3__116__non_trivial_ifILb1ENS_9allocatorIcEEEC2B7v160006Ev, symObjAddr: 0x5A50, symBinAddr: 0x100008FF0, symSize: 0x10 }
  - { offsetInCU: 0x1D2AE, offset: 0x1D2AE, size: 0x8, addend: 0x0, symName: __ZNSt3__112basic_stringIcNS_11char_traitsIcEENS_9allocatorIcEEE13__get_pointerB7v160006Ev, symObjAddr: 0x5A70, symBinAddr: 0x100009010, symSize: 0x50 }
  - { offsetInCU: 0x1D2D4, offset: 0x1D2D4, size: 0x8, addend: 0x0, symName: __ZNKSt3__112basic_stringIcNS_11char_traitsIcEENS_9allocatorIcEEE9__is_longB7v160006Ev, symObjAddr: 0x5AC0, symBinAddr: 0x100009060, symSize: 0x30 }
  - { offsetInCU: 0x1D2FA, offset: 0x1D2FA, size: 0x8, addend: 0x0, symName: __ZNSt3__112basic_stringIcNS_11char_traitsIcEENS_9allocatorIcEEE18__get_long_pointerB7v160006Ev, symObjAddr: 0x5AF0, symBinAddr: 0x100009090, symSize: 0x20 }
  - { offsetInCU: 0x1D320, offset: 0x1D320, size: 0x8, addend: 0x0, symName: __ZNSt3__112basic_stringIcNS_11char_traitsIcEENS_9allocatorIcEEE19__get_short_pointerB7v160006Ev, symObjAddr: 0x5B10, symBinAddr: 0x1000090B0, symSize: 0x30 }
  - { offsetInCU: 0x1D346, offset: 0x1D346, size: 0x8, addend: 0x0, symName: __ZNKSt3__117__compressed_pairINS_12basic_stringIcNS_11char_traitsIcEENS_9allocatorIcEEE5__repES5_E5firstB7v160006Ev, symObjAddr: 0x5B40, symBinAddr: 0x1000090E0, symSize: 0x20 }
  - { offsetInCU: 0x1D36C, offset: 0x1D36C, size: 0x8, addend: 0x0, symName: __ZNKSt3__122__compressed_pair_elemINS_12basic_stringIcNS_11char_traitsIcEENS_9allocatorIcEEE5__repELi0ELb0EE5__getB7v160006Ev, symObjAddr: 0x5B60, symBinAddr: 0x100009100, symSize: 0x10 }
  - { offsetInCU: 0x1D392, offset: 0x1D392, size: 0x8, addend: 0x0, symName: __ZNSt3__117__compressed_pairINS_12basic_stringIcNS_11char_traitsIcEENS_9allocatorIcEEE5__repES5_E5firstB7v160006Ev, symObjAddr: 0x5B70, symBinAddr: 0x100009110, symSize: 0x20 }
  - { offsetInCU: 0x1D3B8, offset: 0x1D3B8, size: 0x8, addend: 0x0, symName: __ZNSt3__122__compressed_pair_elemINS_12basic_stringIcNS_11char_traitsIcEENS_9allocatorIcEEE5__repELi0ELb0EE5__getB7v160006Ev, symObjAddr: 0x5B90, symBinAddr: 0x100009130, symSize: 0x10 }
  - { offsetInCU: 0x1D3DE, offset: 0x1D3DE, size: 0x8, addend: 0x0, symName: __ZNSt3__114pointer_traitsIPcE10pointer_toB7v160006ERc, symObjAddr: 0x5BA0, symBinAddr: 0x100009140, symSize: 0x10 }
  - { offsetInCU: 0x1D401, offset: 0x1D401, size: 0x8, addend: 0x0, symName: __ZNSt3__119ostreambuf_iteratorIcNS_11char_traitsIcEEEC2B7v160006ERNS_13basic_ostreamIcS2_EE, symObjAddr: 0x5BB0, symBinAddr: 0x100009150, symSize: 0x50 }
  - { offsetInCU: 0x1D439, offset: 0x1D439, size: 0x8, addend: 0x0, symName: __ZNKSt3__19basic_iosIcNS_11char_traitsIcEEE5rdbufB7v160006Ev, symObjAddr: 0x5C00, symBinAddr: 0x1000091A0, symSize: 0x20 }
  - { offsetInCU: 0x1D461, offset: 0x1D461, size: 0x8, addend: 0x0, symName: __ZNKSt3__18ios_base5rdbufB7v160006Ev, symObjAddr: 0x5C20, symBinAddr: 0x1000091C0, symSize: 0x20 }
  - { offsetInCU: 0x1D487, offset: 0x1D487, size: 0x8, addend: 0x0, symName: __ZNSt3__111char_traitsIcE11eq_int_typeEii, symObjAddr: 0x5C40, symBinAddr: 0x1000091E0, symSize: 0x20 }
  - { offsetInCU: 0x1D4B8, offset: 0x1D4B8, size: 0x8, addend: 0x0, symName: __ZNSt3__111char_traitsIcE3eofEv, symObjAddr: 0x5C60, symBinAddr: 0x100009200, symSize: 0x10 }
  - { offsetInCU: 0x1D4CC, offset: 0x1D4CC, size: 0x8, addend: 0x0, symName: __ZNKSt3__19basic_iosIcNS_11char_traitsIcEEE5widenB7v160006Ec, symObjAddr: 0x5C70, symBinAddr: 0x100009210, symSize: 0x80 }
  - { offsetInCU: 0x1D53A, offset: 0x1D53A, size: 0x8, addend: 0x0, symName: __ZNKSt3__15ctypeIcE5widenB7v160006Ec, symObjAddr: 0x5D20, symBinAddr: 0x1000092C0, symSize: 0x30 }
  - { offsetInCU: 0x1D56F, offset: 0x1D56F, size: 0x8, addend: 0x0, symName: __ZNSt3__18ios_base8setstateB7v160006Ej, symObjAddr: 0x5D50, symBinAddr: 0x1000092F0, symSize: 0x30 }
  - { offsetInCU: 0x1D5A6, offset: 0x1D5A6, size: 0x8, addend: 0x0, symName: __ZNKSt3__112basic_stringIcNS_11char_traitsIcEENS_9allocatorIcEEE4dataB7v160006Ev, symObjAddr: 0x5DA0, symBinAddr: 0x100009340, symSize: 0x30 }
  - { offsetInCU: 0x1D5CC, offset: 0x1D5CC, size: 0x8, addend: 0x0, symName: __ZNKSt3__112basic_stringIcNS_11char_traitsIcEENS_9allocatorIcEEE4sizeB7v160006Ev, symObjAddr: 0x5DD0, symBinAddr: 0x100009370, symSize: 0x50 }
  - { offsetInCU: 0x1D5F2, offset: 0x1D5F2, size: 0x8, addend: 0x0, symName: __ZNKSt3__112basic_stringIcNS_11char_traitsIcEENS_9allocatorIcEEE13__get_pointerB7v160006Ev, symObjAddr: 0x5E30, symBinAddr: 0x1000093D0, symSize: 0x50 }
  - { offsetInCU: 0x1D618, offset: 0x1D618, size: 0x8, addend: 0x0, symName: __ZNKSt3__112basic_stringIcNS_11char_traitsIcEENS_9allocatorIcEEE18__get_long_pointerB7v160006Ev, symObjAddr: 0x5E80, symBinAddr: 0x100009420, symSize: 0x20 }
  - { offsetInCU: 0x1D63E, offset: 0x1D63E, size: 0x8, addend: 0x0, symName: __ZNKSt3__112basic_stringIcNS_11char_traitsIcEENS_9allocatorIcEEE19__get_short_pointerB7v160006Ev, symObjAddr: 0x5EA0, symBinAddr: 0x100009440, symSize: 0x30 }
  - { offsetInCU: 0x1D664, offset: 0x1D664, size: 0x8, addend: 0x0, symName: __ZNSt3__114pointer_traitsIPKcE10pointer_toB7v160006ERS1_, symObjAddr: 0x5ED0, symBinAddr: 0x100009470, symSize: 0x10 }
  - { offsetInCU: 0x1D687, offset: 0x1D687, size: 0x8, addend: 0x0, symName: __ZNKSt3__112basic_stringIcNS_11char_traitsIcEENS_9allocatorIcEEE15__get_long_sizeB7v160006Ev, symObjAddr: 0x5EE0, symBinAddr: 0x100009480, symSize: 0x20 }
  - { offsetInCU: 0x1D6AD, offset: 0x1D6AD, size: 0x8, addend: 0x0, symName: __ZNKSt3__112basic_stringIcNS_11char_traitsIcEENS_9allocatorIcEEE16__get_short_sizeB7v160006Ev, symObjAddr: 0x5F00, symBinAddr: 0x1000094A0, symSize: 0x30 }
  - { offsetInCU: 0x1D6D3, offset: 0x1D6D3, size: 0x8, addend: 0x0, symName: __ZNKSt3__112__hash_tableINS_17__hash_value_typeINS_12basic_stringIcNS_11char_traitsIcEENS_9allocatorIcEEEE8VolCurveEENS_22__unordered_map_hasherIS7_S9_NS_4hashIS7_EENS_8equal_toIS7_EELb1EEENS_21__unordered_map_equalIS7_S9_SE_SC_Lb1EEENS5_IS9_EEE4sizeB7v160006Ev, symObjAddr: 0x5F30, symBinAddr: 0x1000094D0, symSize: 0x30 }
  - { offsetInCU: 0x1D6F9, offset: 0x1D6F9, size: 0x8, addend: 0x0, symName: __ZNKSt3__117__compressed_pairImNS_22__unordered_map_hasherINS_12basic_stringIcNS_11char_traitsIcEENS_9allocatorIcEEEENS_17__hash_value_typeIS7_8VolCurveEENS_4hashIS7_EENS_8equal_toIS7_EELb1EEEE5firstB7v160006Ev, symObjAddr: 0x5F60, symBinAddr: 0x100009500, symSize: 0x20 }
  - { offsetInCU: 0x1D71F, offset: 0x1D71F, size: 0x8, addend: 0x0, symName: __ZNKSt3__122__compressed_pair_elemImLi0ELb0EE5__getB7v160006Ev, symObjAddr: 0x5F80, symBinAddr: 0x100009520, symSize: 0x10 }
  - { offsetInCU: 0x1D745, offset: 0x1D745, size: 0x8, addend: 0x0, symName: __ZNKSt3__112__hash_tableINS_17__hash_value_typeINS_12basic_stringIcNS_11char_traitsIcEENS_9allocatorIcEEEE9RateCurveEENS_22__unordered_map_hasherIS7_S9_NS_4hashIS7_EENS_8equal_toIS7_EELb1EEENS_21__unordered_map_equalIS7_S9_SE_SC_Lb1EEENS5_IS9_EEE4sizeB7v160006Ev, symObjAddr: 0x5F90, symBinAddr: 0x100009530, symSize: 0x30 }
  - { offsetInCU: 0x1D76B, offset: 0x1D76B, size: 0x8, addend: 0x0, symName: __ZNKSt3__117__compressed_pairImNS_22__unordered_map_hasherINS_12basic_stringIcNS_11char_traitsIcEENS_9allocatorIcEEEENS_17__hash_value_typeIS7_9RateCurveEENS_4hashIS7_EENS_8equal_toIS7_EELb1EEEE5firstB7v160006Ev, symObjAddr: 0x5FC0, symBinAddr: 0x100009560, symSize: 0x20 }
  - { offsetInCU: 0x1D791, offset: 0x1D791, size: 0x8, addend: 0x0, symName: __ZNKSt3__112__hash_tableINS_17__hash_value_typeINS_12basic_stringIcNS_11char_traitsIcEENS_9allocatorIcEEEEdEENS_22__unordered_map_hasherIS7_S8_NS_4hashIS7_EENS_8equal_toIS7_EELb1EEENS_21__unordered_map_equalIS7_S8_SD_SB_Lb1EEENS5_IS8_EEE4sizeB7v160006Ev, symObjAddr: 0x5FE0, symBinAddr: 0x100009580, symSize: 0x30 }
  - { offsetInCU: 0x1D7B7, offset: 0x1D7B7, size: 0x8, addend: 0x0, symName: __ZNKSt3__117__compressed_pairImNS_22__unordered_map_hasherINS_12basic_stringIcNS_11char_traitsIcEENS_9allocatorIcEEEENS_17__hash_value_typeIS7_dEENS_4hashIS7_EENS_8equal_toIS7_EELb1EEEE5firstB7v160006Ev, symObjAddr: 0x6010, symBinAddr: 0x1000095B0, symSize: 0x20 }
  - { offsetInCU: 0x1D7DD, offset: 0x1D7DD, size: 0x8, addend: 0x0, symName: __ZN8VolCurveD2Ev, symObjAddr: 0x6030, symBinAddr: 0x1000095D0, symSize: 0x40 }
  - { offsetInCU: 0x1D809, offset: 0x1D809, size: 0x8, addend: 0x0, symName: __ZNSt3__16vectorIdNS_9allocatorIdEEED1B7v160006Ev, symObjAddr: 0x6070, symBinAddr: 0x100009610, symSize: 0x20 }
  - { offsetInCU: 0x1D833, offset: 0x1D833, size: 0x8, addend: 0x0, symName: __ZNSt3__16vectorIdNS_9allocatorIdEEED2B7v160006Ev, symObjAddr: 0x6090, symBinAddr: 0x100009630, symSize: 0x40 }
  - { offsetInCU: 0x1D85D, offset: 0x1D85D, size: 0x8, addend: 0x0, symName: __ZNSt3__113unordered_mapINS_12basic_stringIcNS_11char_traitsIcEENS_9allocatorIcEEEEdNS_4hashIS6_EENS_8equal_toIS6_EENS4_INS_4pairIKS6_dEEEEED2B7v160006Ev, symObjAddr: 0x60D0, symBinAddr: 0x100009670, symSize: 0x20 }
  - { offsetInCU: 0x1D887, offset: 0x1D887, size: 0x8, addend: 0x0, symName: __ZNSt3__112__hash_tableINS_17__hash_value_typeINS_12basic_stringIcNS_11char_traitsIcEENS_9allocatorIcEEEEdEENS_22__unordered_map_hasherIS7_S8_NS_4hashIS7_EENS_8equal_toIS7_EELb1EEENS_21__unordered_map_equalIS7_S8_SD_SB_Lb1EEENS5_IS8_EEED1Ev, symObjAddr: 0x60F0, symBinAddr: 0x100009690, symSize: 0x20 }
  - { offsetInCU: 0x1D8B3, offset: 0x1D8B3, size: 0x8, addend: 0x0, symName: __ZNSt3__112__hash_tableINS_17__hash_value_typeINS_12basic_stringIcNS_11char_traitsIcEENS_9allocatorIcEEEEdEENS_22__unordered_map_hasherIS7_S8_NS_4hashIS7_EENS_8equal_toIS7_EELb1EEENS_21__unordered_map_equalIS7_S8_SD_SB_Lb1EEENS5_IS8_EEED2Ev, symObjAddr: 0x6110, symBinAddr: 0x1000096B0, symSize: 0x50 }
  - { offsetInCU: 0x1D8DF, offset: 0x1D8DF, size: 0x8, addend: 0x0, symName: __ZNSt3__112__hash_tableINS_17__hash_value_typeINS_12basic_stringIcNS_11char_traitsIcEENS_9allocatorIcEEEEdEENS_22__unordered_map_hasherIS7_S8_NS_4hashIS7_EENS_8equal_toIS7_EELb1EEENS_21__unordered_map_equalIS7_S8_SD_SB_Lb1EEENS5_IS8_EEE17__deallocate_nodeEPNS_16__hash_node_baseIPNS_11__hash_nodeIS8_PvEEEE, symObjAddr: 0x6160, symBinAddr: 0x100009700, symSize: 0xA0 }
  - { offsetInCU: 0x1D949, offset: 0x1D949, size: 0x8, addend: 0x0, symName: __ZNSt3__117__compressed_pairINS_16__hash_node_baseIPNS_11__hash_nodeINS_17__hash_value_typeINS_12basic_stringIcNS_11char_traitsIcEENS_9allocatorIcEEEEdEEPvEEEENS7_ISC_EEE5firstB7v160006Ev, symObjAddr: 0x6200, symBinAddr: 0x1000097A0, symSize: 0x20 }
  - { offsetInCU: 0x1D96F, offset: 0x1D96F, size: 0x8, addend: 0x0, symName: __ZNSt3__110unique_ptrIA_PNS_16__hash_node_baseIPNS_11__hash_nodeINS_17__hash_value_typeINS_12basic_stringIcNS_11char_traitsIcEENS_9allocatorIcEEEEdEEPvEEEENS_25__bucket_list_deallocatorINS7_ISF_EEEEED1B7v160006Ev, symObjAddr: 0x6230, symBinAddr: 0x1000097D0, symSize: 0x20 }
  - { offsetInCU: 0x1D999, offset: 0x1D999, size: 0x8, addend: 0x0, symName: __ZNSt3__112__hash_tableINS_17__hash_value_typeINS_12basic_stringIcNS_11char_traitsIcEENS_9allocatorIcEEEEdEENS_22__unordered_map_hasherIS7_S8_NS_4hashIS7_EENS_8equal_toIS7_EELb1EEENS_21__unordered_map_equalIS7_S8_SD_SB_Lb1EEENS5_IS8_EEE12__node_allocB7v160006Ev, symObjAddr: 0x6250, symBinAddr: 0x1000097F0, symSize: 0x20 }
  - { offsetInCU: 0x1D9BF, offset: 0x1D9BF, size: 0x8, addend: 0x0, symName: __ZNSt3__116allocator_traitsINS_9allocatorINS_11__hash_nodeINS_17__hash_value_typeINS_12basic_stringIcNS_11char_traitsIcEENS1_IcEEEEdEEPvEEEEE7destroyB7v160006INS_4pairIKS8_dEEvvEEvRSC_PT_, symObjAddr: 0x6270, symBinAddr: 0x100009810, symSize: 0x20 }
  - { offsetInCU: 0x1D9F9, offset: 0x1D9F9, size: 0x8, addend: 0x0, symName: __ZNSt3__122__hash_key_value_typesINS_17__hash_value_typeINS_12basic_stringIcNS_11char_traitsIcEENS_9allocatorIcEEEEdEEE9__get_ptrB7v160006ERS8_, symObjAddr: 0x6290, symBinAddr: 0x100009830, symSize: 0x20 }
  - { offsetInCU: 0x1DA1C, offset: 0x1DA1C, size: 0x8, addend: 0x0, symName: __ZNSt3__116allocator_traitsINS_9allocatorINS_11__hash_nodeINS_17__hash_value_typeINS_12basic_stringIcNS_11char_traitsIcEENS1_IcEEEEdEEPvEEEEE10deallocateB7v160006ERSC_PSB_m, symObjAddr: 0x62B0, symBinAddr: 0x100009850, symSize: 0x30 }
  - { offsetInCU: 0x1DA5E, offset: 0x1DA5E, size: 0x8, addend: 0x0, symName: __ZNSt3__117__compressed_pairINS_16__hash_node_baseIPNS_11__hash_nodeINS_17__hash_value_typeINS_12basic_stringIcNS_11char_traitsIcEENS_9allocatorIcEEEEdEEPvEEEENS7_ISC_EEE6secondB7v160006Ev, symObjAddr: 0x62E0, symBinAddr: 0x100009880, symSize: 0x20 }
  - { offsetInCU: 0x1DA84, offset: 0x1DA84, size: 0x8, addend: 0x0, symName: __ZNSt3__122__compressed_pair_elemINS_9allocatorINS_11__hash_nodeINS_17__hash_value_typeINS_12basic_stringIcNS_11char_traitsIcEENS1_IcEEEEdEEPvEEEELi1ELb1EE5__getB7v160006Ev, symObjAddr: 0x6300, symBinAddr: 0x1000098A0, symSize: 0x10 }
  - { offsetInCU: 0x1DAAA, offset: 0x1DAAA, size: 0x8, addend: 0x0, symName: __ZNSt3__117__hash_value_typeINS_12basic_stringIcNS_11char_traitsIcEENS_9allocatorIcEEEEdE11__get_valueB7v160006Ev, symObjAddr: 0x6310, symBinAddr: 0x1000098B0, symSize: 0x20 }
  - { offsetInCU: 0x1DAD0, offset: 0x1DAD0, size: 0x8, addend: 0x0, symName: __ZNSt3__19allocatorINS_11__hash_nodeINS_17__hash_value_typeINS_12basic_stringIcNS_11char_traitsIcEENS0_IcEEEEdEEPvEEE10deallocateB7v160006EPSA_m, symObjAddr: 0x6360, symBinAddr: 0x100009900, symSize: 0x50 }
  - { offsetInCU: 0x1DB12, offset: 0x1DB12, size: 0x8, addend: 0x0, symName: __ZNSt3__122__compressed_pair_elemINS_16__hash_node_baseIPNS_11__hash_nodeINS_17__hash_value_typeINS_12basic_stringIcNS_11char_traitsIcEENS_9allocatorIcEEEEdEEPvEEEELi0ELb0EE5__getB7v160006Ev, symObjAddr: 0x63B0, symBinAddr: 0x100009950, symSize: 0x10 }
  - { offsetInCU: 0x1DB38, offset: 0x1DB38, size: 0x8, addend: 0x0, symName: __ZNSt3__110unique_ptrIA_PNS_16__hash_node_baseIPNS_11__hash_nodeINS_17__hash_value_typeINS_12basic_stringIcNS_11char_traitsIcEENS_9allocatorIcEEEEdEEPvEEEENS_25__bucket_list_deallocatorINS7_ISF_EEEEED2B7v160006Ev, symObjAddr: 0x63C0, symBinAddr: 0x100009960, symSize: 0x20 }
  - { offsetInCU: 0x1DB62, offset: 0x1DB62, size: 0x8, addend: 0x0, symName: __ZNSt3__110unique_ptrIA_PNS_16__hash_node_baseIPNS_11__hash_nodeINS_17__hash_value_typeINS_12basic_stringIcNS_11char_traitsIcEENS_9allocatorIcEEEEdEEPvEEEENS_25__bucket_list_deallocatorINS7_ISF_EEEEE5resetB7v160006EDn, symObjAddr: 0x63E0, symBinAddr: 0x100009980, symSize: 0x60 }
  - { offsetInCU: 0x1DBA2, offset: 0x1DBA2, size: 0x8, addend: 0x0, symName: __ZNSt3__117__compressed_pairIPPNS_16__hash_node_baseIPNS_11__hash_nodeINS_17__hash_value_typeINS_12basic_stringIcNS_11char_traitsIcEENS_9allocatorIcEEEEdEEPvEEEENS_25__bucket_list_deallocatorINS7_ISF_EEEEE5firstB7v160006Ev, symObjAddr: 0x6440, symBinAddr: 0x1000099E0, symSize: 0x20 }
  - { offsetInCU: 0x1DBC8, offset: 0x1DBC8, size: 0x8, addend: 0x0, symName: __ZNSt3__117__compressed_pairIPPNS_16__hash_node_baseIPNS_11__hash_nodeINS_17__hash_value_typeINS_12basic_stringIcNS_11char_traitsIcEENS_9allocatorIcEEEEdEEPvEEEENS_25__bucket_list_deallocatorINS7_ISF_EEEEE6secondB7v160006Ev, symObjAddr: 0x6460, symBinAddr: 0x100009A00, symSize: 0x20 }
  - { offsetInCU: 0x1DBEE, offset: 0x1DBEE, size: 0x8, addend: 0x0, symName: __ZNSt3__125__bucket_list_deallocatorINS_9allocatorIPNS_16__hash_node_baseIPNS_11__hash_nodeINS_17__hash_value_typeINS_12basic_stringIcNS_11char_traitsIcEENS1_IcEEEEdEEPvEEEEEEEclB7v160006EPSF_, symObjAddr: 0x6480, symBinAddr: 0x100009A20, symSize: 0x50 }
  - { offsetInCU: 0x1DC23, offset: 0x1DC23, size: 0x8, addend: 0x0, symName: __ZNSt3__122__compressed_pair_elemIPPNS_16__hash_node_baseIPNS_11__hash_nodeINS_17__hash_value_typeINS_12basic_stringIcNS_11char_traitsIcEENS_9allocatorIcEEEEdEEPvEEEELi0ELb0EE5__getB7v160006Ev, symObjAddr: 0x64D0, symBinAddr: 0x100009A70, symSize: 0x10 }
  - { offsetInCU: 0x1DC49, offset: 0x1DC49, size: 0x8, addend: 0x0, symName: __ZNSt3__122__compressed_pair_elemINS_25__bucket_list_deallocatorINS_9allocatorIPNS_16__hash_node_baseIPNS_11__hash_nodeINS_17__hash_value_typeINS_12basic_stringIcNS_11char_traitsIcEENS2_IcEEEEdEEPvEEEEEEEELi1ELb0EE5__getB7v160006Ev, symObjAddr: 0x64E0, symBinAddr: 0x100009A80, symSize: 0x10 }
  - { offsetInCU: 0x1DC6F, offset: 0x1DC6F, size: 0x8, addend: 0x0, symName: __ZNSt3__116allocator_traitsINS_9allocatorIPNS_16__hash_node_baseIPNS_11__hash_nodeINS_17__hash_value_typeINS_12basic_stringIcNS_11char_traitsIcEENS1_IcEEEEdEEPvEEEEEEE10deallocateB7v160006ERSG_PSF_m, symObjAddr: 0x64F0, symBinAddr: 0x100009A90, symSize: 0x30 }
  - { offsetInCU: 0x1DCB1, offset: 0x1DCB1, size: 0x8, addend: 0x0, symName: __ZNSt3__125__bucket_list_deallocatorINS_9allocatorIPNS_16__hash_node_baseIPNS_11__hash_nodeINS_17__hash_value_typeINS_12basic_stringIcNS_11char_traitsIcEENS1_IcEEEEdEEPvEEEEEEE7__allocB7v160006Ev, symObjAddr: 0x6520, symBinAddr: 0x100009AC0, symSize: 0x20 }
  - { offsetInCU: 0x1DCD7, offset: 0x1DCD7, size: 0x8, addend: 0x0, symName: __ZNSt3__125__bucket_list_deallocatorINS_9allocatorIPNS_16__hash_node_baseIPNS_11__hash_nodeINS_17__hash_value_typeINS_12basic_stringIcNS_11char_traitsIcEENS1_IcEEEEdEEPvEEEEEEE4sizeB7v160006Ev, symObjAddr: 0x6540, symBinAddr: 0x100009AE0, symSize: 0x20 }
  - { offsetInCU: 0x1DCFD, offset: 0x1DCFD, size: 0x8, addend: 0x0, symName: __ZNSt3__19allocatorIPNS_16__hash_node_baseIPNS_11__hash_nodeINS_17__hash_value_typeINS_12basic_stringIcNS_11char_traitsIcEENS0_IcEEEEdEEPvEEEEE10deallocateB7v160006EPSE_m, symObjAddr: 0x6560, symBinAddr: 0x100009B00, symSize: 0x40 }
  - { offsetInCU: 0x1DD3F, offset: 0x1DD3F, size: 0x8, addend: 0x0, symName: __ZNSt3__117__compressed_pairImNS_9allocatorIPNS_16__hash_node_baseIPNS_11__hash_nodeINS_17__hash_value_typeINS_12basic_stringIcNS_11char_traitsIcEENS1_IcEEEEdEEPvEEEEEEE6secondB7v160006Ev, symObjAddr: 0x65A0, symBinAddr: 0x100009B40, symSize: 0x20 }
  - { offsetInCU: 0x1DD65, offset: 0x1DD65, size: 0x8, addend: 0x0, symName: __ZNSt3__122__compressed_pair_elemINS_9allocatorIPNS_16__hash_node_baseIPNS_11__hash_nodeINS_17__hash_value_typeINS_12basic_stringIcNS_11char_traitsIcEENS1_IcEEEEdEEPvEEEEEELi1ELb1EE5__getB7v160006Ev, symObjAddr: 0x65C0, symBinAddr: 0x100009B60, symSize: 0x10 }
  - { offsetInCU: 0x1DD8B, offset: 0x1DD8B, size: 0x8, addend: 0x0, symName: __ZNSt3__117__compressed_pairImNS_9allocatorIPNS_16__hash_node_baseIPNS_11__hash_nodeINS_17__hash_value_typeINS_12basic_stringIcNS_11char_traitsIcEENS1_IcEEEEdEEPvEEEEEEE5firstB7v160006Ev, symObjAddr: 0x65D0, symBinAddr: 0x100009B70, symSize: 0x20 }
  - { offsetInCU: 0x1DDB1, offset: 0x1DDB1, size: 0x8, addend: 0x0, symName: __ZNSt3__122__compressed_pair_elemImLi0ELb0EE5__getB7v160006Ev, symObjAddr: 0x65F0, symBinAddr: 0x100009B90, symSize: 0x10 }
  - { offsetInCU: 0x1DDD7, offset: 0x1DDD7, size: 0x8, addend: 0x0, symName: __ZNSt3__113unordered_mapINS_12basic_stringIcNS_11char_traitsIcEENS_9allocatorIcEEEE9RateCurveNS_4hashIS6_EENS_8equal_toIS6_EENS4_INS_4pairIKS6_S7_EEEEED2B7v160006Ev, symObjAddr: 0x6600, symBinAddr: 0x100009BA0, symSize: 0x20 }
  - { offsetInCU: 0x1DE01, offset: 0x1DE01, size: 0x8, addend: 0x0, symName: __ZNSt3__112__hash_tableINS_17__hash_value_typeINS_12basic_stringIcNS_11char_traitsIcEENS_9allocatorIcEEEE9RateCurveEENS_22__unordered_map_hasherIS7_S9_NS_4hashIS7_EENS_8equal_toIS7_EELb1EEENS_21__unordered_map_equalIS7_S9_SE_SC_Lb1EEENS5_IS9_EEED1Ev, symObjAddr: 0x6620, symBinAddr: 0x100009BC0, symSize: 0x20 }
  - { offsetInCU: 0x1DE2D, offset: 0x1DE2D, size: 0x8, addend: 0x0, symName: __ZNSt3__112__hash_tableINS_17__hash_value_typeINS_12basic_stringIcNS_11char_traitsIcEENS_9allocatorIcEEEE9RateCurveEENS_22__unordered_map_hasherIS7_S9_NS_4hashIS7_EENS_8equal_toIS7_EELb1EEENS_21__unordered_map_equalIS7_S9_SE_SC_Lb1EEENS5_IS9_EEED2Ev, symObjAddr: 0x6640, symBinAddr: 0x100009BE0, symSize: 0x50 }
  - { offsetInCU: 0x1DE59, offset: 0x1DE59, size: 0x8, addend: 0x0, symName: __ZNSt3__112__hash_tableINS_17__hash_value_typeINS_12basic_stringIcNS_11char_traitsIcEENS_9allocatorIcEEEE9RateCurveEENS_22__unordered_map_hasherIS7_S9_NS_4hashIS7_EENS_8equal_toIS7_EELb1EEENS_21__unordered_map_equalIS7_S9_SE_SC_Lb1EEENS5_IS9_EEE17__deallocate_nodeEPNS_16__hash_node_baseIPNS_11__hash_nodeIS9_PvEEEE, symObjAddr: 0x6690, symBinAddr: 0x100009C30, symSize: 0xA0 }
  - { offsetInCU: 0x1DEC3, offset: 0x1DEC3, size: 0x8, addend: 0x0, symName: __ZNSt3__117__compressed_pairINS_16__hash_node_baseIPNS_11__hash_nodeINS_17__hash_value_typeINS_12basic_stringIcNS_11char_traitsIcEENS_9allocatorIcEEEE9RateCurveEEPvEEEENS7_ISD_EEE5firstB7v160006Ev, symObjAddr: 0x6730, symBinAddr: 0x100009CD0, symSize: 0x20 }
  - { offsetInCU: 0x1DEE9, offset: 0x1DEE9, size: 0x8, addend: 0x0, symName: __ZNSt3__110unique_ptrIA_PNS_16__hash_node_baseIPNS_11__hash_nodeINS_17__hash_value_typeINS_12basic_stringIcNS_11char_traitsIcEENS_9allocatorIcEEEE9RateCurveEEPvEEEENS_25__bucket_list_deallocatorINS7_ISG_EEEEED1B7v160006Ev, symObjAddr: 0x6760, symBinAddr: 0x100009D00, symSize: 0x20 }
  - { offsetInCU: 0x1DF13, offset: 0x1DF13, size: 0x8, addend: 0x0, symName: __ZNSt3__112__hash_tableINS_17__hash_value_typeINS_12basic_stringIcNS_11char_traitsIcEENS_9allocatorIcEEEE9RateCurveEENS_22__unordered_map_hasherIS7_S9_NS_4hashIS7_EENS_8equal_toIS7_EELb1EEENS_21__unordered_map_equalIS7_S9_SE_SC_Lb1EEENS5_IS9_EEE12__node_allocB7v160006Ev, symObjAddr: 0x6780, symBinAddr: 0x100009D20, symSize: 0x20 }
  - { offsetInCU: 0x1DF39, offset: 0x1DF39, size: 0x8, addend: 0x0, symName: __ZNSt3__116allocator_traitsINS_9allocatorINS_11__hash_nodeINS_17__hash_value_typeINS_12basic_stringIcNS_11char_traitsIcEENS1_IcEEEE9RateCurveEEPvEEEEE7destroyB7v160006INS_4pairIKS8_S9_EEvvEEvRSD_PT_, symObjAddr: 0x67A0, symBinAddr: 0x100009D40, symSize: 0x20 }
  - { offsetInCU: 0x1DF73, offset: 0x1DF73, size: 0x8, addend: 0x0, symName: __ZNSt3__122__hash_key_value_typesINS_17__hash_value_typeINS_12basic_stringIcNS_11char_traitsIcEENS_9allocatorIcEEEE9RateCurveEEE9__get_ptrB7v160006ERS9_, symObjAddr: 0x67C0, symBinAddr: 0x100009D60, symSize: 0x20 }
  - { offsetInCU: 0x1DF96, offset: 0x1DF96, size: 0x8, addend: 0x0, symName: __ZNSt3__116allocator_traitsINS_9allocatorINS_11__hash_nodeINS_17__hash_value_typeINS_12basic_stringIcNS_11char_traitsIcEENS1_IcEEEE9RateCurveEEPvEEEEE10deallocateB7v160006ERSD_PSC_m, symObjAddr: 0x67E0, symBinAddr: 0x100009D80, symSize: 0x30 }
  - { offsetInCU: 0x1DFD8, offset: 0x1DFD8, size: 0x8, addend: 0x0, symName: __ZNSt3__117__compressed_pairINS_16__hash_node_baseIPNS_11__hash_nodeINS_17__hash_value_typeINS_12basic_stringIcNS_11char_traitsIcEENS_9allocatorIcEEEE9RateCurveEEPvEEEENS7_ISD_EEE6secondB7v160006Ev, symObjAddr: 0x6810, symBinAddr: 0x100009DB0, symSize: 0x20 }
  - { offsetInCU: 0x1DFFE, offset: 0x1DFFE, size: 0x8, addend: 0x0, symName: __ZNSt3__122__compressed_pair_elemINS_9allocatorINS_11__hash_nodeINS_17__hash_value_typeINS_12basic_stringIcNS_11char_traitsIcEENS1_IcEEEE9RateCurveEEPvEEEELi1ELb1EE5__getB7v160006Ev, symObjAddr: 0x6830, symBinAddr: 0x100009DD0, symSize: 0x10 }
  - { offsetInCU: 0x1E024, offset: 0x1E024, size: 0x8, addend: 0x0, symName: __ZNSt3__14pairIKNS_12basic_stringIcNS_11char_traitsIcEENS_9allocatorIcEEEE9RateCurveED1Ev, symObjAddr: 0x6840, symBinAddr: 0x100009DE0, symSize: 0x20 }
  - { offsetInCU: 0x1E050, offset: 0x1E050, size: 0x8, addend: 0x0, symName: __ZNSt3__14pairIKNS_12basic_stringIcNS_11char_traitsIcEENS_9allocatorIcEEEE9RateCurveED2Ev, symObjAddr: 0x6860, symBinAddr: 0x100009E00, symSize: 0x30 }
  - { offsetInCU: 0x1E07C, offset: 0x1E07C, size: 0x8, addend: 0x0, symName: __ZNSt3__117__hash_value_typeINS_12basic_stringIcNS_11char_traitsIcEENS_9allocatorIcEEEE9RateCurveE11__get_valueB7v160006Ev, symObjAddr: 0x6890, symBinAddr: 0x100009E30, symSize: 0x20 }
  - { offsetInCU: 0x1E0A2, offset: 0x1E0A2, size: 0x8, addend: 0x0, symName: __ZNSt3__19allocatorINS_11__hash_nodeINS_17__hash_value_typeINS_12basic_stringIcNS_11char_traitsIcEENS0_IcEEEE9RateCurveEEPvEEE10deallocateB7v160006EPSB_m, symObjAddr: 0x68E0, symBinAddr: 0x100009E80, symSize: 0x40 }
  - { offsetInCU: 0x1E0E4, offset: 0x1E0E4, size: 0x8, addend: 0x0, symName: __ZNSt3__122__compressed_pair_elemINS_16__hash_node_baseIPNS_11__hash_nodeINS_17__hash_value_typeINS_12basic_stringIcNS_11char_traitsIcEENS_9allocatorIcEEEE9RateCurveEEPvEEEELi0ELb0EE5__getB7v160006Ev, symObjAddr: 0x6920, symBinAddr: 0x100009EC0, symSize: 0x10 }
  - { offsetInCU: 0x1E10A, offset: 0x1E10A, size: 0x8, addend: 0x0, symName: __ZNSt3__110unique_ptrIA_PNS_16__hash_node_baseIPNS_11__hash_nodeINS_17__hash_value_typeINS_12basic_stringIcNS_11char_traitsIcEENS_9allocatorIcEEEE9RateCurveEEPvEEEENS_25__bucket_list_deallocatorINS7_ISG_EEEEED2B7v160006Ev, symObjAddr: 0x6930, symBinAddr: 0x100009ED0, symSize: 0x20 }
  - { offsetInCU: 0x1E134, offset: 0x1E134, size: 0x8, addend: 0x0, symName: __ZNSt3__110unique_ptrIA_PNS_16__hash_node_baseIPNS_11__hash_nodeINS_17__hash_value_typeINS_12basic_stringIcNS_11char_traitsIcEENS_9allocatorIcEEEE9RateCurveEEPvEEEENS_25__bucket_list_deallocatorINS7_ISG_EEEEE5resetB7v160006EDn, symObjAddr: 0x6950, symBinAddr: 0x100009EF0, symSize: 0x60 }
  - { offsetInCU: 0x1E174, offset: 0x1E174, size: 0x8, addend: 0x0, symName: __ZNSt3__117__compressed_pairIPPNS_16__hash_node_baseIPNS_11__hash_nodeINS_17__hash_value_typeINS_12basic_stringIcNS_11char_traitsIcEENS_9allocatorIcEEEE9RateCurveEEPvEEEENS_25__bucket_list_deallocatorINS7_ISG_EEEEE5firstB7v160006Ev, symObjAddr: 0x69B0, symBinAddr: 0x100009F50, symSize: 0x20 }
  - { offsetInCU: 0x1E19A, offset: 0x1E19A, size: 0x8, addend: 0x0, symName: __ZNSt3__117__compressed_pairIPPNS_16__hash_node_baseIPNS_11__hash_nodeINS_17__hash_value_typeINS_12basic_stringIcNS_11char_traitsIcEENS_9allocatorIcEEEE9RateCurveEEPvEEEENS_25__bucket_list_deallocatorINS7_ISG_EEEEE6secondB7v160006Ev, symObjAddr: 0x69D0, symBinAddr: 0x100009F70, symSize: 0x20 }
  - { offsetInCU: 0x1E1C0, offset: 0x1E1C0, size: 0x8, addend: 0x0, symName: __ZNSt3__125__bucket_list_deallocatorINS_9allocatorIPNS_16__hash_node_baseIPNS_11__hash_nodeINS_17__hash_value_typeINS_12basic_stringIcNS_11char_traitsIcEENS1_IcEEEE9RateCurveEEPvEEEEEEEclB7v160006EPSG_, symObjAddr: 0x69F0, symBinAddr: 0x100009F90, symSize: 0x50 }
  - { offsetInCU: 0x1E1F5, offset: 0x1E1F5, size: 0x8, addend: 0x0, symName: __ZNSt3__122__compressed_pair_elemIPPNS_16__hash_node_baseIPNS_11__hash_nodeINS_17__hash_value_typeINS_12basic_stringIcNS_11char_traitsIcEENS_9allocatorIcEEEE9RateCurveEEPvEEEELi0ELb0EE5__getB7v160006Ev, symObjAddr: 0x6A40, symBinAddr: 0x100009FE0, symSize: 0x10 }
  - { offsetInCU: 0x1E21B, offset: 0x1E21B, size: 0x8, addend: 0x0, symName: __ZNSt3__122__compressed_pair_elemINS_25__bucket_list_deallocatorINS_9allocatorIPNS_16__hash_node_baseIPNS_11__hash_nodeINS_17__hash_value_typeINS_12basic_stringIcNS_11char_traitsIcEENS2_IcEEEE9RateCurveEEPvEEEEEEEELi1ELb0EE5__getB7v160006Ev, symObjAddr: 0x6A50, symBinAddr: 0x100009FF0, symSize: 0x10 }
  - { offsetInCU: 0x1E241, offset: 0x1E241, size: 0x8, addend: 0x0, symName: __ZNSt3__116allocator_traitsINS_9allocatorIPNS_16__hash_node_baseIPNS_11__hash_nodeINS_17__hash_value_typeINS_12basic_stringIcNS_11char_traitsIcEENS1_IcEEEE9RateCurveEEPvEEEEEEE10deallocateB7v160006ERSH_PSG_m, symObjAddr: 0x6A60, symBinAddr: 0x10000A000, symSize: 0x30 }
  - { offsetInCU: 0x1E283, offset: 0x1E283, size: 0x8, addend: 0x0, symName: __ZNSt3__125__bucket_list_deallocatorINS_9allocatorIPNS_16__hash_node_baseIPNS_11__hash_nodeINS_17__hash_value_typeINS_12basic_stringIcNS_11char_traitsIcEENS1_IcEEEE9RateCurveEEPvEEEEEEE7__allocB7v160006Ev, symObjAddr: 0x6A90, symBinAddr: 0x10000A030, symSize: 0x20 }
  - { offsetInCU: 0x1E2A9, offset: 0x1E2A9, size: 0x8, addend: 0x0, symName: __ZNSt3__125__bucket_list_deallocatorINS_9allocatorIPNS_16__hash_node_baseIPNS_11__hash_nodeINS_17__hash_value_typeINS_12basic_stringIcNS_11char_traitsIcEENS1_IcEEEE9RateCurveEEPvEEEEEEE4sizeB7v160006Ev, symObjAddr: 0x6AB0, symBinAddr: 0x10000A050, symSize: 0x20 }
  - { offsetInCU: 0x1E2CF, offset: 0x1E2CF, size: 0x8, addend: 0x0, symName: __ZNSt3__19allocatorIPNS_16__hash_node_baseIPNS_11__hash_nodeINS_17__hash_value_typeINS_12basic_stringIcNS_11char_traitsIcEENS0_IcEEEE9RateCurveEEPvEEEEE10deallocateB7v160006EPSF_m, symObjAddr: 0x6AD0, symBinAddr: 0x10000A070, symSize: 0x40 }
  - { offsetInCU: 0x1E311, offset: 0x1E311, size: 0x8, addend: 0x0, symName: __ZNSt3__117__compressed_pairImNS_9allocatorIPNS_16__hash_node_baseIPNS_11__hash_nodeINS_17__hash_value_typeINS_12basic_stringIcNS_11char_traitsIcEENS1_IcEEEE9RateCurveEEPvEEEEEEE6secondB7v160006Ev, symObjAddr: 0x6B10, symBinAddr: 0x10000A0B0, symSize: 0x20 }
  - { offsetInCU: 0x1E337, offset: 0x1E337, size: 0x8, addend: 0x0, symName: __ZNSt3__122__compressed_pair_elemINS_9allocatorIPNS_16__hash_node_baseIPNS_11__hash_nodeINS_17__hash_value_typeINS_12basic_stringIcNS_11char_traitsIcEENS1_IcEEEE9RateCurveEEPvEEEEEELi1ELb1EE5__getB7v160006Ev, symObjAddr: 0x6B30, symBinAddr: 0x10000A0D0, symSize: 0x10 }
  - { offsetInCU: 0x1E35D, offset: 0x1E35D, size: 0x8, addend: 0x0, symName: __ZNSt3__117__compressed_pairImNS_9allocatorIPNS_16__hash_node_baseIPNS_11__hash_nodeINS_17__hash_value_typeINS_12basic_stringIcNS_11char_traitsIcEENS1_IcEEEE9RateCurveEEPvEEEEEEE5firstB7v160006Ev, symObjAddr: 0x6B40, symBinAddr: 0x10000A0E0, symSize: 0x20 }
  - { offsetInCU: 0x1E383, offset: 0x1E383, size: 0x8, addend: 0x0, symName: __ZNSt3__113unordered_mapINS_12basic_stringIcNS_11char_traitsIcEENS_9allocatorIcEEEE8VolCurveNS_4hashIS6_EENS_8equal_toIS6_EENS4_INS_4pairIKS6_S7_EEEEED2B7v160006Ev, symObjAddr: 0x6B60, symBinAddr: 0x10000A100, symSize: 0x20 }
  - { offsetInCU: 0x1E3AD, offset: 0x1E3AD, size: 0x8, addend: 0x0, symName: __ZNSt3__112__hash_tableINS_17__hash_value_typeINS_12basic_stringIcNS_11char_traitsIcEENS_9allocatorIcEEEE8VolCurveEENS_22__unordered_map_hasherIS7_S9_NS_4hashIS7_EENS_8equal_toIS7_EELb1EEENS_21__unordered_map_equalIS7_S9_SE_SC_Lb1EEENS5_IS9_EEED1Ev, symObjAddr: 0x6B80, symBinAddr: 0x10000A120, symSize: 0x20 }
  - { offsetInCU: 0x1E3D9, offset: 0x1E3D9, size: 0x8, addend: 0x0, symName: __ZNSt3__112__hash_tableINS_17__hash_value_typeINS_12basic_stringIcNS_11char_traitsIcEENS_9allocatorIcEEEE8VolCurveEENS_22__unordered_map_hasherIS7_S9_NS_4hashIS7_EENS_8equal_toIS7_EELb1EEENS_21__unordered_map_equalIS7_S9_SE_SC_Lb1EEENS5_IS9_EEED2Ev, symObjAddr: 0x6BA0, symBinAddr: 0x10000A140, symSize: 0x50 }
  - { offsetInCU: 0x1E405, offset: 0x1E405, size: 0x8, addend: 0x0, symName: __ZNSt3__112__hash_tableINS_17__hash_value_typeINS_12basic_stringIcNS_11char_traitsIcEENS_9allocatorIcEEEE8VolCurveEENS_22__unordered_map_hasherIS7_S9_NS_4hashIS7_EENS_8equal_toIS7_EELb1EEENS_21__unordered_map_equalIS7_S9_SE_SC_Lb1EEENS5_IS9_EEE17__deallocate_nodeEPNS_16__hash_node_baseIPNS_11__hash_nodeIS9_PvEEEE, symObjAddr: 0x6BF0, symBinAddr: 0x10000A190, symSize: 0xA0 }
  - { offsetInCU: 0x1E46F, offset: 0x1E46F, size: 0x8, addend: 0x0, symName: __ZNSt3__117__compressed_pairINS_16__hash_node_baseIPNS_11__hash_nodeINS_17__hash_value_typeINS_12basic_stringIcNS_11char_traitsIcEENS_9allocatorIcEEEE8VolCurveEEPvEEEENS7_ISD_EEE5firstB7v160006Ev, symObjAddr: 0x6C90, symBinAddr: 0x10000A230, symSize: 0x20 }
  - { offsetInCU: 0x1E495, offset: 0x1E495, size: 0x8, addend: 0x0, symName: __ZNSt3__110unique_ptrIA_PNS_16__hash_node_baseIPNS_11__hash_nodeINS_17__hash_value_typeINS_12basic_stringIcNS_11char_traitsIcEENS_9allocatorIcEEEE8VolCurveEEPvEEEENS_25__bucket_list_deallocatorINS7_ISG_EEEEED1B7v160006Ev, symObjAddr: 0x6CC0, symBinAddr: 0x10000A260, symSize: 0x20 }
  - { offsetInCU: 0x1E4BF, offset: 0x1E4BF, size: 0x8, addend: 0x0, symName: __ZNSt3__112__hash_tableINS_17__hash_value_typeINS_12basic_stringIcNS_11char_traitsIcEENS_9allocatorIcEEEE8VolCurveEENS_22__unordered_map_hasherIS7_S9_NS_4hashIS7_EENS_8equal_toIS7_EELb1EEENS_21__unordered_map_equalIS7_S9_SE_SC_Lb1EEENS5_IS9_EEE12__node_allocB7v160006Ev, symObjAddr: 0x6CE0, symBinAddr: 0x10000A280, symSize: 0x20 }
  - { offsetInCU: 0x1E4E5, offset: 0x1E4E5, size: 0x8, addend: 0x0, symName: __ZNSt3__116allocator_traitsINS_9allocatorINS_11__hash_nodeINS_17__hash_value_typeINS_12basic_stringIcNS_11char_traitsIcEENS1_IcEEEE8VolCurveEEPvEEEEE7destroyB7v160006INS_4pairIKS8_S9_EEvvEEvRSD_PT_, symObjAddr: 0x6D00, symBinAddr: 0x10000A2A0, symSize: 0x20 }
  - { offsetInCU: 0x1E51F, offset: 0x1E51F, size: 0x8, addend: 0x0, symName: __ZNSt3__122__hash_key_value_typesINS_17__hash_value_typeINS_12basic_stringIcNS_11char_traitsIcEENS_9allocatorIcEEEE8VolCurveEEE9__get_ptrB7v160006ERS9_, symObjAddr: 0x6D20, symBinAddr: 0x10000A2C0, symSize: 0x20 }
  - { offsetInCU: 0x1E542, offset: 0x1E542, size: 0x8, addend: 0x0, symName: __ZNSt3__116allocator_traitsINS_9allocatorINS_11__hash_nodeINS_17__hash_value_typeINS_12basic_stringIcNS_11char_traitsIcEENS1_IcEEEE8VolCurveEEPvEEEEE10deallocateB7v160006ERSD_PSC_m, symObjAddr: 0x6D40, symBinAddr: 0x10000A2E0, symSize: 0x30 }
  - { offsetInCU: 0x1E584, offset: 0x1E584, size: 0x8, addend: 0x0, symName: __ZNSt3__117__compressed_pairINS_16__hash_node_baseIPNS_11__hash_nodeINS_17__hash_value_typeINS_12basic_stringIcNS_11char_traitsIcEENS_9allocatorIcEEEE8VolCurveEEPvEEEENS7_ISD_EEE6secondB7v160006Ev, symObjAddr: 0x6D70, symBinAddr: 0x10000A310, symSize: 0x20 }
  - { offsetInCU: 0x1E5AA, offset: 0x1E5AA, size: 0x8, addend: 0x0, symName: __ZNSt3__122__compressed_pair_elemINS_9allocatorINS_11__hash_nodeINS_17__hash_value_typeINS_12basic_stringIcNS_11char_traitsIcEENS1_IcEEEE8VolCurveEEPvEEEELi1ELb1EE5__getB7v160006Ev, symObjAddr: 0x6D90, symBinAddr: 0x10000A330, symSize: 0x10 }
  - { offsetInCU: 0x1E5D0, offset: 0x1E5D0, size: 0x8, addend: 0x0, symName: __ZNSt3__14pairIKNS_12basic_stringIcNS_11char_traitsIcEENS_9allocatorIcEEEE8VolCurveED1Ev, symObjAddr: 0x6DA0, symBinAddr: 0x10000A340, symSize: 0x20 }
  - { offsetInCU: 0x1E5FC, offset: 0x1E5FC, size: 0x8, addend: 0x0, symName: __ZNSt3__14pairIKNS_12basic_stringIcNS_11char_traitsIcEENS_9allocatorIcEEEE8VolCurveED2Ev, symObjAddr: 0x6DC0, symBinAddr: 0x10000A360, symSize: 0x30 }
  - { offsetInCU: 0x1E628, offset: 0x1E628, size: 0x8, addend: 0x0, symName: __ZNSt3__117__hash_value_typeINS_12basic_stringIcNS_11char_traitsIcEENS_9allocatorIcEEEE8VolCurveE11__get_valueB7v160006Ev, symObjAddr: 0x6DF0, symBinAddr: 0x10000A390, symSize: 0x20 }
  - { offsetInCU: 0x1E64E, offset: 0x1E64E, size: 0x8, addend: 0x0, symName: __ZNSt3__19allocatorINS_11__hash_nodeINS_17__hash_value_typeINS_12basic_stringIcNS_11char_traitsIcEENS0_IcEEEE8VolCurveEEPvEEE10deallocateB7v160006EPSB_m, symObjAddr: 0x6E40, symBinAddr: 0x10000A3E0, symSize: 0x40 }
  - { offsetInCU: 0x1E690, offset: 0x1E690, size: 0x8, addend: 0x0, symName: __ZNSt3__122__compressed_pair_elemINS_16__hash_node_baseIPNS_11__hash_nodeINS_17__hash_value_typeINS_12basic_stringIcNS_11char_traitsIcEENS_9allocatorIcEEEE8VolCurveEEPvEEEELi0ELb0EE5__getB7v160006Ev, symObjAddr: 0x6E80, symBinAddr: 0x10000A420, symSize: 0x10 }
  - { offsetInCU: 0x1E6B6, offset: 0x1E6B6, size: 0x8, addend: 0x0, symName: __ZNSt3__110unique_ptrIA_PNS_16__hash_node_baseIPNS_11__hash_nodeINS_17__hash_value_typeINS_12basic_stringIcNS_11char_traitsIcEENS_9allocatorIcEEEE8VolCurveEEPvEEEENS_25__bucket_list_deallocatorINS7_ISG_EEEEED2B7v160006Ev, symObjAddr: 0x6E90, symBinAddr: 0x10000A430, symSize: 0x20 }
  - { offsetInCU: 0x1E6E0, offset: 0x1E6E0, size: 0x8, addend: 0x0, symName: __ZNSt3__110unique_ptrIA_PNS_16__hash_node_baseIPNS_11__hash_nodeINS_17__hash_value_typeINS_12basic_stringIcNS_11char_traitsIcEENS_9allocatorIcEEEE8VolCurveEEPvEEEENS_25__bucket_list_deallocatorINS7_ISG_EEEEE5resetB7v160006EDn, symObjAddr: 0x6EB0, symBinAddr: 0x10000A450, symSize: 0x60 }
  - { offsetInCU: 0x1E720, offset: 0x1E720, size: 0x8, addend: 0x0, symName: __ZNSt3__117__compressed_pairIPPNS_16__hash_node_baseIPNS_11__hash_nodeINS_17__hash_value_typeINS_12basic_stringIcNS_11char_traitsIcEENS_9allocatorIcEEEE8VolCurveEEPvEEEENS_25__bucket_list_deallocatorINS7_ISG_EEEEE5firstB7v160006Ev, symObjAddr: 0x6F10, symBinAddr: 0x10000A4B0, symSize: 0x20 }
  - { offsetInCU: 0x1E746, offset: 0x1E746, size: 0x8, addend: 0x0, symName: __ZNSt3__117__compressed_pairIPPNS_16__hash_node_baseIPNS_11__hash_nodeINS_17__hash_value_typeINS_12basic_stringIcNS_11char_traitsIcEENS_9allocatorIcEEEE8VolCurveEEPvEEEENS_25__bucket_list_deallocatorINS7_ISG_EEEEE6secondB7v160006Ev, symObjAddr: 0x6F30, symBinAddr: 0x10000A4D0, symSize: 0x20 }
  - { offsetInCU: 0x1E76C, offset: 0x1E76C, size: 0x8, addend: 0x0, symName: __ZNSt3__125__bucket_list_deallocatorINS_9allocatorIPNS_16__hash_node_baseIPNS_11__hash_nodeINS_17__hash_value_typeINS_12basic_stringIcNS_11char_traitsIcEENS1_IcEEEE8VolCurveEEPvEEEEEEEclB7v160006EPSG_, symObjAddr: 0x6F50, symBinAddr: 0x10000A4F0, symSize: 0x50 }
  - { offsetInCU: 0x1E7A1, offset: 0x1E7A1, size: 0x8, addend: 0x0, symName: __ZNSt3__122__compressed_pair_elemIPPNS_16__hash_node_baseIPNS_11__hash_nodeINS_17__hash_value_typeINS_12basic_stringIcNS_11char_traitsIcEENS_9allocatorIcEEEE8VolCurveEEPvEEEELi0ELb0EE5__getB7v160006Ev, symObjAddr: 0x6FA0, symBinAddr: 0x10000A540, symSize: 0x10 }
  - { offsetInCU: 0x1E7C7, offset: 0x1E7C7, size: 0x8, addend: 0x0, symName: __ZNSt3__122__compressed_pair_elemINS_25__bucket_list_deallocatorINS_9allocatorIPNS_16__hash_node_baseIPNS_11__hash_nodeINS_17__hash_value_typeINS_12basic_stringIcNS_11char_traitsIcEENS2_IcEEEE8VolCurveEEPvEEEEEEEELi1ELb0EE5__getB7v160006Ev, symObjAddr: 0x6FB0, symBinAddr: 0x10000A550, symSize: 0x10 }
  - { offsetInCU: 0x1E7ED, offset: 0x1E7ED, size: 0x8, addend: 0x0, symName: __ZNSt3__116allocator_traitsINS_9allocatorIPNS_16__hash_node_baseIPNS_11__hash_nodeINS_17__hash_value_typeINS_12basic_stringIcNS_11char_traitsIcEENS1_IcEEEE8VolCurveEEPvEEEEEEE10deallocateB7v160006ERSH_PSG_m, symObjAddr: 0x6FC0, symBinAddr: 0x10000A560, symSize: 0x30 }
  - { offsetInCU: 0x1E82F, offset: 0x1E82F, size: 0x8, addend: 0x0, symName: __ZNSt3__125__bucket_list_deallocatorINS_9allocatorIPNS_16__hash_node_baseIPNS_11__hash_nodeINS_17__hash_value_typeINS_12basic_stringIcNS_11char_traitsIcEENS1_IcEEEE8VolCurveEEPvEEEEEEE7__allocB7v160006Ev, symObjAddr: 0x6FF0, symBinAddr: 0x10000A590, symSize: 0x20 }
  - { offsetInCU: 0x1E855, offset: 0x1E855, size: 0x8, addend: 0x0, symName: __ZNSt3__125__bucket_list_deallocatorINS_9allocatorIPNS_16__hash_node_baseIPNS_11__hash_nodeINS_17__hash_value_typeINS_12basic_stringIcNS_11char_traitsIcEENS1_IcEEEE8VolCurveEEPvEEEEEEE4sizeB7v160006Ev, symObjAddr: 0x7010, symBinAddr: 0x10000A5B0, symSize: 0x20 }
  - { offsetInCU: 0x1E87B, offset: 0x1E87B, size: 0x8, addend: 0x0, symName: __ZNSt3__19allocatorIPNS_16__hash_node_baseIPNS_11__hash_nodeINS_17__hash_value_typeINS_12basic_stringIcNS_11char_traitsIcEENS0_IcEEEE8VolCurveEEPvEEEEE10deallocateB7v160006EPSF_m, symObjAddr: 0x7030, symBinAddr: 0x10000A5D0, symSize: 0x40 }
  - { offsetInCU: 0x1E8BD, offset: 0x1E8BD, size: 0x8, addend: 0x0, symName: __ZNSt3__117__compressed_pairImNS_9allocatorIPNS_16__hash_node_baseIPNS_11__hash_nodeINS_17__hash_value_typeINS_12basic_stringIcNS_11char_traitsIcEENS1_IcEEEE8VolCurveEEPvEEEEEEE6secondB7v160006Ev, symObjAddr: 0x7070, symBinAddr: 0x10000A610, symSize: 0x20 }
  - { offsetInCU: 0x1E8E3, offset: 0x1E8E3, size: 0x8, addend: 0x0, symName: __ZNSt3__122__compressed_pair_elemINS_9allocatorIPNS_16__hash_node_baseIPNS_11__hash_nodeINS_17__hash_value_typeINS_12basic_stringIcNS_11char_traitsIcEENS1_IcEEEE8VolCurveEEPvEEEEEELi1ELb1EE5__getB7v160006Ev, symObjAddr: 0x7090, symBinAddr: 0x10000A630, symSize: 0x10 }
  - { offsetInCU: 0x1E909, offset: 0x1E909, size: 0x8, addend: 0x0, symName: __ZNSt3__117__compressed_pairImNS_9allocatorIPNS_16__hash_node_baseIPNS_11__hash_nodeINS_17__hash_value_typeINS_12basic_stringIcNS_11char_traitsIcEENS1_IcEEEE8VolCurveEEPvEEEEEEE5firstB7v160006Ev, symObjAddr: 0x70A0, symBinAddr: 0x10000A640, symSize: 0x20 }
  - { offsetInCU: 0x1E92F, offset: 0x1E92F, size: 0x8, addend: 0x0, symName: __ZNSt3__113unordered_mapINS_12basic_stringIcNS_11char_traitsIcEENS_9allocatorIcEEEE9RateCurveNS_4hashIS6_EENS_8equal_toIS6_EENS4_INS_4pairIKS6_S7_EEEEEixERSD_, symObjAddr: 0x70C0, symBinAddr: 0x10000A660, symSize: 0x70 }
  - { offsetInCU: 0x1E97A, offset: 0x1E97A, size: 0x8, addend: 0x0, symName: __ZNSt3__112__hash_tableINS_17__hash_value_typeINS_12basic_stringIcNS_11char_traitsIcEENS_9allocatorIcEEEE9RateCurveEENS_22__unordered_map_hasherIS7_S9_NS_4hashIS7_EENS_8equal_toIS7_EELb1EEENS_21__unordered_map_equalIS7_S9_SE_SC_Lb1EEENS5_IS9_EEE25__emplace_unique_key_argsIS7_JRKNS_21piecewise_construct_tENS_5tupleIJRKS7_EEENSO_IJEEEEEENS_4pairINS_15__hash_iteratorIPNS_11__hash_nodeIS9_PvEEEEbEERKT_DpOT0_, symObjAddr: 0x7130, symBinAddr: 0x10000A6D0, symSize: 0x650 }
  - { offsetInCU: 0x1EA82, offset: 0x1EA82, size: 0x8, addend: 0x0, symName: __ZNKSt3__115__hash_iteratorIPNS_11__hash_nodeINS_17__hash_value_typeINS_12basic_stringIcNS_11char_traitsIcEENS_9allocatorIcEEEE9RateCurveEEPvEEEptB7v160006Ev, symObjAddr: 0x77C0, symBinAddr: 0x10000AD60, symSize: 0x30 }
  - { offsetInCU: 0x1EAA8, offset: 0x1EAA8, size: 0x8, addend: 0x0, symName: __ZNSt3__112__hash_tableINS_17__hash_value_typeINS_12basic_stringIcNS_11char_traitsIcEENS_9allocatorIcEEEE9RateCurveEENS_22__unordered_map_hasherIS7_S9_NS_4hashIS7_EENS_8equal_toIS7_EELb1EEENS_21__unordered_map_equalIS7_S9_SE_SC_Lb1EEENS5_IS9_EEE13hash_functionB7v160006Ev, symObjAddr: 0x77F0, symBinAddr: 0x10000AD90, symSize: 0x20 }
  - { offsetInCU: 0x1EACE, offset: 0x1EACE, size: 0x8, addend: 0x0, symName: __ZNKSt3__122__unordered_map_hasherINS_12basic_stringIcNS_11char_traitsIcEENS_9allocatorIcEEEENS_17__hash_value_typeIS6_9RateCurveEENS_4hashIS6_EENS_8equal_toIS6_EELb1EEclB7v160006ERKS6_, symObjAddr: 0x7810, symBinAddr: 0x10000ADB0, symSize: 0x30 }
  - { offsetInCU: 0x1EB03, offset: 0x1EB03, size: 0x8, addend: 0x0, symName: __ZNKSt3__112__hash_tableINS_17__hash_value_typeINS_12basic_stringIcNS_11char_traitsIcEENS_9allocatorIcEEEE9RateCurveEENS_22__unordered_map_hasherIS7_S9_NS_4hashIS7_EENS_8equal_toIS7_EELb1EEENS_21__unordered_map_equalIS7_S9_SE_SC_Lb1EEENS5_IS9_EEE12bucket_countB7v160006Ev, symObjAddr: 0x7840, symBinAddr: 0x10000ADE0, symSize: 0x30 }
  - { offsetInCU: 0x1EB29, offset: 0x1EB29, size: 0x8, addend: 0x0, symName: __ZNKSt3__110unique_ptrIA_PNS_16__hash_node_baseIPNS_11__hash_nodeINS_17__hash_value_typeINS_12basic_stringIcNS_11char_traitsIcEENS_9allocatorIcEEEE9RateCurveEEPvEEEENS_25__bucket_list_deallocatorINS7_ISG_EEEEEixB7v160006Em, symObjAddr: 0x78F0, symBinAddr: 0x10000AE90, symSize: 0x30 }
  - { offsetInCU: 0x1EB5E, offset: 0x1EB5E, size: 0x8, addend: 0x0, symName: __ZNKSt3__116__hash_node_baseIPNS_11__hash_nodeINS_17__hash_value_typeINS_12basic_stringIcNS_11char_traitsIcEENS_9allocatorIcEEEE9RateCurveEEPvEEE6__hashB7v160006Ev, symObjAddr: 0x7920, symBinAddr: 0x10000AEC0, symSize: 0x20 }
  - { offsetInCU: 0x1EB84, offset: 0x1EB84, size: 0x8, addend: 0x0, symName: __ZNSt3__112__hash_tableINS_17__hash_value_typeINS_12basic_stringIcNS_11char_traitsIcEENS_9allocatorIcEEEE9RateCurveEENS_22__unordered_map_hasherIS7_S9_NS_4hashIS7_EENS_8equal_toIS7_EELb1EEENS_21__unordered_map_equalIS7_S9_SE_SC_Lb1EEENS5_IS9_EEE6key_eqB7v160006Ev, symObjAddr: 0x7940, symBinAddr: 0x10000AEE0, symSize: 0x20 }
  - { offsetInCU: 0x1EBAA, offset: 0x1EBAA, size: 0x8, addend: 0x0, symName: __ZNKSt3__121__unordered_map_equalINS_12basic_stringIcNS_11char_traitsIcEENS_9allocatorIcEEEENS_17__hash_value_typeIS6_9RateCurveEENS_8equal_toIS6_EENS_4hashIS6_EELb1EEclB7v160006ERKS9_RKS6_, symObjAddr: 0x7960, symBinAddr: 0x10000AF00, symSize: 0x40 }
  - { offsetInCU: 0x1EBEE, offset: 0x1EBEE, size: 0x8, addend: 0x0, symName: __ZNSt3__112__hash_tableINS_17__hash_value_typeINS_12basic_stringIcNS_11char_traitsIcEENS_9allocatorIcEEEE9RateCurveEENS_22__unordered_map_hasherIS7_S9_NS_4hashIS7_EENS_8equal_toIS7_EELb1EEENS_21__unordered_map_equalIS7_S9_SE_SC_Lb1EEENS5_IS9_EEE21__construct_node_hashIRKNS_21piecewise_construct_tEJNS_5tupleIJRKS7_EEENSO_IJEEEEEENS_10unique_ptrINS_11__hash_nodeIS9_PvEENS_22__hash_node_destructorINS5_ISW_EEEEEEmOT_DpOT0_, symObjAddr: 0x79A0, symBinAddr: 0x10000AF40, symSize: 0x150 }
  - { offsetInCU: 0x1EC8A, offset: 0x1EC8A, size: 0x8, addend: 0x0, symName: __ZNSt3__112__hash_tableINS_17__hash_value_typeINS_12basic_stringIcNS_11char_traitsIcEENS_9allocatorIcEEEE9RateCurveEENS_22__unordered_map_hasherIS7_S9_NS_4hashIS7_EENS_8equal_toIS7_EELb1EEENS_21__unordered_map_equalIS7_S9_SE_SC_Lb1EEENS5_IS9_EEE4sizeB7v160006Ev, symObjAddr: 0x7AF0, symBinAddr: 0x10000B090, symSize: 0x20 }
  - { offsetInCU: 0x1ECB0, offset: 0x1ECB0, size: 0x8, addend: 0x0, symName: __ZNSt3__112__hash_tableINS_17__hash_value_typeINS_12basic_stringIcNS_11char_traitsIcEENS_9allocatorIcEEEE9RateCurveEENS_22__unordered_map_hasherIS7_S9_NS_4hashIS7_EENS_8equal_toIS7_EELb1EEENS_21__unordered_map_equalIS7_S9_SE_SC_Lb1EEENS5_IS9_EEE15max_load_factorB7v160006Ev, symObjAddr: 0x7B10, symBinAddr: 0x10000B0B0, symSize: 0x20 }
  - { offsetInCU: 0x1ECD6, offset: 0x1ECD6, size: 0x8, addend: 0x0, symName: __ZNSt3__112__hash_tableINS_17__hash_value_typeINS_12basic_stringIcNS_11char_traitsIcEENS_9allocatorIcEEEE9RateCurveEENS_22__unordered_map_hasherIS7_S9_NS_4hashIS7_EENS_8equal_toIS7_EELb1EEENS_21__unordered_map_equalIS7_S9_SE_SC_Lb1EEENS5_IS9_EEE15__rehash_uniqueB7v160006Em, symObjAddr: 0x7B30, symBinAddr: 0x10000B0D0, symSize: 0x30 }
  - { offsetInCU: 0x1ED0A, offset: 0x1ED0A, size: 0x8, addend: 0x0, symName: __Z4ceilB7v160006f, symObjAddr: 0x7BD0, symBinAddr: 0x10000B170, symSize: 0x20 }
  - { offsetInCU: 0x1ED39, offset: 0x1ED39, size: 0x8, addend: 0x0, symName: __ZNSt3__116__hash_node_baseIPNS_11__hash_nodeINS_17__hash_value_typeINS_12basic_stringIcNS_11char_traitsIcEENS_9allocatorIcEEEE9RateCurveEEPvEEE5__ptrB7v160006Ev, symObjAddr: 0x7BF0, symBinAddr: 0x10000B190, symSize: 0x20 }
  - { offsetInCU: 0x1ED5F, offset: 0x1ED5F, size: 0x8, addend: 0x0, symName: __ZNKSt3__110unique_ptrINS_11__hash_nodeINS_17__hash_value_typeINS_12basic_stringIcNS_11char_traitsIcEENS_9allocatorIcEEEE9RateCurveEEPvEENS_22__hash_node_destructorINS6_ISC_EEEEEptB7v160006Ev, symObjAddr: 0x7C10, symBinAddr: 0x10000B1B0, symSize: 0x20 }
  - { offsetInCU: 0x1ED85, offset: 0x1ED85, size: 0x8, addend: 0x0, symName: __ZNKSt3__110unique_ptrINS_11__hash_nodeINS_17__hash_value_typeINS_12basic_stringIcNS_11char_traitsIcEENS_9allocatorIcEEEE9RateCurveEEPvEENS_22__hash_node_destructorINS6_ISC_EEEEE3getB7v160006Ev, symObjAddr: 0x7C30, symBinAddr: 0x10000B1D0, symSize: 0x20 }
  - { offsetInCU: 0x1EDAB, offset: 0x1EDAB, size: 0x8, addend: 0x0, symName: __ZNSt3__110unique_ptrINS_11__hash_nodeINS_17__hash_value_typeINS_12basic_stringIcNS_11char_traitsIcEENS_9allocatorIcEEEE9RateCurveEEPvEENS_22__hash_node_destructorINS6_ISC_EEEEE7releaseB7v160006Ev, symObjAddr: 0x7C50, symBinAddr: 0x10000B1F0, symSize: 0x40 }
  - { offsetInCU: 0x1EDE0, offset: 0x1EDE0, size: 0x8, addend: 0x0, symName: __ZNSt3__110unique_ptrINS_11__hash_nodeINS_17__hash_value_typeINS_12basic_stringIcNS_11char_traitsIcEENS_9allocatorIcEEEE9RateCurveEEPvEENS_22__hash_node_destructorINS6_ISC_EEEEED1B7v160006Ev, symObjAddr: 0x7C90, symBinAddr: 0x10000B230, symSize: 0x20 }
  - { offsetInCU: 0x1EE0A, offset: 0x1EE0A, size: 0x8, addend: 0x0, symName: __ZNSt3__115__hash_iteratorIPNS_11__hash_nodeINS_17__hash_value_typeINS_12basic_stringIcNS_11char_traitsIcEENS_9allocatorIcEEEE9RateCurveEEPvEEEC1B7v160006EPNS_16__hash_node_baseISD_EEPKv, symObjAddr: 0x7CB0, symBinAddr: 0x10000B250, symSize: 0x30 }
  - { offsetInCU: 0x1EE5C, offset: 0x1EE5C, size: 0x8, addend: 0x0, symName: __ZNSt3__14pairINS_15__hash_iteratorIPNS_11__hash_nodeINS_17__hash_value_typeINS_12basic_stringIcNS_11char_traitsIcEENS_9allocatorIcEEEE9RateCurveEEPvEEEEbEC1B7v160006ISF_RbLSC_0EEEOT_OT0_, symObjAddr: 0x7CE0, symBinAddr: 0x10000B280, symSize: 0x30 }
  - { offsetInCU: 0x1EEBA, offset: 0x1EEBA, size: 0x8, addend: 0x0, symName: __ZNSt3__117__compressed_pairImNS_22__unordered_map_hasherINS_12basic_stringIcNS_11char_traitsIcEENS_9allocatorIcEEEENS_17__hash_value_typeIS7_9RateCurveEENS_4hashIS7_EENS_8equal_toIS7_EELb1EEEE6secondB7v160006Ev, symObjAddr: 0x7D10, symBinAddr: 0x10000B2B0, symSize: 0x20 }
  - { offsetInCU: 0x1EEE0, offset: 0x1EEE0, size: 0x8, addend: 0x0, symName: __ZNSt3__122__compressed_pair_elemINS_22__unordered_map_hasherINS_12basic_stringIcNS_11char_traitsIcEENS_9allocatorIcEEEENS_17__hash_value_typeIS7_9RateCurveEENS_4hashIS7_EENS_8equal_toIS7_EELb1EEELi1ELb1EE5__getB7v160006Ev, symObjAddr: 0x7D30, symBinAddr: 0x10000B2D0, symSize: 0x10 }
  - { offsetInCU: 0x1EF06, offset: 0x1EF06, size: 0x8, addend: 0x0, symName: __ZNKSt3__113__string_hashIcNS_9allocatorIcEEEclERKNS_12basic_stringIcNS_11char_traitsIcEES2_EE, symObjAddr: 0x7D40, symBinAddr: 0x10000B2E0, symSize: 0x60 }
  - { offsetInCU: 0x1EF3B, offset: 0x1EF3B, size: 0x8, addend: 0x0, symName: __ZNSt3__121__murmur2_or_cityhashImLm64EEclEPKvm, symObjAddr: 0x7DE0, symBinAddr: 0x10000B380, symSize: 0x3D0 }
  - { offsetInCU: 0x1EFD4, offset: 0x1EFD4, size: 0x8, addend: 0x0, symName: __ZNSt3__121__murmur2_or_cityhashImLm64EE18__hash_len_0_to_16EPKcm, symObjAddr: 0x81B0, symBinAddr: 0x10000B750, symSize: 0x180 }
  - { offsetInCU: 0x1F0AD, offset: 0x1F0AD, size: 0x8, addend: 0x0, symName: __ZNSt3__121__murmur2_or_cityhashImLm64EE19__hash_len_17_to_32EPKcm, symObjAddr: 0x8330, symBinAddr: 0x10000B8D0, symSize: 0x100 }
  - { offsetInCU: 0x1F116, offset: 0x1F116, size: 0x8, addend: 0x0, symName: __ZNSt3__121__murmur2_or_cityhashImLm64EE19__hash_len_33_to_64EPKcm, symObjAddr: 0x8430, symBinAddr: 0x10000B9D0, symSize: 0x260 }
  - { offsetInCU: 0x1F1C8, offset: 0x1F1C8, size: 0x8, addend: 0x0, symName: __ZNSt3__121__murmur2_or_cityhashImLm64EE13__hash_len_16Emm, symObjAddr: 0x86B0, symBinAddr: 0x10000BC50, symSize: 0x90 }
  - { offsetInCU: 0x1F223, offset: 0x1F223, size: 0x8, addend: 0x0, symName: __ZNSt3__121__murmur2_or_cityhashImLm64EE29__weak_hash_len_32_with_seedsEPKcmm, symObjAddr: 0x8740, symBinAddr: 0x10000BCE0, symSize: 0x90 }
  - { offsetInCU: 0x1F262, offset: 0x1F262, size: 0x8, addend: 0x0, symName: __ZNSt3__121__murmur2_or_cityhashImLm64EE8__rotateEmi, symObjAddr: 0x87D0, symBinAddr: 0x10000BD70, symSize: 0x50 }
  - { offsetInCU: 0x1F293, offset: 0x1F293, size: 0x8, addend: 0x0, symName: __ZNSt3__14pairImmEaSB7v160006EOS1_, symObjAddr: 0x8820, symBinAddr: 0x10000BDC0, symSize: 0x30 }
  - { offsetInCU: 0x1F2C8, offset: 0x1F2C8, size: 0x8, addend: 0x0, symName: __ZNSt3__121__murmur2_or_cityhashImLm64EE11__shift_mixEm, symObjAddr: 0x8890, symBinAddr: 0x10000BE30, symSize: 0x20 }
  - { offsetInCU: 0x1F2EB, offset: 0x1F2EB, size: 0x8, addend: 0x0, symName: __ZNSt3__121__murmur2_or_cityhashImLm64EE22__rotate_by_at_least_1Emi, symObjAddr: 0x88B0, symBinAddr: 0x10000BE50, symSize: 0x30 }
  - { offsetInCU: 0x1F31C, offset: 0x1F31C, size: 0x8, addend: 0x0, symName: __ZNSt3__121__murmur2_or_cityhashImLm64EE29__weak_hash_len_32_with_seedsEmmmmmm, symObjAddr: 0x8900, symBinAddr: 0x10000BEA0, symSize: 0xD0 }
  - { offsetInCU: 0x1F399, offset: 0x1F399, size: 0x8, addend: 0x0, symName: __ZNSt3__14pairImmEC1B7v160006ImmLPv0EEEOT_OT0_, symObjAddr: 0x89D0, symBinAddr: 0x10000BF70, symSize: 0x30 }
  - { offsetInCU: 0x1F3F7, offset: 0x1F3F7, size: 0x8, addend: 0x0, symName: __ZNSt3__14pairImmEC2B7v160006ImmLPv0EEEOT_OT0_, symObjAddr: 0x8A00, symBinAddr: 0x10000BFA0, symSize: 0x30 }
  - { offsetInCU: 0x1F455, offset: 0x1F455, size: 0x8, addend: 0x0, symName: __ZNKSt3__110unique_ptrIA_PNS_16__hash_node_baseIPNS_11__hash_nodeINS_17__hash_value_typeINS_12basic_stringIcNS_11char_traitsIcEENS_9allocatorIcEEEE9RateCurveEEPvEEEENS_25__bucket_list_deallocatorINS7_ISG_EEEEE11get_deleterB7v160006Ev, symObjAddr: 0x8A30, symBinAddr: 0x10000BFD0, symSize: 0x20 }
  - { offsetInCU: 0x1F47B, offset: 0x1F47B, size: 0x8, addend: 0x0, symName: __ZNKSt3__125__bucket_list_deallocatorINS_9allocatorIPNS_16__hash_node_baseIPNS_11__hash_nodeINS_17__hash_value_typeINS_12basic_stringIcNS_11char_traitsIcEENS1_IcEEEE9RateCurveEEPvEEEEEEE4sizeB7v160006Ev, symObjAddr: 0x8A50, symBinAddr: 0x10000BFF0, symSize: 0x20 }
  - { offsetInCU: 0x1F4A1, offset: 0x1F4A1, size: 0x8, addend: 0x0, symName: __ZNKSt3__117__compressed_pairIPPNS_16__hash_node_baseIPNS_11__hash_nodeINS_17__hash_value_typeINS_12basic_stringIcNS_11char_traitsIcEENS_9allocatorIcEEEE9RateCurveEEPvEEEENS_25__bucket_list_deallocatorINS7_ISG_EEEEE6secondB7v160006Ev, symObjAddr: 0x8A70, symBinAddr: 0x10000C010, symSize: 0x20 }
  - { offsetInCU: 0x1F4C7, offset: 0x1F4C7, size: 0x8, addend: 0x0, symName: __ZNKSt3__122__compressed_pair_elemINS_25__bucket_list_deallocatorINS_9allocatorIPNS_16__hash_node_baseIPNS_11__hash_nodeINS_17__hash_value_typeINS_12basic_stringIcNS_11char_traitsIcEENS2_IcEEEE9RateCurveEEPvEEEEEEEELi1ELb0EE5__getB7v160006Ev, symObjAddr: 0x8A90, symBinAddr: 0x10000C030, symSize: 0x10 }
  - { offsetInCU: 0x1F4ED, offset: 0x1F4ED, size: 0x8, addend: 0x0, symName: __ZNKSt3__117__compressed_pairImNS_9allocatorIPNS_16__hash_node_baseIPNS_11__hash_nodeINS_17__hash_value_typeINS_12basic_stringIcNS_11char_traitsIcEENS1_IcEEEE9RateCurveEEPvEEEEEEE5firstB7v160006Ev, symObjAddr: 0x8AA0, symBinAddr: 0x10000C040, symSize: 0x20 }
  - { offsetInCU: 0x1F513, offset: 0x1F513, size: 0x8, addend: 0x0, symName: __ZNKSt3__117__compressed_pairIPPNS_16__hash_node_baseIPNS_11__hash_nodeINS_17__hash_value_typeINS_12basic_stringIcNS_11char_traitsIcEENS_9allocatorIcEEEE9RateCurveEEPvEEEENS_25__bucket_list_deallocatorINS7_ISG_EEEEE5firstB7v160006Ev, symObjAddr: 0x8AC0, symBinAddr: 0x10000C060, symSize: 0x20 }
  - { offsetInCU: 0x1F539, offset: 0x1F539, size: 0x8, addend: 0x0, symName: __ZNKSt3__122__compressed_pair_elemIPPNS_16__hash_node_baseIPNS_11__hash_nodeINS_17__hash_value_typeINS_12basic_stringIcNS_11char_traitsIcEENS_9allocatorIcEEEE9RateCurveEEPvEEEELi0ELb0EE5__getB7v160006Ev, symObjAddr: 0x8AE0, symBinAddr: 0x10000C080, symSize: 0x10 }
  - { offsetInCU: 0x1F55F, offset: 0x1F55F, size: 0x8, addend: 0x0, symName: __ZNSt3__117__compressed_pairIfNS_21__unordered_map_equalINS_12basic_stringIcNS_11char_traitsIcEENS_9allocatorIcEEEENS_17__hash_value_typeIS7_9RateCurveEENS_8equal_toIS7_EENS_4hashIS7_EELb1EEEE6secondB7v160006Ev, symObjAddr: 0x8AF0, symBinAddr: 0x10000C090, symSize: 0x20 }
  - { offsetInCU: 0x1F585, offset: 0x1F585, size: 0x8, addend: 0x0, symName: __ZNSt3__122__compressed_pair_elemINS_21__unordered_map_equalINS_12basic_stringIcNS_11char_traitsIcEENS_9allocatorIcEEEENS_17__hash_value_typeIS7_9RateCurveEENS_8equal_toIS7_EENS_4hashIS7_EELb1EEELi1ELb1EE5__getB7v160006Ev, symObjAddr: 0x8B10, symBinAddr: 0x10000C0B0, symSize: 0x10 }
  - { offsetInCU: 0x1F5AB, offset: 0x1F5AB, size: 0x8, addend: 0x0, symName: __ZNKSt3__18equal_toINS_12basic_stringIcNS_11char_traitsIcEENS_9allocatorIcEEEEEclB7v160006ERKS6_S9_, symObjAddr: 0x8B20, symBinAddr: 0x10000C0C0, symSize: 0x30 }
  - { offsetInCU: 0x1F5EF, offset: 0x1F5EF, size: 0x8, addend: 0x0, symName: __ZNSt3__111char_traitsIcE7compareEPKcS3_m, symObjAddr: 0x8C60, symBinAddr: 0x10000C200, symSize: 0x60 }
  - { offsetInCU: 0x1F62E, offset: 0x1F62E, size: 0x8, addend: 0x0, symName: __ZNSt3__116allocator_traitsINS_9allocatorINS_11__hash_nodeINS_17__hash_value_typeINS_12basic_stringIcNS_11char_traitsIcEENS1_IcEEEE9RateCurveEEPvEEEEE8allocateB7v160006ERSD_m, symObjAddr: 0x8CF0, symBinAddr: 0x10000C290, symSize: 0x30 }
  - { offsetInCU: 0x1F661, offset: 0x1F661, size: 0x8, addend: 0x0, symName: __ZNSt3__122__hash_node_destructorINS_9allocatorINS_11__hash_nodeINS_17__hash_value_typeINS_12basic_stringIcNS_11char_traitsIcEENS1_IcEEEE9RateCurveEEPvEEEEEC1B7v160006ERSD_b, symObjAddr: 0x8D20, symBinAddr: 0x10000C2C0, symSize: 0x40 }
  - { offsetInCU: 0x1F6AE, offset: 0x1F6AE, size: 0x8, addend: 0x0, symName: __ZNSt3__110unique_ptrINS_11__hash_nodeINS_17__hash_value_typeINS_12basic_stringIcNS_11char_traitsIcEENS_9allocatorIcEEEE9RateCurveEEPvEENS_22__hash_node_destructorINS6_ISC_EEEEEC1B7v160006ILb1EvEEPSC_NS_16__dependent_typeINS_27__unique_ptr_deleter_sfinaeISF_EEXT_EE20__good_rval_ref_typeE, symObjAddr: 0x8D60, symBinAddr: 0x10000C300, symSize: 0x30 }
  - { offsetInCU: 0x1F6FF, offset: 0x1F6FF, size: 0x8, addend: 0x0, symName: __ZNSt3__116allocator_traitsINS_9allocatorINS_11__hash_nodeINS_17__hash_value_typeINS_12basic_stringIcNS_11char_traitsIcEENS1_IcEEEE9RateCurveEEPvEEEEE9constructB7v160006INS_4pairIKS8_S9_EEJRKNS_21piecewise_construct_tENS_5tupleIJRSH_EEENSM_IJEEEEvEEvRSD_PT_DpOT0_, symObjAddr: 0x8D90, symBinAddr: 0x10000C330, symSize: 0x40 }
  - { offsetInCU: 0x1F77E, offset: 0x1F77E, size: 0x8, addend: 0x0, symName: __ZNSt3__110unique_ptrINS_11__hash_nodeINS_17__hash_value_typeINS_12basic_stringIcNS_11char_traitsIcEENS_9allocatorIcEEEE9RateCurveEEPvEENS_22__hash_node_destructorINS6_ISC_EEEEE11get_deleterB7v160006Ev, symObjAddr: 0x8DD0, symBinAddr: 0x10000C370, symSize: 0x20 }
  - { offsetInCU: 0x1F7A4, offset: 0x1F7A4, size: 0x8, addend: 0x0, symName: __ZNSt3__19allocatorINS_11__hash_nodeINS_17__hash_value_typeINS_12basic_stringIcNS_11char_traitsIcEENS0_IcEEEE9RateCurveEEPvEEE8allocateB7v160006Em, symObjAddr: 0x8DF0, symBinAddr: 0x10000C390, symSize: 0x50 }
  - { offsetInCU: 0x1F7E2, offset: 0x1F7E2, size: 0x8, addend: 0x0, symName: __ZNSt3__116allocator_traitsINS_9allocatorINS_11__hash_nodeINS_17__hash_value_typeINS_12basic_stringIcNS_11char_traitsIcEENS1_IcEEEE9RateCurveEEPvEEEEE8max_sizeB7v160006ISD_vEEmRKSD_, symObjAddr: 0x8E40, symBinAddr: 0x10000C3E0, symSize: 0x20 }
  - { offsetInCU: 0x1F810, offset: 0x1F810, size: 0x8, addend: 0x0, symName: __ZNKSt3__19allocatorINS_11__hash_nodeINS_17__hash_value_typeINS_12basic_stringIcNS_11char_traitsIcEENS0_IcEEEE9RateCurveEEPvEEE8max_sizeB7v160006Ev, symObjAddr: 0x8E60, symBinAddr: 0x10000C400, symSize: 0x20 }
  - { offsetInCU: 0x1F836, offset: 0x1F836, size: 0x8, addend: 0x0, symName: __ZNSt3__122__hash_node_destructorINS_9allocatorINS_11__hash_nodeINS_17__hash_value_typeINS_12basic_stringIcNS_11char_traitsIcEENS1_IcEEEE9RateCurveEEPvEEEEEC2B7v160006ERSD_b, symObjAddr: 0x8E80, symBinAddr: 0x10000C420, symSize: 0x30 }
  - { offsetInCU: 0x1F87E, offset: 0x1F87E, size: 0x8, addend: 0x0, symName: __ZNSt3__110unique_ptrINS_11__hash_nodeINS_17__hash_value_typeINS_12basic_stringIcNS_11char_traitsIcEENS_9allocatorIcEEEE9RateCurveEEPvEENS_22__hash_node_destructorINS6_ISC_EEEEEC2B7v160006ILb1EvEEPSC_NS_16__dependent_typeINS_27__unique_ptr_deleter_sfinaeISF_EEXT_EE20__good_rval_ref_typeE, symObjAddr: 0x8EB0, symBinAddr: 0x10000C450, symSize: 0x40 }
  - { offsetInCU: 0x1F8CF, offset: 0x1F8CF, size: 0x8, addend: 0x0, symName: __ZNSt3__117__compressed_pairIPNS_11__hash_nodeINS_17__hash_value_typeINS_12basic_stringIcNS_11char_traitsIcEENS_9allocatorIcEEEE9RateCurveEEPvEENS_22__hash_node_destructorINS6_ISC_EEEEEC1B7v160006IRSD_SG_EEOT_OT0_, symObjAddr: 0x8EF0, symBinAddr: 0x10000C490, symSize: 0x30 }
  - { offsetInCU: 0x1F927, offset: 0x1F927, size: 0x8, addend: 0x0, symName: __ZNSt3__117__compressed_pairIPNS_11__hash_nodeINS_17__hash_value_typeINS_12basic_stringIcNS_11char_traitsIcEENS_9allocatorIcEEEE9RateCurveEEPvEENS_22__hash_node_destructorINS6_ISC_EEEEEC2B7v160006IRSD_SG_EEOT_OT0_, symObjAddr: 0x8F20, symBinAddr: 0x10000C4C0, symSize: 0x40 }
  - { offsetInCU: 0x1F97F, offset: 0x1F97F, size: 0x8, addend: 0x0, symName: __ZNSt3__122__compressed_pair_elemIPNS_11__hash_nodeINS_17__hash_value_typeINS_12basic_stringIcNS_11char_traitsIcEENS_9allocatorIcEEEE9RateCurveEEPvEELi0ELb0EEC2B7v160006IRSD_vEEOT_, symObjAddr: 0x8F60, symBinAddr: 0x10000C500, symSize: 0x20 }
  - { offsetInCU: 0x1F9C1, offset: 0x1F9C1, size: 0x8, addend: 0x0, symName: __ZNSt3__122__compressed_pair_elemINS_22__hash_node_destructorINS_9allocatorINS_11__hash_nodeINS_17__hash_value_typeINS_12basic_stringIcNS_11char_traitsIcEENS2_IcEEEE9RateCurveEEPvEEEEEELi1ELb0EEC2B7v160006ISF_vEEOT_, symObjAddr: 0x8F80, symBinAddr: 0x10000C520, symSize: 0x30 }
  - { offsetInCU: 0x1FA03, offset: 0x1FA03, size: 0x8, addend: 0x0, symName: __ZNSt3__19allocatorINS_11__hash_nodeINS_17__hash_value_typeINS_12basic_stringIcNS_11char_traitsIcEENS0_IcEEEE9RateCurveEEPvEEE9constructB7v160006INS_4pairIKS7_S8_EEJRKNS_21piecewise_construct_tENS_5tupleIJRSF_EEENSK_IJEEEEEEvPT_DpOT0_, symObjAddr: 0x8FB0, symBinAddr: 0x10000C550, symSize: 0x40 }
  - { offsetInCU: 0x1FA7F, offset: 0x1FA7F, size: 0x8, addend: 0x0, symName: __ZNSt3__14pairIKNS_12basic_stringIcNS_11char_traitsIcEENS_9allocatorIcEEEE9RateCurveEC1B7v160006IJRS7_EJEEENS_21piecewise_construct_tENS_5tupleIJDpT_EEENSD_IJDpT0_EEE, symObjAddr: 0x8FF0, symBinAddr: 0x10000C590, symSize: 0x30 }
  - { offsetInCU: 0x1FAE6, offset: 0x1FAE6, size: 0x8, addend: 0x0, symName: __ZNSt3__14pairIKNS_12basic_stringIcNS_11char_traitsIcEENS_9allocatorIcEEEE9RateCurveEC1B7v160006IJRS7_EJEJLm0EEJEEENS_21piecewise_construct_tERNS_5tupleIJDpT_EEERNSD_IJDpT0_EEENS_15__tuple_indicesIJXspT1_EEEENSM_IJXspT2_EEEE, symObjAddr: 0x9020, symBinAddr: 0x10000C5C0, symSize: 0x30 }
  - { offsetInCU: 0x1FB73, offset: 0x1FB73, size: 0x8, addend: 0x0, symName: __ZNSt3__14pairIKNS_12basic_stringIcNS_11char_traitsIcEENS_9allocatorIcEEEE9RateCurveEC2B7v160006IJRS7_EJEJLm0EEJEEENS_21piecewise_construct_tERNS_5tupleIJDpT_EEERNSD_IJDpT0_EEENS_15__tuple_indicesIJXspT1_EEEENSM_IJXspT2_EEEE, symObjAddr: 0x9050, symBinAddr: 0x10000C5F0, symSize: 0x70 }
  - { offsetInCU: 0x1FC00, offset: 0x1FC00, size: 0x8, addend: 0x0, symName: __ZN9RateCurveC1Ev, symObjAddr: 0x90E0, symBinAddr: 0x10000C680, symSize: 0x20 }
  - { offsetInCU: 0x1FC2A, offset: 0x1FC2A, size: 0x8, addend: 0x0, symName: __ZNSt3__112__tuple_leafILm0ERKNS_12basic_stringIcNS_11char_traitsIcEENS_9allocatorIcEEEELb0EE3getB7v160006Ev, symObjAddr: 0x9100, symBinAddr: 0x10000C6A0, symSize: 0x20 }
  - { offsetInCU: 0x1FC50, offset: 0x1FC50, size: 0x8, addend: 0x0, symName: __ZN9RateCurveC2Ev, symObjAddr: 0x9120, symBinAddr: 0x10000C6C0, symSize: 0x70 }
  - { offsetInCU: 0x1FC7A, offset: 0x1FC7A, size: 0x8, addend: 0x0, symName: __ZNSt3__16vectorI4DateNS_9allocatorIS1_EEEC1B7v160006Ev, symObjAddr: 0x9190, symBinAddr: 0x10000C730, symSize: 0x20 }
  - { offsetInCU: 0x1FCA4, offset: 0x1FCA4, size: 0x8, addend: 0x0, symName: __ZNSt3__16vectorIdNS_9allocatorIdEEEC1B7v160006Ev, symObjAddr: 0x91B0, symBinAddr: 0x10000C750, symSize: 0x20 }
  - { offsetInCU: 0x1FCCE, offset: 0x1FCCE, size: 0x8, addend: 0x0, symName: __ZNSt3__16vectorI4DateNS_9allocatorIS1_EEEC2B7v160006Ev, symObjAddr: 0x91D0, symBinAddr: 0x10000C770, symSize: 0x60 }
  - { offsetInCU: 0x1FCF8, offset: 0x1FCF8, size: 0x8, addend: 0x0, symName: __ZNSt3__117__compressed_pairIP4DateNS_9allocatorIS1_EEEC1B7v160006IDnNS_18__default_init_tagEEEOT_OT0_, symObjAddr: 0x9230, symBinAddr: 0x10000C7D0, symSize: 0x30 }
  - { offsetInCU: 0x1FD50, offset: 0x1FD50, size: 0x8, addend: 0x0, symName: __ZNSt3__117__compressed_pairIP4DateNS_9allocatorIS1_EEEC2B7v160006IDnNS_18__default_init_tagEEEOT_OT0_, symObjAddr: 0x9260, symBinAddr: 0x10000C800, symSize: 0x40 }
  - { offsetInCU: 0x1FDA8, offset: 0x1FDA8, size: 0x8, addend: 0x0, symName: __ZNSt3__122__compressed_pair_elemINS_9allocatorI4DateEELi1ELb1EEC2B7v160006ENS_18__default_init_tagE, symObjAddr: 0x92A0, symBinAddr: 0x10000C840, symSize: 0x20 }
  - { offsetInCU: 0x1FDDD, offset: 0x1FDDD, size: 0x8, addend: 0x0, symName: __ZNSt3__19allocatorI4DateEC2B7v160006Ev, symObjAddr: 0x92C0, symBinAddr: 0x10000C860, symSize: 0x20 }
  - { offsetInCU: 0x1FE07, offset: 0x1FE07, size: 0x8, addend: 0x0, symName: __ZNSt3__116__non_trivial_ifILb1ENS_9allocatorI4DateEEEC2B7v160006Ev, symObjAddr: 0x92E0, symBinAddr: 0x10000C880, symSize: 0x10 }
  - { offsetInCU: 0x1FE31, offset: 0x1FE31, size: 0x8, addend: 0x0, symName: __ZNSt3__16vectorIdNS_9allocatorIdEEEC2B7v160006Ev, symObjAddr: 0x92F0, symBinAddr: 0x10000C890, symSize: 0x60 }
  - { offsetInCU: 0x1FE5B, offset: 0x1FE5B, size: 0x8, addend: 0x0, symName: __ZNSt3__117__compressed_pairIPdNS_9allocatorIdEEEC1B7v160006IDnNS_18__default_init_tagEEEOT_OT0_, symObjAddr: 0x9350, symBinAddr: 0x10000C8F0, symSize: 0x30 }
  - { offsetInCU: 0x1FEB3, offset: 0x1FEB3, size: 0x8, addend: 0x0, symName: __ZNSt3__117__compressed_pairIPdNS_9allocatorIdEEEC2B7v160006IDnNS_18__default_init_tagEEEOT_OT0_, symObjAddr: 0x9380, symBinAddr: 0x10000C920, symSize: 0x40 }
  - { offsetInCU: 0x1FF0B, offset: 0x1FF0B, size: 0x8, addend: 0x0, symName: __ZNSt3__122__compressed_pair_elemINS_9allocatorIdEELi1ELb1EEC2B7v160006ENS_18__default_init_tagE, symObjAddr: 0x93C0, symBinAddr: 0x10000C960, symSize: 0x20 }
  - { offsetInCU: 0x1FF40, offset: 0x1FF40, size: 0x8, addend: 0x0, symName: __ZNSt3__19allocatorIdEC2B7v160006Ev, symObjAddr: 0x93E0, symBinAddr: 0x10000C980, symSize: 0x20 }
  - { offsetInCU: 0x1FF6A, offset: 0x1FF6A, size: 0x8, addend: 0x0, symName: __ZNSt3__116__non_trivial_ifILb1ENS_9allocatorIdEEEC2B7v160006Ev, symObjAddr: 0x9400, symBinAddr: 0x10000C9A0, symSize: 0x10 }
  - { offsetInCU: 0x1FF94, offset: 0x1FF94, size: 0x8, addend: 0x0, symName: __ZNSt3__117__compressed_pairIPNS_11__hash_nodeINS_17__hash_value_typeINS_12basic_stringIcNS_11char_traitsIcEENS_9allocatorIcEEEE9RateCurveEEPvEENS_22__hash_node_destructorINS6_ISC_EEEEE6secondB7v160006Ev, symObjAddr: 0x9410, symBinAddr: 0x10000C9B0, symSize: 0x20 }
  - { offsetInCU: 0x1FFBA, offset: 0x1FFBA, size: 0x8, addend: 0x0, symName: __ZNSt3__122__compressed_pair_elemINS_22__hash_node_destructorINS_9allocatorINS_11__hash_nodeINS_17__hash_value_typeINS_12basic_stringIcNS_11char_traitsIcEENS2_IcEEEE9RateCurveEEPvEEEEEELi1ELb0EE5__getB7v160006Ev, symObjAddr: 0x9430, symBinAddr: 0x10000C9D0, symSize: 0x10 }
  - { offsetInCU: 0x1FFE0, offset: 0x1FFE0, size: 0x8, addend: 0x0, symName: __ZNSt3__117__compressed_pairImNS_22__unordered_map_hasherINS_12basic_stringIcNS_11char_traitsIcEENS_9allocatorIcEEEENS_17__hash_value_typeIS7_9RateCurveEENS_4hashIS7_EENS_8equal_toIS7_EELb1EEEE5firstB7v160006Ev, symObjAddr: 0x9440, symBinAddr: 0x10000C9E0, symSize: 0x20 }
  - { offsetInCU: 0x20006, offset: 0x20006, size: 0x8, addend: 0x0, symName: __ZNSt3__117__compressed_pairIfNS_21__unordered_map_equalINS_12basic_stringIcNS_11char_traitsIcEENS_9allocatorIcEEEENS_17__hash_value_typeIS7_9RateCurveEENS_8equal_toIS7_EENS_4hashIS7_EELb1EEEE5firstB7v160006Ev, symObjAddr: 0x9460, symBinAddr: 0x10000CA00, symSize: 0x20 }
  - { offsetInCU: 0x2002C, offset: 0x2002C, size: 0x8, addend: 0x0, symName: __ZNSt3__122__compressed_pair_elemIfLi0ELb0EE5__getB7v160006Ev, symObjAddr: 0x9480, symBinAddr: 0x10000CA20, symSize: 0x10 }
  - { offsetInCU: 0x20052, offset: 0x20052, size: 0x8, addend: 0x0, symName: __ZNSt3__112__hash_tableINS_17__hash_value_typeINS_12basic_stringIcNS_11char_traitsIcEENS_9allocatorIcEEEE9RateCurveEENS_22__unordered_map_hasherIS7_S9_NS_4hashIS7_EENS_8equal_toIS7_EELb1EEENS_21__unordered_map_equalIS7_S9_SE_SC_Lb1EEENS5_IS9_EEE8__rehashILb1EEEvm, symObjAddr: 0x9490, symBinAddr: 0x10000CA30, symSize: 0x230 }
  - { offsetInCU: 0x200A2, offset: 0x200A2, size: 0x8, addend: 0x0, symName: __ZNSt3__112__hash_tableINS_17__hash_value_typeINS_12basic_stringIcNS_11char_traitsIcEENS_9allocatorIcEEEE9RateCurveEENS_22__unordered_map_hasherIS7_S9_NS_4hashIS7_EENS_8equal_toIS7_EELb1EEENS_21__unordered_map_equalIS7_S9_SE_SC_Lb1EEENS5_IS9_EEE11__do_rehashILb1EEEvm, symObjAddr: 0x96C0, symBinAddr: 0x10000CC60, symSize: 0x260 }
  - { offsetInCU: 0x20185, offset: 0x20185, size: 0x8, addend: 0x0, symName: __ZNSt3__110unique_ptrIA_PNS_16__hash_node_baseIPNS_11__hash_nodeINS_17__hash_value_typeINS_12basic_stringIcNS_11char_traitsIcEENS_9allocatorIcEEEE9RateCurveEEPvEEEENS_25__bucket_list_deallocatorINS7_ISG_EEEEE11get_deleterB7v160006Ev, symObjAddr: 0x9990, symBinAddr: 0x10000CF30, symSize: 0x20 }
  - { offsetInCU: 0x201AB, offset: 0x201AB, size: 0x8, addend: 0x0, symName: __ZNSt3__110unique_ptrIA_PNS_16__hash_node_baseIPNS_11__hash_nodeINS_17__hash_value_typeINS_12basic_stringIcNS_11char_traitsIcEENS_9allocatorIcEEEE9RateCurveEEPvEEEENS_25__bucket_list_deallocatorINS7_ISG_EEEEE5resetB7v160006IPSG_EENS_9enable_ifIXsr28_CheckArrayPointerConversionIT_EE5valueEvE4typeESP_, symObjAddr: 0x99B0, symBinAddr: 0x10000CF50, symSize: 0x70 }
  - { offsetInCU: 0x201F8, offset: 0x201F8, size: 0x8, addend: 0x0, symName: __ZNSt3__116allocator_traitsINS_9allocatorIPNS_16__hash_node_baseIPNS_11__hash_nodeINS_17__hash_value_typeINS_12basic_stringIcNS_11char_traitsIcEENS1_IcEEEE9RateCurveEEPvEEEEEEE8allocateB7v160006ERSH_m, symObjAddr: 0x9A20, symBinAddr: 0x10000CFC0, symSize: 0x30 }
  - { offsetInCU: 0x2022B, offset: 0x2022B, size: 0x8, addend: 0x0, symName: __ZNSt3__19allocatorIPNS_16__hash_node_baseIPNS_11__hash_nodeINS_17__hash_value_typeINS_12basic_stringIcNS_11char_traitsIcEENS0_IcEEEE9RateCurveEEPvEEEEE8allocateB7v160006Em, symObjAddr: 0x9A50, symBinAddr: 0x10000CFF0, symSize: 0x50 }
  - { offsetInCU: 0x20269, offset: 0x20269, size: 0x8, addend: 0x0, symName: __ZNSt3__116allocator_traitsINS_9allocatorIPNS_16__hash_node_baseIPNS_11__hash_nodeINS_17__hash_value_typeINS_12basic_stringIcNS_11char_traitsIcEENS1_IcEEEE9RateCurveEEPvEEEEEEE8max_sizeB7v160006ISH_vEEmRKSH_, symObjAddr: 0x9AA0, symBinAddr: 0x10000D040, symSize: 0x20 }
  - { offsetInCU: 0x20297, offset: 0x20297, size: 0x8, addend: 0x0, symName: __ZNKSt3__19allocatorIPNS_16__hash_node_baseIPNS_11__hash_nodeINS_17__hash_value_typeINS_12basic_stringIcNS_11char_traitsIcEENS0_IcEEEE9RateCurveEEPvEEEEE8max_sizeB7v160006Ev, symObjAddr: 0x9AC0, symBinAddr: 0x10000D060, symSize: 0x20 }
  - { offsetInCU: 0x202BD, offset: 0x202BD, size: 0x8, addend: 0x0, symName: __ZNKSt3__117__compressed_pairIPNS_11__hash_nodeINS_17__hash_value_typeINS_12basic_stringIcNS_11char_traitsIcEENS_9allocatorIcEEEE9RateCurveEEPvEENS_22__hash_node_destructorINS6_ISC_EEEEE5firstB7v160006Ev, symObjAddr: 0x9B50, symBinAddr: 0x10000D0F0, symSize: 0x20 }
  - { offsetInCU: 0x202E3, offset: 0x202E3, size: 0x8, addend: 0x0, symName: __ZNKSt3__122__compressed_pair_elemIPNS_11__hash_nodeINS_17__hash_value_typeINS_12basic_stringIcNS_11char_traitsIcEENS_9allocatorIcEEEE9RateCurveEEPvEELi0ELb0EE5__getB7v160006Ev, symObjAddr: 0x9B70, symBinAddr: 0x10000D110, symSize: 0x10 }
  - { offsetInCU: 0x20309, offset: 0x20309, size: 0x8, addend: 0x0, symName: __ZNSt3__117__compressed_pairIPNS_11__hash_nodeINS_17__hash_value_typeINS_12basic_stringIcNS_11char_traitsIcEENS_9allocatorIcEEEE9RateCurveEEPvEENS_22__hash_node_destructorINS6_ISC_EEEEE5firstB7v160006Ev, symObjAddr: 0x9B80, symBinAddr: 0x10000D120, symSize: 0x20 }
  - { offsetInCU: 0x2032F, offset: 0x2032F, size: 0x8, addend: 0x0, symName: __ZNSt3__122__compressed_pair_elemIPNS_11__hash_nodeINS_17__hash_value_typeINS_12basic_stringIcNS_11char_traitsIcEENS_9allocatorIcEEEE9RateCurveEEPvEELi0ELb0EE5__getB7v160006Ev, symObjAddr: 0x9BA0, symBinAddr: 0x10000D140, symSize: 0x10 }
  - { offsetInCU: 0x20355, offset: 0x20355, size: 0x8, addend: 0x0, symName: __ZNSt3__110unique_ptrINS_11__hash_nodeINS_17__hash_value_typeINS_12basic_stringIcNS_11char_traitsIcEENS_9allocatorIcEEEE9RateCurveEEPvEENS_22__hash_node_destructorINS6_ISC_EEEEED2B7v160006Ev, symObjAddr: 0x9BB0, symBinAddr: 0x10000D150, symSize: 0x20 }
  - { offsetInCU: 0x2037F, offset: 0x2037F, size: 0x8, addend: 0x0, symName: __ZNSt3__110unique_ptrINS_11__hash_nodeINS_17__hash_value_typeINS_12basic_stringIcNS_11char_traitsIcEENS_9allocatorIcEEEE9RateCurveEEPvEENS_22__hash_node_destructorINS6_ISC_EEEEE5resetB7v160006EPSC_, symObjAddr: 0x9BD0, symBinAddr: 0x10000D170, symSize: 0x70 }
  - { offsetInCU: 0x203C3, offset: 0x203C3, size: 0x8, addend: 0x0, symName: __ZNSt3__122__hash_node_destructorINS_9allocatorINS_11__hash_nodeINS_17__hash_value_typeINS_12basic_stringIcNS_11char_traitsIcEENS1_IcEEEE9RateCurveEEPvEEEEEclB7v160006EPSC_, symObjAddr: 0x9C40, symBinAddr: 0x10000D1E0, symSize: 0x80 }
  - { offsetInCU: 0x203F8, offset: 0x203F8, size: 0x8, addend: 0x0, symName: __ZNSt3__115__hash_iteratorIPNS_11__hash_nodeINS_17__hash_value_typeINS_12basic_stringIcNS_11char_traitsIcEENS_9allocatorIcEEEE9RateCurveEEPvEEEC2B7v160006EPNS_16__hash_node_baseISD_EEPKv, symObjAddr: 0x9CC0, symBinAddr: 0x10000D260, symSize: 0x20 }
  - { offsetInCU: 0x20440, offset: 0x20440, size: 0x8, addend: 0x0, symName: __ZNSt3__14pairINS_15__hash_iteratorIPNS_11__hash_nodeINS_17__hash_value_typeINS_12basic_stringIcNS_11char_traitsIcEENS_9allocatorIcEEEE9RateCurveEEPvEEEEbEC2B7v160006ISF_RbLSC_0EEEOT_OT0_, symObjAddr: 0x9CE0, symBinAddr: 0x10000D280, symSize: 0x30 }
  - { offsetInCU: 0x2049E, offset: 0x2049E, size: 0x8, addend: 0x0, symName: __ZNSt3__15tupleIJRKNS_12basic_stringIcNS_11char_traitsIcEENS_9allocatorIcEEEEEEC1B7v160006INS_4_AndELi0EEES8_, symObjAddr: 0x9D10, symBinAddr: 0x10000D2B0, symSize: 0x30 }
  - { offsetInCU: 0x204E6, offset: 0x204E6, size: 0x8, addend: 0x0, symName: __ZNSt3__15tupleIJRKNS_12basic_stringIcNS_11char_traitsIcEENS_9allocatorIcEEEEEEC2B7v160006INS_4_AndELi0EEES8_, symObjAddr: 0x9D40, symBinAddr: 0x10000D2E0, symSize: 0x30 }
  - { offsetInCU: 0x2052E, offset: 0x2052E, size: 0x8, addend: 0x0, symName: __ZNSt3__112__tuple_implINS_15__tuple_indicesIJLm0EEEEJRKNS_12basic_stringIcNS_11char_traitsIcEENS_9allocatorIcEEEEEEC1B7v160006IJLm0EEJSA_EJEJEJSA_EEENS1_IJXspT_EEEENS_13__tuple_typesIJDpT0_EEENS1_IJXspT1_EEEENSE_IJDpT2_EEEDpOT3_, symObjAddr: 0x9D70, symBinAddr: 0x10000D310, symSize: 0x30 }
  - { offsetInCU: 0x205BF, offset: 0x205BF, size: 0x8, addend: 0x0, symName: __ZNSt3__112__tuple_implINS_15__tuple_indicesIJLm0EEEEJRKNS_12basic_stringIcNS_11char_traitsIcEENS_9allocatorIcEEEEEEC2B7v160006IJLm0EEJSA_EJEJEJSA_EEENS1_IJXspT_EEEENS_13__tuple_typesIJDpT0_EEENS1_IJXspT1_EEEENSE_IJDpT2_EEEDpOT3_, symObjAddr: 0x9DA0, symBinAddr: 0x10000D340, symSize: 0x30 }
  - { offsetInCU: 0x20650, offset: 0x20650, size: 0x8, addend: 0x0, symName: __ZNSt3__112__tuple_leafILm0ERKNS_12basic_stringIcNS_11char_traitsIcEENS_9allocatorIcEEEELb0EEC2B7v160006IS8_vEEOT_, symObjAddr: 0x9DD0, symBinAddr: 0x10000D370, symSize: 0x20 }
  - { offsetInCU: 0x20693, offset: 0x20693, size: 0x8, addend: 0x0, symName: __ZNSt3__114pointer_traitsIPNS_17__hash_value_typeINS_12basic_stringIcNS_11char_traitsIcEENS_9allocatorIcEEEE9RateCurveEEE10pointer_toB7v160006ERS9_, symObjAddr: 0x9DF0, symBinAddr: 0x10000D390, symSize: 0x10 }
  - { offsetInCU: 0x206B6, offset: 0x206B6, size: 0x8, addend: 0x0, symName: __ZNKSt3__111__wrap_iterIPK4DateE4baseB7v160006Ev, symObjAddr: 0x9E40, symBinAddr: 0x10000D3E0, symSize: 0x20 }
  - { offsetInCU: 0x206DC, offset: 0x206DC, size: 0x8, addend: 0x0, symName: __ZN9RateCurveD2Ev, symObjAddr: 0x9E60, symBinAddr: 0x10000D400, symSize: 0x40 }
  - { offsetInCU: 0x20708, offset: 0x20708, size: 0x8, addend: 0x0, symName: __ZN6MarketD2Ev, symObjAddr: 0x9EA0, symBinAddr: 0x10000D440, symSize: 0x50 }
  - { offsetInCU: 0x20734, offset: 0x20734, size: 0x8, addend: 0x0, symName: __ZN4BondD2Ev, symObjAddr: 0x9EF0, symBinAddr: 0x10000D490, symSize: 0x50 }
  - { offsetInCU: 0x20760, offset: 0x20760, size: 0x8, addend: 0x0, symName: __ZN5TradeD2Ev, symObjAddr: 0x9F40, symBinAddr: 0x10000D4E0, symSize: 0x80 }
  - { offsetInCU: 0x2078A, offset: 0x2078A, size: 0x8, addend: 0x0, symName: __ZN5TradeD1Ev, symObjAddr: 0x9FC0, symBinAddr: 0x10000D560, symSize: 0x10 }
  - { offsetInCU: 0x207B4, offset: 0x207B4, size: 0x8, addend: 0x0, symName: __ZN5TradeD0Ev, symObjAddr: 0x9FD0, symBinAddr: 0x10000D570, symSize: 0x10 }
  - { offsetInCU: 0x207DE, offset: 0x207DE, size: 0x8, addend: 0x0, symName: __ZNSt3__112basic_stringIcNS_11char_traitsIcEENS_9allocatorIcEEEC2B7v160006Ev, symObjAddr: 0x9FE0, symBinAddr: 0x10000D580, symSize: 0x50 }
  - { offsetInCU: 0x20808, offset: 0x20808, size: 0x8, addend: 0x0, symName: __ZNSt3__112basic_stringIcNS_11char_traitsIcEENS_9allocatorIcEEE14__default_initB7v160006Ev, symObjAddr: 0xA030, symBinAddr: 0x10000D5D0, symSize: 0x50 }
  - { offsetInCU: 0x2082E, offset: 0x2082E, size: 0x8, addend: 0x0, symName: __ZNSt3__112basic_stringIcNS_11char_traitsIcEENS_9allocatorIcEEEC2B7v160006IDnEEPKc, symObjAddr: 0xA080, symBinAddr: 0x10000D620, symSize: 0x60 }
  - { offsetInCU: 0x2086C, offset: 0x2086C, size: 0x8, addend: 0x0, symName: __ZNSt3__16vectorI4DateNS_9allocatorIS1_EEE22__construct_one_at_endB7v160006IJRKS1_EEEvDpOT_, symObjAddr: 0xA0E0, symBinAddr: 0x10000D680, symSize: 0x90 }
  - { offsetInCU: 0x208BB, offset: 0x208BB, size: 0x8, addend: 0x0, symName: __ZNSt3__16vectorI4DateNS_9allocatorIS1_EEE21__push_back_slow_pathIRKS1_EEvOT_, symObjAddr: 0xA170, symBinAddr: 0x10000D710, symSize: 0xD0 }
  - { offsetInCU: 0x20919, offset: 0x20919, size: 0x8, addend: 0x0, symName: __ZNSt3__116allocator_traitsINS_9allocatorI4DateEEE9constructB7v160006IS2_JRKS2_EvEEvRS3_PT_DpOT0_, symObjAddr: 0xA240, symBinAddr: 0x10000D7E0, symSize: 0x30 }
  - { offsetInCU: 0x20970, offset: 0x20970, size: 0x8, addend: 0x0, symName: __ZNSt3__19allocatorI4DateE9constructB7v160006IS1_JRKS1_EEEvPT_DpOT0_, symObjAddr: 0xA270, symBinAddr: 0x10000D810, symSize: 0x30 }
  - { offsetInCU: 0x209C6, offset: 0x209C6, size: 0x8, addend: 0x0, symName: __ZNKSt3__16vectorI4DateNS_9allocatorIS1_EEE11__recommendB7v160006Em, symObjAddr: 0xA2A0, symBinAddr: 0x10000D840, symSize: 0xA0 }
  - { offsetInCU: 0x20A1B, offset: 0x20A1B, size: 0x8, addend: 0x0, symName: __ZNSt3__114__split_bufferI4DateRNS_9allocatorIS1_EEEC1EmmS4_, symObjAddr: 0xA340, symBinAddr: 0x10000D8E0, symSize: 0x40 }
  - { offsetInCU: 0x20A71, offset: 0x20A71, size: 0x8, addend: 0x0, symName: __ZNSt3__114__split_bufferI4DateRNS_9allocatorIS1_EEED1Ev, symObjAddr: 0xA4B0, symBinAddr: 0x10000DA50, symSize: 0x20 }
  - { offsetInCU: 0x20A9D, offset: 0x20A9D, size: 0x8, addend: 0x0, symName: __ZNSt3__114__split_bufferI4DateRNS_9allocatorIS1_EEEC2EmmS4_, symObjAddr: 0xA4D0, symBinAddr: 0x10000DA70, symSize: 0xC0 }
  - { offsetInCU: 0x20B10, offset: 0x20B10, size: 0x8, addend: 0x0, symName: __ZNSt3__117__compressed_pairIP4DateRNS_9allocatorIS1_EEEC1B7v160006IDnS5_EEOT_OT0_, symObjAddr: 0xA590, symBinAddr: 0x10000DB30, symSize: 0x30 }
  - { offsetInCU: 0x20B68, offset: 0x20B68, size: 0x8, addend: 0x0, symName: __ZNSt3__114__split_bufferI4DateRNS_9allocatorIS1_EEE7__allocB7v160006Ev, symObjAddr: 0xA5C0, symBinAddr: 0x10000DB60, symSize: 0x20 }
  - { offsetInCU: 0x20B8E, offset: 0x20B8E, size: 0x8, addend: 0x0, symName: __ZNSt3__114__split_bufferI4DateRNS_9allocatorIS1_EEE9__end_capB7v160006Ev, symObjAddr: 0xA5E0, symBinAddr: 0x10000DB80, symSize: 0x20 }
  - { offsetInCU: 0x20BB4, offset: 0x20BB4, size: 0x8, addend: 0x0, symName: __ZNSt3__117__compressed_pairIP4DateRNS_9allocatorIS1_EEEC2B7v160006IDnS5_EEOT_OT0_, symObjAddr: 0xA600, symBinAddr: 0x10000DBA0, symSize: 0x40 }
  - { offsetInCU: 0x20C0C, offset: 0x20C0C, size: 0x8, addend: 0x0, symName: __ZNSt3__122__compressed_pair_elemIRNS_9allocatorI4DateEELi1ELb0EEC2B7v160006IS4_vEEOT_, symObjAddr: 0xA640, symBinAddr: 0x10000DBE0, symSize: 0x20 }
  - { offsetInCU: 0x20C4E, offset: 0x20C4E, size: 0x8, addend: 0x0, symName: __ZNSt3__117__compressed_pairIP4DateRNS_9allocatorIS1_EEE6secondB7v160006Ev, symObjAddr: 0xA660, symBinAddr: 0x10000DC00, symSize: 0x20 }
  - { offsetInCU: 0x20C74, offset: 0x20C74, size: 0x8, addend: 0x0, symName: __ZNSt3__122__compressed_pair_elemIRNS_9allocatorI4DateEELi1ELb0EE5__getB7v160006Ev, symObjAddr: 0xA680, symBinAddr: 0x10000DC20, symSize: 0x20 }
  - { offsetInCU: 0x20C9A, offset: 0x20C9A, size: 0x8, addend: 0x0, symName: __ZNSt3__117__compressed_pairIP4DateRNS_9allocatorIS1_EEE5firstB7v160006Ev, symObjAddr: 0xA6A0, symBinAddr: 0x10000DC40, symSize: 0x20 }
  - { offsetInCU: 0x20CE3, offset: 0x20CE3, size: 0x8, addend: 0x0, symName: __ZNKSt3__111__move_loopINS_17_ClassicAlgPolicyEEclB7v160006INS_16reverse_iteratorIP4DateEES7_S7_EENS_4pairIT_T1_EES9_T0_SA_, symObjAddr: 0xABC0, symBinAddr: 0x10000E160, symSize: 0xA0 }
  - { offsetInCU: 0x20D53, offset: 0x20D53, size: 0x8, addend: 0x0, symName: __ZNSt3__18_IterOpsINS_17_ClassicAlgPolicyEE11__iter_moveB7v160006IRNS_16reverse_iteratorIP4DateEEEENS_9enable_ifIXsr12is_referenceIDTdeclsr3stdE7declvalIRT_EEEEE5valueEDTclsr3stdE4movedeclsr3stdE7declvalISB_EEEEE4typeEOSA_, symObjAddr: 0xADA0, symBinAddr: 0x10000E340, symSize: 0x20 }
  - { offsetInCU: 0x20D7F, offset: 0x20D7F, size: 0x8, addend: 0x0, symName: __ZNSt3__18_IterOpsINS_17_ClassicAlgPolicyEE25__validate_iter_referenceB7v160006IRNS_16reverse_iteratorIP4DateEEEEvv, symObjAddr: 0xADC0, symBinAddr: 0x10000E360, symSize: 0x10 }
  - { offsetInCU: 0x20D9D, offset: 0x20D9D, size: 0x8, addend: 0x0, symName: __ZNSt3__118__unwrap_iter_implINS_16reverse_iteratorIP4DateEELb0EE8__unwrapB7v160006ES4_, symObjAddr: 0xADD0, symBinAddr: 0x10000E370, symSize: 0x20 }
  - { offsetInCU: 0x20DC5, offset: 0x20DC5, size: 0x8, addend: 0x0, symName: __ZNSt3__14pairINS_16reverse_iteratorIP4DateEES4_EC1B7v160006IS4_S4_LPv0EEEOT_OT0_, symObjAddr: 0xADF0, symBinAddr: 0x10000E390, symSize: 0x30 }
  - { offsetInCU: 0x20E23, offset: 0x20E23, size: 0x8, addend: 0x0, symName: __ZNSt3__14pairINS_16reverse_iteratorIP4DateEES4_EC2B7v160006IS4_S4_LPv0EEEOT_OT0_, symObjAddr: 0xAE20, symBinAddr: 0x10000E3C0, symSize: 0x40 }
  - { offsetInCU: 0x20E81, offset: 0x20E81, size: 0x8, addend: 0x0, symName: __ZNSt3__118__unwrap_iter_implINS_16reverse_iteratorIP4DateEELb0EE8__rewrapB7v160006ES4_S4_, symObjAddr: 0xAE60, symBinAddr: 0x10000E400, symSize: 0x30 }
  - { offsetInCU: 0x20EAF, offset: 0x20EAF, size: 0x8, addend: 0x0, symName: __ZNSt3__114__split_bufferI4DateRNS_9allocatorIS1_EEED2Ev, symObjAddr: 0xAE90, symBinAddr: 0x10000E430, symSize: 0x70 }
  - { offsetInCU: 0x20EDB, offset: 0x20EDB, size: 0x8, addend: 0x0, symName: __ZNSt3__114__split_bufferI4DateRNS_9allocatorIS1_EEE5clearB7v160006Ev, symObjAddr: 0xAF00, symBinAddr: 0x10000E4A0, symSize: 0x20 }
  - { offsetInCU: 0x20F01, offset: 0x20F01, size: 0x8, addend: 0x0, symName: __ZNKSt3__114__split_bufferI4DateRNS_9allocatorIS1_EEE8capacityB7v160006Ev, symObjAddr: 0xAF20, symBinAddr: 0x10000E4C0, symSize: 0x40 }
  - { offsetInCU: 0x20F27, offset: 0x20F27, size: 0x8, addend: 0x0, symName: __ZNSt3__114__split_bufferI4DateRNS_9allocatorIS1_EEE17__destruct_at_endB7v160006EPS1_, symObjAddr: 0xAF60, symBinAddr: 0x10000E500, symSize: 0x30 }
  - { offsetInCU: 0x20F5B, offset: 0x20F5B, size: 0x8, addend: 0x0, symName: __ZNSt3__114__split_bufferI4DateRNS_9allocatorIS1_EEE17__destruct_at_endB7v160006EPS1_NS_17integral_constantIbLb0EEE, symObjAddr: 0xAF90, symBinAddr: 0x10000E530, symSize: 0x80 }
  - { offsetInCU: 0x20F9C, offset: 0x20F9C, size: 0x8, addend: 0x0, symName: __ZNKSt3__114__split_bufferI4DateRNS_9allocatorIS1_EEE9__end_capB7v160006Ev, symObjAddr: 0xB010, symBinAddr: 0x10000E5B0, symSize: 0x20 }
  - { offsetInCU: 0x20FC2, offset: 0x20FC2, size: 0x8, addend: 0x0, symName: __ZNKSt3__117__compressed_pairIP4DateRNS_9allocatorIS1_EEE5firstB7v160006Ev, symObjAddr: 0xB030, symBinAddr: 0x10000E5D0, symSize: 0x20 }
  - { offsetInCU: 0x20FE8, offset: 0x20FE8, size: 0x8, addend: 0x0, symName: __ZNKSt3__16vectorI4DateNS_9allocatorIS1_EEE11__make_iterB7v160006EPKS1_, symObjAddr: 0xB050, symBinAddr: 0x10000E5F0, symSize: 0x30 }
  - { offsetInCU: 0x2101D, offset: 0x2101D, size: 0x8, addend: 0x0, symName: __ZNSt3__111__wrap_iterIPK4DateEC1B7v160006EPKvS3_, symObjAddr: 0xB080, symBinAddr: 0x10000E620, symSize: 0x30 }
  - { offsetInCU: 0x21063, offset: 0x21063, size: 0x8, addend: 0x0, symName: __ZNSt3__111__wrap_iterIPK4DateEC2B7v160006EPKvS3_, symObjAddr: 0xB0B0, symBinAddr: 0x10000E650, symSize: 0x1D }
  - { offsetInCU: 0x39, offset: 0x213ED, size: 0x8, addend: 0x0, symName: __ZN13ConfigManager10pSingletonE, symObjAddr: 0x6AE20, symBinAddr: 0x100044000, symSize: 0x0 }
  - { offsetInCU: 0x5216, offset: 0x265CA, size: 0x8, addend: 0x0, symName: __ZNSt3__1L19piecewise_constructE, symObjAddr: 0x6211, symBinAddr: 0x10003B052, symSize: 0x0 }
  - { offsetInCU: 0xEFD9, offset: 0x3038D, size: 0x8, addend: 0x0, symName: __ZNSt3__17getlineB7v160006IcNS_11char_traitsIcEENS_9allocatorIcEEEERNS_13basic_istreamIT_T0_EES9_RNS_12basic_stringIS6_S7_T1_EE, symObjAddr: 0x7B0, symBinAddr: 0x10000ED20, symSize: 0x50 }
  - { offsetInCU: 0xF03C, offset: 0x303F0, size: 0x8, addend: 0x0, symName: __ZNSt3__1neB7v160006ERKNS_19__hash_map_iteratorINS_15__hash_iteratorIPNS_11__hash_nodeINS_17__hash_value_typeINS_12basic_stringIcNS_11char_traitsIcEENS_9allocatorIcEEEES9_EEPvEEEEEESH_, symObjAddr: 0xB10, symBinAddr: 0x10000F030, symSize: 0x30 }
  - { offsetInCU: 0xF079, offset: 0x3042D, size: 0x8, addend: 0x0, symName: __ZNSt3__17getlineB7v160006IcNS_11char_traitsIcEENS_9allocatorIcEEEERNS_13basic_istreamIT_T0_EES9_RNS_12basic_stringIS6_S7_T1_EES6_, symObjAddr: 0x1240, symBinAddr: 0x10000F3F0, symSize: 0x220 }
  - { offsetInCU: 0xF137, offset: 0x304EB, size: 0x8, addend: 0x0, symName: __ZNSt3__125__debug_db_invalidate_allB7v160006INS_12basic_stringIcNS_11char_traitsIcEENS_9allocatorIcEEEEEEvPT_, symObjAddr: 0x17E0, symBinAddr: 0x10000F880, symSize: 0x10 }
  - { offsetInCU: 0xF168, offset: 0x3051C, size: 0x8, addend: 0x0, symName: __ZNSt3__110__str_findB7v160006IcmNS_11char_traitsIcEELm18446744073709551615EEET0_PKT_S3_S6_S3_S3_, symObjAddr: 0x1AE0, symBinAddr: 0x10000FA50, symSize: 0xB0 }
  - { offsetInCU: 0xF20F, offset: 0x305C3, size: 0x8, addend: 0x0, symName: __ZNSt3__118__search_substringB7v160006IcNS_11char_traitsIcEEEEPKT_S5_S5_S5_S5_, symObjAddr: 0x1B90, symBinAddr: 0x10000FB00, symSize: 0x120 }
  - { offsetInCU: 0xF2A9, offset: 0x3065D, size: 0x8, addend: 0x0, symName: __ZNSt3__123__constexpr_char_memchrB7v160006EPKcim, symObjAddr: 0x1D80, symBinAddr: 0x10000FC90, symSize: 0x30 }
  - { offsetInCU: 0xF2F1, offset: 0x306A5, size: 0x8, addend: 0x0, symName: __ZNSt3__119__debug_db_insert_cB7v160006INS_13unordered_mapINS_12basic_stringIcNS_11char_traitsIcEENS_9allocatorIcEEEES7_NS_4hashIS7_EENS_8equal_toIS7_EENS5_INS_4pairIKS7_S7_EEEEEEEEvPT_, symObjAddr: 0x1E60, symBinAddr: 0x10000FD40, symSize: 0x10 }
  - { offsetInCU: 0xF322, offset: 0x306D6, size: 0x8, addend: 0x0, symName: __ZNSt3__118__debug_db_erase_cB7v160006INS_12__hash_tableINS_17__hash_value_typeINS_12basic_stringIcNS_11char_traitsIcEENS_9allocatorIcEEEES8_EENS_22__unordered_map_hasherIS8_S9_NS_4hashIS8_EENS_8equal_toIS8_EELb1EEENS_21__unordered_map_equalIS8_S9_SE_SC_Lb1EEENS6_IS9_EEEEEEvPT_, symObjAddr: 0x24E0, symBinAddr: 0x100010380, symSize: 0x10 }
  - { offsetInCU: 0xF386, offset: 0x3073A, size: 0x8, addend: 0x0, symName: __ZNSt3__17launderB7v160006INS_4pairIKNS_12basic_stringIcNS_11char_traitsIcEENS_9allocatorIcEEEES7_EEEEPT_SB_, symObjAddr: 0x2670, symBinAddr: 0x100010510, symSize: 0x20 }
  - { offsetInCU: 0xF3BD, offset: 0x30771, size: 0x8, addend: 0x0, symName: __ZNSt3__19__launderB7v160006INS_4pairIKNS_12basic_stringIcNS_11char_traitsIcEENS_9allocatorIcEEEES7_EEEEPT_SB_, symObjAddr: 0x2690, symBinAddr: 0x100010530, symSize: 0x10 }
  - { offsetInCU: 0xF3F4, offset: 0x307A8, size: 0x8, addend: 0x0, symName: __ZNSt3__17launderB7v160006IKNS_4pairIKNS_12basic_stringIcNS_11char_traitsIcEENS_9allocatorIcEEEES7_EEEEPT_SC_, symObjAddr: 0x4D50, symBinAddr: 0x100011390, symSize: 0x20 }
  - { offsetInCU: 0xF42B, offset: 0x307DF, size: 0x8, addend: 0x0, symName: __ZNSt3__19__launderB7v160006IKNS_4pairIKNS_12basic_stringIcNS_11char_traitsIcEENS_9allocatorIcEEEES7_EEEEPT_SC_, symObjAddr: 0x4D70, symBinAddr: 0x1000113B0, symSize: 0x10 }
  - { offsetInCU: 0xF480, offset: 0x30834, size: 0x8, addend: 0x0, symName: __ZNSt3__125__debug_db_invalidate_allB7v160006INS_12__hash_tableINS_17__hash_value_typeINS_12basic_stringIcNS_11char_traitsIcEENS_9allocatorIcEEEES8_EENS_22__unordered_map_hasherIS8_S9_NS_4hashIS8_EENS_8equal_toIS8_EELb1EEENS_21__unordered_map_equalIS8_S9_SE_SC_Lb1EEENS6_IS9_EEEEEEvPT_, symObjAddr: 0x57D0, symBinAddr: 0x100011C70, symSize: 0x10 }
  - { offsetInCU: 0xF4E4, offset: 0x30898, size: 0x8, addend: 0x0, symName: __ZNSt3__1neB7v160006ERKNS_15__hash_iteratorIPNS_11__hash_nodeINS_17__hash_value_typeINS_12basic_stringIcNS_11char_traitsIcEENS_9allocatorIcEEEES8_EEPvEEEESF_, symObjAddr: 0x5E80, symBinAddr: 0x1000121A0, symSize: 0x30 }
  - { offsetInCU: 0xF521, offset: 0x308D5, size: 0x8, addend: 0x0, symName: __ZNSt3__1eqB7v160006ERKNS_15__hash_iteratorIPNS_11__hash_nodeINS_17__hash_value_typeINS_12basic_stringIcNS_11char_traitsIcEENS_9allocatorIcEEEES8_EEPvEEEESF_, symObjAddr: 0x5EB0, symBinAddr: 0x1000121D0, symSize: 0x30 }
  - { offsetInCU: 0x12158, offset: 0x3350C, size: 0x8, addend: 0x0, symName: __ZN13ConfigManagerC2Ev, symObjAddr: 0x0, symBinAddr: 0x10000E670, symSize: 0xB0 }
  - { offsetInCU: 0x12184, offset: 0x33538, size: 0x8, addend: 0x0, symName: __ZNSt3__113unordered_mapINS_12basic_stringIcNS_11char_traitsIcEENS_9allocatorIcEEEES6_NS_4hashIS6_EENS_8equal_toIS6_EENS4_INS_4pairIKS6_S6_EEEEEC1B7v160006Ev, symObjAddr: 0xD0, symBinAddr: 0x10000E720, symSize: 0x20 }
  - { offsetInCU: 0x121AE, offset: 0x33562, size: 0x8, addend: 0x0, symName: __ZNSt3__113unordered_mapINS_12basic_stringIcNS_11char_traitsIcEENS_9allocatorIcEEEES6_NS_4hashIS6_EENS_8equal_toIS6_EENS4_INS_4pairIKS6_S6_EEEEED1B7v160006Ev, symObjAddr: 0x1A0, symBinAddr: 0x10000E740, symSize: 0x20 }
  - { offsetInCU: 0x121D8, offset: 0x3358C, size: 0x8, addend: 0x0, symName: __ZN13ConfigManagerC1Ev, symObjAddr: 0x1C0, symBinAddr: 0x10000E760, symSize: 0x20 }
  - { offsetInCU: 0x12204, offset: 0x335B8, size: 0x8, addend: 0x0, symName: __ZN13ConfigManager11GetInstanceEv, symObjAddr: 0x1E0, symBinAddr: 0x10000E780, symSize: 0x80 }
  - { offsetInCU: 0x1221A, offset: 0x335CE, size: 0x8, addend: 0x0, symName: __ZN13ConfigManager10loadConfigENSt3__112basic_stringIcNS0_11char_traitsIcEENS0_9allocatorIcEEEE, symObjAddr: 0x260, symBinAddr: 0x10000E800, symSize: 0x3C0 }
  - { offsetInCU: 0x123B3, offset: 0x33767, size: 0x8, addend: 0x0, symName: __ZNSt3__114basic_ifstreamIcNS_11char_traitsIcEEEC1ERKNS_12basic_stringIcS2_NS_9allocatorIcEEEEj, symObjAddr: 0x650, symBinAddr: 0x10000EBC0, symSize: 0x160 }
  - { offsetInCU: 0x123FD, offset: 0x337B1, size: 0x8, addend: 0x0, symName: __ZNKSt3__19basic_iosIcNS_11char_traitsIcEEEcvbB7v160006Ev, symObjAddr: 0x800, symBinAddr: 0x10000ED70, symSize: 0x30 }
  - { offsetInCU: 0x12423, offset: 0x337D7, size: 0x8, addend: 0x0, symName: __ZNKSt3__112basic_stringIcNS_11char_traitsIcEENS_9allocatorIcEEE6substrB7v160006Emm, symObjAddr: 0x830, symBinAddr: 0x10000EDA0, symSize: 0x70 }
  - { offsetInCU: 0x12467, offset: 0x3381B, size: 0x8, addend: 0x0, symName: __ZNKSt3__112basic_stringIcNS_11char_traitsIcEENS_9allocatorIcEEE4findB7v160006ERKS5_m, symObjAddr: 0x8A0, symBinAddr: 0x10000EE10, symSize: 0x70 }
  - { offsetInCU: 0x124AD, offset: 0x33861, size: 0x8, addend: 0x0, symName: __ZNKSt3__112basic_stringIcNS_11char_traitsIcEENS_9allocatorIcEEE6lengthB7v160006Ev, symObjAddr: 0x910, symBinAddr: 0x10000EE80, symSize: 0x20 }
  - { offsetInCU: 0x124D3, offset: 0x33887, size: 0x8, addend: 0x0, symName: __ZNSt3__113unordered_mapINS_12basic_stringIcNS_11char_traitsIcEENS_9allocatorIcEEEES6_NS_4hashIS6_EENS_8equal_toIS6_EENS4_INS_4pairIKS6_S6_EEEEEixERSC_, symObjAddr: 0x980, symBinAddr: 0x10000EEA0, symSize: 0x70 }
  - { offsetInCU: 0x1250F, offset: 0x338C3, size: 0x8, addend: 0x0, symName: __ZNSt3__114basic_ifstreamIcNS_11char_traitsIcEEED1Ev, symObjAddr: 0x9F0, symBinAddr: 0x10000EF10, symSize: 0x40 }
  - { offsetInCU: 0x1253C, offset: 0x338F0, size: 0x8, addend: 0x0, symName: __ZN13ConfigManager9getConfigENSt3__112basic_stringIcNS0_11char_traitsIcEENS0_9allocatorIcEEEE, symObjAddr: 0xA30, symBinAddr: 0x10000EF50, symSize: 0xE0 }
  - { offsetInCU: 0x12573, offset: 0x33927, size: 0x8, addend: 0x0, symName: __ZNSt3__113unordered_mapINS_12basic_stringIcNS_11char_traitsIcEENS_9allocatorIcEEEES6_NS_4hashIS6_EENS_8equal_toIS6_EENS4_INS_4pairIKS6_S6_EEEEE4findB7v160006ERSC_, symObjAddr: 0xB40, symBinAddr: 0x10000F060, symSize: 0x40 }
  - { offsetInCU: 0x125A8, offset: 0x3395C, size: 0x8, addend: 0x0, symName: __ZNSt3__113unordered_mapINS_12basic_stringIcNS_11char_traitsIcEENS_9allocatorIcEEEES6_NS_4hashIS6_EENS_8equal_toIS6_EENS4_INS_4pairIKS6_S6_EEEEE3endB7v160006Ev, symObjAddr: 0xB80, symBinAddr: 0x10000F0A0, symSize: 0x30 }
  - { offsetInCU: 0x125CE, offset: 0x33982, size: 0x8, addend: 0x0, symName: __ZN13ConfigManager14printAllConfigEv, symObjAddr: 0xBB0, symBinAddr: 0x10000F0D0, symSize: 0x120 }
  - { offsetInCU: 0x12612, offset: 0x339C6, size: 0x8, addend: 0x0, symName: __ZNKSt3__113unordered_mapINS_12basic_stringIcNS_11char_traitsIcEENS_9allocatorIcEEEES6_NS_4hashIS6_EENS_8equal_toIS6_EENS4_INS_4pairIKS6_S6_EEEEE4sizeB7v160006Ev, symObjAddr: 0xCD0, symBinAddr: 0x10000F1F0, symSize: 0x20 }
  - { offsetInCU: 0x12638, offset: 0x339EC, size: 0x8, addend: 0x0, symName: __ZNSt3__114basic_ifstreamIcNS_11char_traitsIcEEED2Ev, symObjAddr: 0xCF0, symBinAddr: 0x10000F210, symSize: 0x60 }
  - { offsetInCU: 0x12672, offset: 0x33A26, size: 0x8, addend: 0x0, symName: __ZTv0_n24_NSt3__114basic_ifstreamIcNS_11char_traitsIcEEED1Ev, symObjAddr: 0xD50, symBinAddr: 0x10000F270, symSize: 0x20 }
  - { offsetInCU: 0x1268E, offset: 0x33A42, size: 0x8, addend: 0x0, symName: __ZNSt3__19basic_iosIcNS_11char_traitsIcEEEC2B7v160006Ev, symObjAddr: 0xF20, symBinAddr: 0x10000F290, symSize: 0x40 }
  - { offsetInCU: 0x126B8, offset: 0x33A6C, size: 0x8, addend: 0x0, symName: __ZNSt3__113basic_istreamIcNS_11char_traitsIcEEEC2B7v160006EPNS_15basic_streambufIcS2_EE, symObjAddr: 0xF60, symBinAddr: 0x10000F2D0, symSize: 0x50 }
  - { offsetInCU: 0x126FD, offset: 0x33AB1, size: 0x8, addend: 0x0, symName: __ZNSt3__113basic_filebufIcNS_11char_traitsIcEEE4openERKNS_12basic_stringIcS2_NS_9allocatorIcEEEEj, symObjAddr: 0xFB0, symBinAddr: 0x10000F320, symSize: 0x40 }
  - { offsetInCU: 0x12741, offset: 0x33AF5, size: 0x8, addend: 0x0, symName: __ZNSt3__18ios_baseC2B7v160006Ev, symObjAddr: 0x1020, symBinAddr: 0x10000F360, symSize: 0x20 }
  - { offsetInCU: 0x1276B, offset: 0x33B1F, size: 0x8, addend: 0x0, symName: __ZNSt3__19basic_iosIcNS_11char_traitsIcEEE4initB7v160006EPNS_15basic_streambufIcS2_EE, symObjAddr: 0x1040, symBinAddr: 0x10000F380, symSize: 0x50 }
  - { offsetInCU: 0x127A2, offset: 0x33B56, size: 0x8, addend: 0x0, symName: __ZNKSt3__112basic_stringIcNS_11char_traitsIcEENS_9allocatorIcEEE5c_strB7v160006Ev, symObjAddr: 0x10A0, symBinAddr: 0x10000F3D0, symSize: 0x20 }
  - { offsetInCU: 0x127E6, offset: 0x33B9A, size: 0x8, addend: 0x0, symName: __ZNKSt3__113basic_istreamIcNS_11char_traitsIcEEE6sentrycvbB7v160006Ev, symObjAddr: 0x14E0, symBinAddr: 0x10000F610, symSize: 0x20 }
  - { offsetInCU: 0x1280C, offset: 0x33BC0, size: 0x8, addend: 0x0, symName: __ZNSt3__112basic_stringIcNS_11char_traitsIcEENS_9allocatorIcEEE5clearB7v160006Ev, symObjAddr: 0x1500, symBinAddr: 0x10000F630, symSize: 0xA0 }
  - { offsetInCU: 0x12834, offset: 0x33BE8, size: 0x8, addend: 0x0, symName: __ZNSt3__115basic_streambufIcNS_11char_traitsIcEEE6sbumpcB7v160006Ev, symObjAddr: 0x15C0, symBinAddr: 0x10000F6D0, symSize: 0x60 }
  - { offsetInCU: 0x1285A, offset: 0x33C0E, size: 0x8, addend: 0x0, symName: __ZNSt3__111char_traitsIcE12to_char_typeEi, symObjAddr: 0x1640, symBinAddr: 0x10000F730, symSize: 0x10 }
  - { offsetInCU: 0x1287D, offset: 0x33C31, size: 0x8, addend: 0x0, symName: __ZNSt3__111char_traitsIcE2eqEcc, symObjAddr: 0x1650, symBinAddr: 0x10000F740, symSize: 0x30 }
  - { offsetInCU: 0x128AE, offset: 0x33C62, size: 0x8, addend: 0x0, symName: __ZNKSt3__112basic_stringIcNS_11char_traitsIcEENS_9allocatorIcEEE8max_sizeB7v160006Ev, symObjAddr: 0x16D0, symBinAddr: 0x10000F770, symSize: 0xA0 }
  - { offsetInCU: 0x12900, offset: 0x33CB4, size: 0x8, addend: 0x0, symName: __ZNSt3__18ios_base18__setstate_nothrowB7v160006Ej, symObjAddr: 0x1770, symBinAddr: 0x10000F810, symSize: 0x50 }
  - { offsetInCU: 0x12935, offset: 0x33CE9, size: 0x8, addend: 0x0, symName: __ZNKSt3__19basic_iosIcNS_11char_traitsIcEEE10exceptionsB7v160006Ev, symObjAddr: 0x17C0, symBinAddr: 0x10000F860, symSize: 0x20 }
  - { offsetInCU: 0x1295B, offset: 0x33D0F, size: 0x8, addend: 0x0, symName: __ZNSt3__111char_traitsIcE6assignERcRKc, symObjAddr: 0x17F0, symBinAddr: 0x10000F890, symSize: 0x20 }
  - { offsetInCU: 0x1298C, offset: 0x33D40, size: 0x8, addend: 0x0, symName: __ZNSt3__112basic_stringIcNS_11char_traitsIcEENS_9allocatorIcEEE15__set_long_sizeB7v160006Em, symObjAddr: 0x1830, symBinAddr: 0x10000F8B0, symSize: 0x30 }
  - { offsetInCU: 0x129C1, offset: 0x33D75, size: 0x8, addend: 0x0, symName: __ZNSt3__112basic_stringIcNS_11char_traitsIcEENS_9allocatorIcEEE16__set_short_sizeB7v160006Em, symObjAddr: 0x1890, symBinAddr: 0x10000F8E0, symSize: 0x50 }
  - { offsetInCU: 0x129F6, offset: 0x33DAA, size: 0x8, addend: 0x0, symName: __ZNSt3__111char_traitsIcE11to_int_typeEc, symObjAddr: 0x1910, symBinAddr: 0x10000F930, symSize: 0x10 }
  - { offsetInCU: 0x12A23, offset: 0x33DD7, size: 0x8, addend: 0x0, symName: __ZNSt3__116allocator_traitsINS_9allocatorIcEEE8max_sizeB7v160006IS2_vEEmRKS2_, symObjAddr: 0x1970, symBinAddr: 0x10000F940, symSize: 0x20 }
  - { offsetInCU: 0x12A51, offset: 0x33E05, size: 0x8, addend: 0x0, symName: __ZNKSt3__112basic_stringIcNS_11char_traitsIcEENS_9allocatorIcEEE7__allocB7v160006Ev, symObjAddr: 0x1990, symBinAddr: 0x10000F960, symSize: 0x20 }
  - { offsetInCU: 0x12A77, offset: 0x33E2B, size: 0x8, addend: 0x0, symName: __ZNSt3__114numeric_limitsImE3maxB7v160006Ev, symObjAddr: 0x19B0, symBinAddr: 0x10000F980, symSize: 0x10 }
  - { offsetInCU: 0x12A8B, offset: 0x33E3F, size: 0x8, addend: 0x0, symName: __ZNKSt3__19allocatorIcE8max_sizeB7v160006Ev, symObjAddr: 0x19C0, symBinAddr: 0x10000F990, symSize: 0x20 }
  - { offsetInCU: 0x12AB1, offset: 0x33E65, size: 0x8, addend: 0x0, symName: __ZNKSt3__117__compressed_pairINS_12basic_stringIcNS_11char_traitsIcEENS_9allocatorIcEEE5__repES5_E6secondB7v160006Ev, symObjAddr: 0x19E0, symBinAddr: 0x10000F9B0, symSize: 0x20 }
  - { offsetInCU: 0x12AD7, offset: 0x33E8B, size: 0x8, addend: 0x0, symName: __ZNKSt3__122__compressed_pair_elemINS_9allocatorIcEELi1ELb1EE5__getB7v160006Ev, symObjAddr: 0x1A00, symBinAddr: 0x10000F9D0, symSize: 0x10 }
  - { offsetInCU: 0x12AFD, offset: 0x33EB1, size: 0x8, addend: 0x0, symName: __ZNSt3__123__libcpp_numeric_limitsImLb1EE3maxB7v160006Ev, symObjAddr: 0x1A10, symBinAddr: 0x10000F9E0, symSize: 0x10 }
  - { offsetInCU: 0x12B11, offset: 0x33EC5, size: 0x8, addend: 0x0, symName: __ZNKSt3__18ios_base10exceptionsB7v160006Ev, symObjAddr: 0x1A20, symBinAddr: 0x10000F9F0, symSize: 0x20 }
  - { offsetInCU: 0x12B39, offset: 0x33EED, size: 0x8, addend: 0x0, symName: __ZNKSt3__19basic_iosIcNS_11char_traitsIcEEE4failB7v160006Ev, symObjAddr: 0x1AA0, symBinAddr: 0x10000FA10, symSize: 0x20 }
  - { offsetInCU: 0x12B5F, offset: 0x33F13, size: 0x8, addend: 0x0, symName: __ZNKSt3__18ios_base4failB7v160006Ev, symObjAddr: 0x1AC0, symBinAddr: 0x10000FA30, symSize: 0x20 }
  - { offsetInCU: 0x12B87, offset: 0x33F3B, size: 0x8, addend: 0x0, symName: __ZNSt3__111char_traitsIcE4findEPKcmRS2_, symObjAddr: 0x1CB0, symBinAddr: 0x10000FC20, symSize: 0x70 }
  - { offsetInCU: 0x12BC6, offset: 0x33F7A, size: 0x8, addend: 0x0, symName: __ZNSt3__19allocatorIcEC1B7v160006Ev, symObjAddr: 0x1DE0, symBinAddr: 0x10000FCC0, symSize: 0x20 }
  - { offsetInCU: 0x12BF0, offset: 0x33FA4, size: 0x8, addend: 0x0, symName: __ZNSt3__113unordered_mapINS_12basic_stringIcNS_11char_traitsIcEENS_9allocatorIcEEEES6_NS_4hashIS6_EENS_8equal_toIS6_EENS4_INS_4pairIKS6_S6_EEEEEC2B7v160006Ev, symObjAddr: 0x1E00, symBinAddr: 0x10000FCE0, symSize: 0x40 }
  - { offsetInCU: 0x12C1A, offset: 0x33FCE, size: 0x8, addend: 0x0, symName: __ZNSt3__112__hash_tableINS_17__hash_value_typeINS_12basic_stringIcNS_11char_traitsIcEENS_9allocatorIcEEEES7_EENS_22__unordered_map_hasherIS7_S8_NS_4hashIS7_EENS_8equal_toIS7_EELb1EEENS_21__unordered_map_equalIS7_S8_SD_SB_Lb1EEENS5_IS8_EEEC1Ev, symObjAddr: 0x1E40, symBinAddr: 0x10000FD20, symSize: 0x20 }
  - { offsetInCU: 0x12C46, offset: 0x33FFA, size: 0x8, addend: 0x0, symName: __ZNSt3__112__hash_tableINS_17__hash_value_typeINS_12basic_stringIcNS_11char_traitsIcEENS_9allocatorIcEEEES7_EENS_22__unordered_map_hasherIS7_S8_NS_4hashIS7_EENS_8equal_toIS7_EELb1EEENS_21__unordered_map_equalIS7_S8_SD_SB_Lb1EEENS5_IS8_EEEC2Ev, symObjAddr: 0x1E70, symBinAddr: 0x10000FD50, symSize: 0x80 }
  - { offsetInCU: 0x12C72, offset: 0x34026, size: 0x8, addend: 0x0, symName: __ZNSt3__110unique_ptrIA_PNS_16__hash_node_baseIPNS_11__hash_nodeINS_17__hash_value_typeINS_12basic_stringIcNS_11char_traitsIcEENS_9allocatorIcEEEES9_EEPvEEEENS_25__bucket_list_deallocatorINS7_ISF_EEEEEC1B7v160006ILb1EvEEv, symObjAddr: 0x1EF0, symBinAddr: 0x10000FDD0, symSize: 0x20 }
  - { offsetInCU: 0x12CA7, offset: 0x3405B, size: 0x8, addend: 0x0, symName: __ZNSt3__117__compressed_pairINS_16__hash_node_baseIPNS_11__hash_nodeINS_17__hash_value_typeINS_12basic_stringIcNS_11char_traitsIcEENS_9allocatorIcEEEES9_EEPvEEEENS7_ISC_EEEC1B7v160006ILb1EvEEv, symObjAddr: 0x1F10, symBinAddr: 0x10000FDF0, symSize: 0x20 }
  - { offsetInCU: 0x12CE1, offset: 0x34095, size: 0x8, addend: 0x0, symName: __ZNSt3__117__compressed_pairImNS_22__unordered_map_hasherINS_12basic_stringIcNS_11char_traitsIcEENS_9allocatorIcEEEENS_17__hash_value_typeIS7_S7_EENS_4hashIS7_EENS_8equal_toIS7_EELb1EEEEC1B7v160006IiNS_18__default_init_tagEEEOT_OT0_, symObjAddr: 0x1F30, symBinAddr: 0x10000FE10, symSize: 0x30 }
  - { offsetInCU: 0x12D3E, offset: 0x340F2, size: 0x8, addend: 0x0, symName: __ZNSt3__117__compressed_pairIfNS_21__unordered_map_equalINS_12basic_stringIcNS_11char_traitsIcEENS_9allocatorIcEEEENS_17__hash_value_typeIS7_S7_EENS_8equal_toIS7_EENS_4hashIS7_EELb1EEEEC1B7v160006IfNS_18__default_init_tagEEEOT_OT0_, symObjAddr: 0x1F60, symBinAddr: 0x10000FE40, symSize: 0x30 }
  - { offsetInCU: 0x12D96, offset: 0x3414A, size: 0x8, addend: 0x0, symName: __ZNSt3__110unique_ptrIA_PNS_16__hash_node_baseIPNS_11__hash_nodeINS_17__hash_value_typeINS_12basic_stringIcNS_11char_traitsIcEENS_9allocatorIcEEEES9_EEPvEEEENS_25__bucket_list_deallocatorINS7_ISF_EEEEEC2B7v160006ILb1EvEEv, symObjAddr: 0x1F90, symBinAddr: 0x10000FE70, symSize: 0x30 }
  - { offsetInCU: 0x12DD0, offset: 0x34184, size: 0x8, addend: 0x0, symName: __ZNSt3__117__compressed_pairIPPNS_16__hash_node_baseIPNS_11__hash_nodeINS_17__hash_value_typeINS_12basic_stringIcNS_11char_traitsIcEENS_9allocatorIcEEEES9_EEPvEEEENS_25__bucket_list_deallocatorINS7_ISF_EEEEEC1B7v160006INS_16__value_init_tagESM_EEOT_OT0_, symObjAddr: 0x1FC0, symBinAddr: 0x10000FEA0, symSize: 0x30 }
  - { offsetInCU: 0x12E28, offset: 0x341DC, size: 0x8, addend: 0x0, symName: __ZNSt3__117__compressed_pairIPPNS_16__hash_node_baseIPNS_11__hash_nodeINS_17__hash_value_typeINS_12basic_stringIcNS_11char_traitsIcEENS_9allocatorIcEEEES9_EEPvEEEENS_25__bucket_list_deallocatorINS7_ISF_EEEEEC2B7v160006INS_16__value_init_tagESM_EEOT_OT0_, symObjAddr: 0x1FF0, symBinAddr: 0x10000FED0, symSize: 0x40 }
  - { offsetInCU: 0x12E80, offset: 0x34234, size: 0x8, addend: 0x0, symName: __ZNSt3__122__compressed_pair_elemIPPNS_16__hash_node_baseIPNS_11__hash_nodeINS_17__hash_value_typeINS_12basic_stringIcNS_11char_traitsIcEENS_9allocatorIcEEEES9_EEPvEEEELi0ELb0EEC2B7v160006ENS_16__value_init_tagE, symObjAddr: 0x2030, symBinAddr: 0x10000FF10, symSize: 0x20 }
  - { offsetInCU: 0x12EB5, offset: 0x34269, size: 0x8, addend: 0x0, symName: __ZNSt3__122__compressed_pair_elemINS_25__bucket_list_deallocatorINS_9allocatorIPNS_16__hash_node_baseIPNS_11__hash_nodeINS_17__hash_value_typeINS_12basic_stringIcNS_11char_traitsIcEENS2_IcEEEESA_EEPvEEEEEEEELi1ELb0EEC2B7v160006ENS_16__value_init_tagE, symObjAddr: 0x2050, symBinAddr: 0x10000FF30, symSize: 0x20 }
  - { offsetInCU: 0x12EEA, offset: 0x3429E, size: 0x8, addend: 0x0, symName: __ZNSt3__125__bucket_list_deallocatorINS_9allocatorIPNS_16__hash_node_baseIPNS_11__hash_nodeINS_17__hash_value_typeINS_12basic_stringIcNS_11char_traitsIcEENS1_IcEEEES9_EEPvEEEEEEEC1B7v160006Ev, symObjAddr: 0x2070, symBinAddr: 0x10000FF50, symSize: 0x20 }
  - { offsetInCU: 0x12F14, offset: 0x342C8, size: 0x8, addend: 0x0, symName: __ZNSt3__125__bucket_list_deallocatorINS_9allocatorIPNS_16__hash_node_baseIPNS_11__hash_nodeINS_17__hash_value_typeINS_12basic_stringIcNS_11char_traitsIcEENS1_IcEEEES9_EEPvEEEEEEEC2B7v160006Ev, symObjAddr: 0x2090, symBinAddr: 0x10000FF70, symSize: 0x40 }
  - { offsetInCU: 0x12F3E, offset: 0x342F2, size: 0x8, addend: 0x0, symName: __ZNSt3__117__compressed_pairImNS_9allocatorIPNS_16__hash_node_baseIPNS_11__hash_nodeINS_17__hash_value_typeINS_12basic_stringIcNS_11char_traitsIcEENS1_IcEEEES9_EEPvEEEEEEEC1B7v160006IiNS_18__default_init_tagEEEOT_OT0_, symObjAddr: 0x20D0, symBinAddr: 0x10000FFB0, symSize: 0x30 }
  - { offsetInCU: 0x12F96, offset: 0x3434A, size: 0x8, addend: 0x0, symName: __ZNSt3__117__compressed_pairImNS_9allocatorIPNS_16__hash_node_baseIPNS_11__hash_nodeINS_17__hash_value_typeINS_12basic_stringIcNS_11char_traitsIcEENS1_IcEEEES9_EEPvEEEEEEEC2B7v160006IiNS_18__default_init_tagEEEOT_OT0_, symObjAddr: 0x2100, symBinAddr: 0x10000FFE0, symSize: 0x40 }
  - { offsetInCU: 0x12FEE, offset: 0x343A2, size: 0x8, addend: 0x0, symName: __ZNSt3__122__compressed_pair_elemINS_9allocatorIPNS_16__hash_node_baseIPNS_11__hash_nodeINS_17__hash_value_typeINS_12basic_stringIcNS_11char_traitsIcEENS1_IcEEEES9_EEPvEEEEEELi1ELb1EEC2B7v160006ENS_18__default_init_tagE, symObjAddr: 0x2160, symBinAddr: 0x100010020, symSize: 0x20 }
  - { offsetInCU: 0x13023, offset: 0x343D7, size: 0x8, addend: 0x0, symName: __ZNSt3__19allocatorIPNS_16__hash_node_baseIPNS_11__hash_nodeINS_17__hash_value_typeINS_12basic_stringIcNS_11char_traitsIcEENS0_IcEEEES8_EEPvEEEEEC2B7v160006Ev, symObjAddr: 0x2180, symBinAddr: 0x100010040, symSize: 0x20 }
  - { offsetInCU: 0x1304D, offset: 0x34401, size: 0x8, addend: 0x0, symName: __ZNSt3__116__non_trivial_ifILb1ENS_9allocatorIPNS_16__hash_node_baseIPNS_11__hash_nodeINS_17__hash_value_typeINS_12basic_stringIcNS_11char_traitsIcEENS1_IcEEEES9_EEPvEEEEEEEC2B7v160006Ev, symObjAddr: 0x21A0, symBinAddr: 0x100010060, symSize: 0x10 }
  - { offsetInCU: 0x13077, offset: 0x3442B, size: 0x8, addend: 0x0, symName: __ZNSt3__117__compressed_pairINS_16__hash_node_baseIPNS_11__hash_nodeINS_17__hash_value_typeINS_12basic_stringIcNS_11char_traitsIcEENS_9allocatorIcEEEES9_EEPvEEEENS7_ISC_EEEC2B7v160006ILb1EvEEv, symObjAddr: 0x21B0, symBinAddr: 0x100010070, symSize: 0x30 }
  - { offsetInCU: 0x130AC, offset: 0x34460, size: 0x8, addend: 0x0, symName: __ZNSt3__122__compressed_pair_elemINS_16__hash_node_baseIPNS_11__hash_nodeINS_17__hash_value_typeINS_12basic_stringIcNS_11char_traitsIcEENS_9allocatorIcEEEES9_EEPvEEEELi0ELb0EEC2B7v160006ENS_16__value_init_tagE, symObjAddr: 0x21E0, symBinAddr: 0x1000100A0, symSize: 0x20 }
  - { offsetInCU: 0x130E1, offset: 0x34495, size: 0x8, addend: 0x0, symName: __ZNSt3__122__compressed_pair_elemINS_9allocatorINS_11__hash_nodeINS_17__hash_value_typeINS_12basic_stringIcNS_11char_traitsIcEENS1_IcEEEES8_EEPvEEEELi1ELb1EEC2B7v160006ENS_16__value_init_tagE, symObjAddr: 0x2200, symBinAddr: 0x1000100C0, symSize: 0x20 }
  - { offsetInCU: 0x13116, offset: 0x344CA, size: 0x8, addend: 0x0, symName: __ZNSt3__116__hash_node_baseIPNS_11__hash_nodeINS_17__hash_value_typeINS_12basic_stringIcNS_11char_traitsIcEENS_9allocatorIcEEEES8_EEPvEEEC1B7v160006Ev, symObjAddr: 0x2220, symBinAddr: 0x1000100E0, symSize: 0x20 }
  - { offsetInCU: 0x13140, offset: 0x344F4, size: 0x8, addend: 0x0, symName: __ZNSt3__116__hash_node_baseIPNS_11__hash_nodeINS_17__hash_value_typeINS_12basic_stringIcNS_11char_traitsIcEENS_9allocatorIcEEEES8_EEPvEEEC2B7v160006Ev, symObjAddr: 0x2240, symBinAddr: 0x100010100, symSize: 0x20 }
  - { offsetInCU: 0x1316A, offset: 0x3451E, size: 0x8, addend: 0x0, symName: __ZNSt3__19allocatorINS_11__hash_nodeINS_17__hash_value_typeINS_12basic_stringIcNS_11char_traitsIcEENS0_IcEEEES7_EEPvEEEC2B7v160006Ev, symObjAddr: 0x2260, symBinAddr: 0x100010120, symSize: 0x20 }
  - { offsetInCU: 0x13194, offset: 0x34548, size: 0x8, addend: 0x0, symName: __ZNSt3__116__non_trivial_ifILb1ENS_9allocatorINS_11__hash_nodeINS_17__hash_value_typeINS_12basic_stringIcNS_11char_traitsIcEENS1_IcEEEES8_EEPvEEEEEC2B7v160006Ev, symObjAddr: 0x2280, symBinAddr: 0x100010140, symSize: 0x10 }
  - { offsetInCU: 0x131BE, offset: 0x34572, size: 0x8, addend: 0x0, symName: __ZNSt3__117__compressed_pairImNS_22__unordered_map_hasherINS_12basic_stringIcNS_11char_traitsIcEENS_9allocatorIcEEEENS_17__hash_value_typeIS7_S7_EENS_4hashIS7_EENS_8equal_toIS7_EELb1EEEEC2B7v160006IiNS_18__default_init_tagEEEOT_OT0_, symObjAddr: 0x2290, symBinAddr: 0x100010150, symSize: 0x40 }
  - { offsetInCU: 0x13216, offset: 0x345CA, size: 0x8, addend: 0x0, symName: __ZNSt3__122__compressed_pair_elemINS_22__unordered_map_hasherINS_12basic_stringIcNS_11char_traitsIcEENS_9allocatorIcEEEENS_17__hash_value_typeIS7_S7_EENS_4hashIS7_EENS_8equal_toIS7_EELb1EEELi1ELb1EEC2B7v160006ENS_18__default_init_tagE, symObjAddr: 0x22D0, symBinAddr: 0x100010190, symSize: 0x20 }
  - { offsetInCU: 0x1324B, offset: 0x345FF, size: 0x8, addend: 0x0, symName: __ZNSt3__122__unordered_map_hasherINS_12basic_stringIcNS_11char_traitsIcEENS_9allocatorIcEEEENS_17__hash_value_typeIS6_S6_EENS_4hashIS6_EENS_8equal_toIS6_EELb1EEC2B7v160006Ev, symObjAddr: 0x22F0, symBinAddr: 0x1000101B0, symSize: 0x10 }
  - { offsetInCU: 0x13275, offset: 0x34629, size: 0x8, addend: 0x0, symName: __ZNSt3__117__compressed_pairIfNS_21__unordered_map_equalINS_12basic_stringIcNS_11char_traitsIcEENS_9allocatorIcEEEENS_17__hash_value_typeIS7_S7_EENS_8equal_toIS7_EENS_4hashIS7_EELb1EEEEC2B7v160006IfNS_18__default_init_tagEEEOT_OT0_, symObjAddr: 0x2300, symBinAddr: 0x1000101C0, symSize: 0x40 }
  - { offsetInCU: 0x132CD, offset: 0x34681, size: 0x8, addend: 0x0, symName: __ZNSt3__122__compressed_pair_elemINS_21__unordered_map_equalINS_12basic_stringIcNS_11char_traitsIcEENS_9allocatorIcEEEENS_17__hash_value_typeIS7_S7_EENS_8equal_toIS7_EENS_4hashIS7_EELb1EEELi1ELb1EEC2B7v160006ENS_18__default_init_tagE, symObjAddr: 0x2360, symBinAddr: 0x100010200, symSize: 0x20 }
  - { offsetInCU: 0x13302, offset: 0x346B6, size: 0x8, addend: 0x0, symName: __ZNSt3__121__unordered_map_equalINS_12basic_stringIcNS_11char_traitsIcEENS_9allocatorIcEEEENS_17__hash_value_typeIS6_S6_EENS_8equal_toIS6_EENS_4hashIS6_EELb1EEC2B7v160006Ev, symObjAddr: 0x2380, symBinAddr: 0x100010220, symSize: 0x10 }
  - { offsetInCU: 0x1332C, offset: 0x346E0, size: 0x8, addend: 0x0, symName: __ZNSt3__113unordered_mapINS_12basic_stringIcNS_11char_traitsIcEENS_9allocatorIcEEEES6_NS_4hashIS6_EENS_8equal_toIS6_EENS4_INS_4pairIKS6_S6_EEEEED2B7v160006Ev, symObjAddr: 0x2390, symBinAddr: 0x100010230, symSize: 0x20 }
  - { offsetInCU: 0x13356, offset: 0x3470A, size: 0x8, addend: 0x0, symName: __ZNSt3__112__hash_tableINS_17__hash_value_typeINS_12basic_stringIcNS_11char_traitsIcEENS_9allocatorIcEEEES7_EENS_22__unordered_map_hasherIS7_S8_NS_4hashIS7_EENS_8equal_toIS7_EELb1EEENS_21__unordered_map_equalIS7_S8_SD_SB_Lb1EEENS5_IS8_EEED1Ev, symObjAddr: 0x23B0, symBinAddr: 0x100010250, symSize: 0x20 }
  - { offsetInCU: 0x13382, offset: 0x34736, size: 0x8, addend: 0x0, symName: __ZNSt3__112__hash_tableINS_17__hash_value_typeINS_12basic_stringIcNS_11char_traitsIcEENS_9allocatorIcEEEES7_EENS_22__unordered_map_hasherIS7_S8_NS_4hashIS7_EENS_8equal_toIS7_EELb1EEENS_21__unordered_map_equalIS7_S8_SD_SB_Lb1EEENS5_IS8_EEED2Ev, symObjAddr: 0x23D0, symBinAddr: 0x100010270, symSize: 0x50 }
  - { offsetInCU: 0x133AE, offset: 0x34762, size: 0x8, addend: 0x0, symName: __ZNSt3__112__hash_tableINS_17__hash_value_typeINS_12basic_stringIcNS_11char_traitsIcEENS_9allocatorIcEEEES7_EENS_22__unordered_map_hasherIS7_S8_NS_4hashIS7_EENS_8equal_toIS7_EELb1EEENS_21__unordered_map_equalIS7_S8_SD_SB_Lb1EEENS5_IS8_EEE17__deallocate_nodeEPNS_16__hash_node_baseIPNS_11__hash_nodeIS8_PvEEEE, symObjAddr: 0x2420, symBinAddr: 0x1000102C0, symSize: 0xA0 }
  - { offsetInCU: 0x13418, offset: 0x347CC, size: 0x8, addend: 0x0, symName: __ZNSt3__117__compressed_pairINS_16__hash_node_baseIPNS_11__hash_nodeINS_17__hash_value_typeINS_12basic_stringIcNS_11char_traitsIcEENS_9allocatorIcEEEES9_EEPvEEEENS7_ISC_EEE5firstB7v160006Ev, symObjAddr: 0x24C0, symBinAddr: 0x100010360, symSize: 0x20 }
  - { offsetInCU: 0x1343E, offset: 0x347F2, size: 0x8, addend: 0x0, symName: __ZNSt3__110unique_ptrIA_PNS_16__hash_node_baseIPNS_11__hash_nodeINS_17__hash_value_typeINS_12basic_stringIcNS_11char_traitsIcEENS_9allocatorIcEEEES9_EEPvEEEENS_25__bucket_list_deallocatorINS7_ISF_EEEEED1B7v160006Ev, symObjAddr: 0x24F0, symBinAddr: 0x100010390, symSize: 0x20 }
  - { offsetInCU: 0x13468, offset: 0x3481C, size: 0x8, addend: 0x0, symName: __ZNSt3__112__hash_tableINS_17__hash_value_typeINS_12basic_stringIcNS_11char_traitsIcEENS_9allocatorIcEEEES7_EENS_22__unordered_map_hasherIS7_S8_NS_4hashIS7_EENS_8equal_toIS7_EELb1EEENS_21__unordered_map_equalIS7_S8_SD_SB_Lb1EEENS5_IS8_EEE12__node_allocB7v160006Ev, symObjAddr: 0x2510, symBinAddr: 0x1000103B0, symSize: 0x20 }
  - { offsetInCU: 0x1348E, offset: 0x34842, size: 0x8, addend: 0x0, symName: __ZNSt3__116__hash_node_baseIPNS_11__hash_nodeINS_17__hash_value_typeINS_12basic_stringIcNS_11char_traitsIcEENS_9allocatorIcEEEES8_EEPvEEE8__upcastB7v160006Ev, symObjAddr: 0x2530, symBinAddr: 0x1000103D0, symSize: 0x20 }
  - { offsetInCU: 0x134B4, offset: 0x34868, size: 0x8, addend: 0x0, symName: __ZNSt3__116allocator_traitsINS_9allocatorINS_11__hash_nodeINS_17__hash_value_typeINS_12basic_stringIcNS_11char_traitsIcEENS1_IcEEEES8_EEPvEEEEE7destroyB7v160006INS_4pairIKS8_S8_EEvvEEvRSC_PT_, symObjAddr: 0x2550, symBinAddr: 0x1000103F0, symSize: 0x20 }
  - { offsetInCU: 0x134EE, offset: 0x348A2, size: 0x8, addend: 0x0, symName: __ZNSt3__122__hash_key_value_typesINS_17__hash_value_typeINS_12basic_stringIcNS_11char_traitsIcEENS_9allocatorIcEEEES7_EEE9__get_ptrB7v160006ERS8_, symObjAddr: 0x2570, symBinAddr: 0x100010410, symSize: 0x20 }
  - { offsetInCU: 0x13511, offset: 0x348C5, size: 0x8, addend: 0x0, symName: __ZNSt3__116allocator_traitsINS_9allocatorINS_11__hash_nodeINS_17__hash_value_typeINS_12basic_stringIcNS_11char_traitsIcEENS1_IcEEEES8_EEPvEEEEE10deallocateB7v160006ERSC_PSB_m, symObjAddr: 0x2590, symBinAddr: 0x100010430, symSize: 0x30 }
  - { offsetInCU: 0x13553, offset: 0x34907, size: 0x8, addend: 0x0, symName: __ZNSt3__117__compressed_pairINS_16__hash_node_baseIPNS_11__hash_nodeINS_17__hash_value_typeINS_12basic_stringIcNS_11char_traitsIcEENS_9allocatorIcEEEES9_EEPvEEEENS7_ISC_EEE6secondB7v160006Ev, symObjAddr: 0x25C0, symBinAddr: 0x100010460, symSize: 0x20 }
  - { offsetInCU: 0x13579, offset: 0x3492D, size: 0x8, addend: 0x0, symName: __ZNSt3__122__compressed_pair_elemINS_9allocatorINS_11__hash_nodeINS_17__hash_value_typeINS_12basic_stringIcNS_11char_traitsIcEENS1_IcEEEES8_EEPvEEEELi1ELb1EE5__getB7v160006Ev, symObjAddr: 0x25E0, symBinAddr: 0x100010480, symSize: 0x10 }
  - { offsetInCU: 0x1359F, offset: 0x34953, size: 0x8, addend: 0x0, symName: __ZNSt3__114pointer_traitsIPNS_16__hash_node_baseIPNS_11__hash_nodeINS_17__hash_value_typeINS_12basic_stringIcNS_11char_traitsIcEENS_9allocatorIcEEEES9_EEPvEEEEE10pointer_toB7v160006ERSE_, symObjAddr: 0x25F0, symBinAddr: 0x100010490, symSize: 0x10 }
  - { offsetInCU: 0x135C2, offset: 0x34976, size: 0x8, addend: 0x0, symName: __ZNSt3__14pairIKNS_12basic_stringIcNS_11char_traitsIcEENS_9allocatorIcEEEES6_ED1Ev, symObjAddr: 0x2600, symBinAddr: 0x1000104A0, symSize: 0x20 }
  - { offsetInCU: 0x135EE, offset: 0x349A2, size: 0x8, addend: 0x0, symName: __ZNSt3__14pairIKNS_12basic_stringIcNS_11char_traitsIcEENS_9allocatorIcEEEES6_ED2Ev, symObjAddr: 0x2620, symBinAddr: 0x1000104C0, symSize: 0x30 }
  - { offsetInCU: 0x1361A, offset: 0x349CE, size: 0x8, addend: 0x0, symName: __ZNSt3__117__hash_value_typeINS_12basic_stringIcNS_11char_traitsIcEENS_9allocatorIcEEEES6_E11__get_valueB7v160006Ev, symObjAddr: 0x2650, symBinAddr: 0x1000104F0, symSize: 0x20 }
  - { offsetInCU: 0x13640, offset: 0x349F4, size: 0x8, addend: 0x0, symName: __ZNSt3__19allocatorINS_11__hash_nodeINS_17__hash_value_typeINS_12basic_stringIcNS_11char_traitsIcEENS0_IcEEEES7_EEPvEEE10deallocateB7v160006EPSA_m, symObjAddr: 0x26A0, symBinAddr: 0x100010540, symSize: 0x40 }
  - { offsetInCU: 0x13682, offset: 0x34A36, size: 0x8, addend: 0x0, symName: __ZNSt3__122__compressed_pair_elemINS_16__hash_node_baseIPNS_11__hash_nodeINS_17__hash_value_typeINS_12basic_stringIcNS_11char_traitsIcEENS_9allocatorIcEEEES9_EEPvEEEELi0ELb0EE5__getB7v160006Ev, symObjAddr: 0x2800, symBinAddr: 0x100010580, symSize: 0x10 }
  - { offsetInCU: 0x136A8, offset: 0x34A5C, size: 0x8, addend: 0x0, symName: __ZNSt3__110unique_ptrIA_PNS_16__hash_node_baseIPNS_11__hash_nodeINS_17__hash_value_typeINS_12basic_stringIcNS_11char_traitsIcEENS_9allocatorIcEEEES9_EEPvEEEENS_25__bucket_list_deallocatorINS7_ISF_EEEEED2B7v160006Ev, symObjAddr: 0x2810, symBinAddr: 0x100010590, symSize: 0x20 }
  - { offsetInCU: 0x136D2, offset: 0x34A86, size: 0x8, addend: 0x0, symName: __ZNSt3__110unique_ptrIA_PNS_16__hash_node_baseIPNS_11__hash_nodeINS_17__hash_value_typeINS_12basic_stringIcNS_11char_traitsIcEENS_9allocatorIcEEEES9_EEPvEEEENS_25__bucket_list_deallocatorINS7_ISF_EEEEE5resetB7v160006EDn, symObjAddr: 0x2830, symBinAddr: 0x1000105B0, symSize: 0x60 }
  - { offsetInCU: 0x13712, offset: 0x34AC6, size: 0x8, addend: 0x0, symName: __ZNSt3__117__compressed_pairIPPNS_16__hash_node_baseIPNS_11__hash_nodeINS_17__hash_value_typeINS_12basic_stringIcNS_11char_traitsIcEENS_9allocatorIcEEEES9_EEPvEEEENS_25__bucket_list_deallocatorINS7_ISF_EEEEE5firstB7v160006Ev, symObjAddr: 0x2890, symBinAddr: 0x100010610, symSize: 0x20 }
  - { offsetInCU: 0x13738, offset: 0x34AEC, size: 0x8, addend: 0x0, symName: __ZNSt3__117__compressed_pairIPPNS_16__hash_node_baseIPNS_11__hash_nodeINS_17__hash_value_typeINS_12basic_stringIcNS_11char_traitsIcEENS_9allocatorIcEEEES9_EEPvEEEENS_25__bucket_list_deallocatorINS7_ISF_EEEEE6secondB7v160006Ev, symObjAddr: 0x28B0, symBinAddr: 0x100010630, symSize: 0x20 }
  - { offsetInCU: 0x1375E, offset: 0x34B12, size: 0x8, addend: 0x0, symName: __ZNSt3__125__bucket_list_deallocatorINS_9allocatorIPNS_16__hash_node_baseIPNS_11__hash_nodeINS_17__hash_value_typeINS_12basic_stringIcNS_11char_traitsIcEENS1_IcEEEES9_EEPvEEEEEEEclB7v160006EPSF_, symObjAddr: 0x28D0, symBinAddr: 0x100010650, symSize: 0x50 }
  - { offsetInCU: 0x13793, offset: 0x34B47, size: 0x8, addend: 0x0, symName: __ZNSt3__122__compressed_pair_elemIPPNS_16__hash_node_baseIPNS_11__hash_nodeINS_17__hash_value_typeINS_12basic_stringIcNS_11char_traitsIcEENS_9allocatorIcEEEES9_EEPvEEEELi0ELb0EE5__getB7v160006Ev, symObjAddr: 0x2920, symBinAddr: 0x1000106A0, symSize: 0x10 }
  - { offsetInCU: 0x137B9, offset: 0x34B6D, size: 0x8, addend: 0x0, symName: __ZNSt3__122__compressed_pair_elemINS_25__bucket_list_deallocatorINS_9allocatorIPNS_16__hash_node_baseIPNS_11__hash_nodeINS_17__hash_value_typeINS_12basic_stringIcNS_11char_traitsIcEENS2_IcEEEESA_EEPvEEEEEEEELi1ELb0EE5__getB7v160006Ev, symObjAddr: 0x2930, symBinAddr: 0x1000106B0, symSize: 0x10 }
  - { offsetInCU: 0x137DF, offset: 0x34B93, size: 0x8, addend: 0x0, symName: __ZNSt3__116allocator_traitsINS_9allocatorIPNS_16__hash_node_baseIPNS_11__hash_nodeINS_17__hash_value_typeINS_12basic_stringIcNS_11char_traitsIcEENS1_IcEEEES9_EEPvEEEEEEE10deallocateB7v160006ERSG_PSF_m, symObjAddr: 0x2940, symBinAddr: 0x1000106C0, symSize: 0x30 }
  - { offsetInCU: 0x13821, offset: 0x34BD5, size: 0x8, addend: 0x0, symName: __ZNSt3__125__bucket_list_deallocatorINS_9allocatorIPNS_16__hash_node_baseIPNS_11__hash_nodeINS_17__hash_value_typeINS_12basic_stringIcNS_11char_traitsIcEENS1_IcEEEES9_EEPvEEEEEEE7__allocB7v160006Ev, symObjAddr: 0x2970, symBinAddr: 0x1000106F0, symSize: 0x20 }
  - { offsetInCU: 0x13847, offset: 0x34BFB, size: 0x8, addend: 0x0, symName: __ZNSt3__125__bucket_list_deallocatorINS_9allocatorIPNS_16__hash_node_baseIPNS_11__hash_nodeINS_17__hash_value_typeINS_12basic_stringIcNS_11char_traitsIcEENS1_IcEEEES9_EEPvEEEEEEE4sizeB7v160006Ev, symObjAddr: 0x2990, symBinAddr: 0x100010710, symSize: 0x20 }
  - { offsetInCU: 0x1386D, offset: 0x34C21, size: 0x8, addend: 0x0, symName: __ZNSt3__19allocatorIPNS_16__hash_node_baseIPNS_11__hash_nodeINS_17__hash_value_typeINS_12basic_stringIcNS_11char_traitsIcEENS0_IcEEEES8_EEPvEEEEE10deallocateB7v160006EPSE_m, symObjAddr: 0x29B0, symBinAddr: 0x100010730, symSize: 0x40 }
  - { offsetInCU: 0x138AF, offset: 0x34C63, size: 0x8, addend: 0x0, symName: __ZNSt3__117__compressed_pairImNS_9allocatorIPNS_16__hash_node_baseIPNS_11__hash_nodeINS_17__hash_value_typeINS_12basic_stringIcNS_11char_traitsIcEENS1_IcEEEES9_EEPvEEEEEEE6secondB7v160006Ev, symObjAddr: 0x29F0, symBinAddr: 0x100010770, symSize: 0x20 }
  - { offsetInCU: 0x138D5, offset: 0x34C89, size: 0x8, addend: 0x0, symName: __ZNSt3__122__compressed_pair_elemINS_9allocatorIPNS_16__hash_node_baseIPNS_11__hash_nodeINS_17__hash_value_typeINS_12basic_stringIcNS_11char_traitsIcEENS1_IcEEEES9_EEPvEEEEEELi1ELb1EE5__getB7v160006Ev, symObjAddr: 0x2A10, symBinAddr: 0x100010790, symSize: 0x10 }
  - { offsetInCU: 0x138FB, offset: 0x34CAF, size: 0x8, addend: 0x0, symName: __ZNSt3__117__compressed_pairImNS_9allocatorIPNS_16__hash_node_baseIPNS_11__hash_nodeINS_17__hash_value_typeINS_12basic_stringIcNS_11char_traitsIcEENS1_IcEEEES9_EEPvEEEEEEE5firstB7v160006Ev, symObjAddr: 0x2A20, symBinAddr: 0x1000107A0, symSize: 0x20 }
  - { offsetInCU: 0x13930, offset: 0x34CE4, size: 0x8, addend: 0x0, symName: __ZNSt3__112__hash_tableINS_17__hash_value_typeINS_12basic_stringIcNS_11char_traitsIcEENS_9allocatorIcEEEES7_EENS_22__unordered_map_hasherIS7_S8_NS_4hashIS7_EENS_8equal_toIS7_EELb1EEENS_21__unordered_map_equalIS7_S8_SD_SB_Lb1EEENS5_IS8_EEE25__emplace_unique_key_argsIS7_JRKNS_21piecewise_construct_tENS_5tupleIJRKS7_EEENSN_IJEEEEEENS_4pairINS_15__hash_iteratorIPNS_11__hash_nodeIS8_PvEEEEbEERKT_DpOT0_, symObjAddr: 0x31F0, symBinAddr: 0x1000107C0, symSize: 0x650 }
  - { offsetInCU: 0x13A38, offset: 0x34DEC, size: 0x8, addend: 0x0, symName: __ZNKSt3__115__hash_iteratorIPNS_11__hash_nodeINS_17__hash_value_typeINS_12basic_stringIcNS_11char_traitsIcEENS_9allocatorIcEEEES8_EEPvEEEptB7v160006Ev, symObjAddr: 0x3880, symBinAddr: 0x100010E10, symSize: 0x30 }
  - { offsetInCU: 0x13A5E, offset: 0x34E12, size: 0x8, addend: 0x0, symName: __ZNSt3__112__hash_tableINS_17__hash_value_typeINS_12basic_stringIcNS_11char_traitsIcEENS_9allocatorIcEEEES7_EENS_22__unordered_map_hasherIS7_S8_NS_4hashIS7_EENS_8equal_toIS7_EELb1EEENS_21__unordered_map_equalIS7_S8_SD_SB_Lb1EEENS5_IS8_EEE13hash_functionB7v160006Ev, symObjAddr: 0x38B0, symBinAddr: 0x100010E40, symSize: 0x20 }
  - { offsetInCU: 0x13A84, offset: 0x34E38, size: 0x8, addend: 0x0, symName: __ZNKSt3__122__unordered_map_hasherINS_12basic_stringIcNS_11char_traitsIcEENS_9allocatorIcEEEENS_17__hash_value_typeIS6_S6_EENS_4hashIS6_EENS_8equal_toIS6_EELb1EEclB7v160006ERKS6_, symObjAddr: 0x38D0, symBinAddr: 0x100010E60, symSize: 0x30 }
  - { offsetInCU: 0x13AB9, offset: 0x34E6D, size: 0x8, addend: 0x0, symName: __ZNKSt3__112__hash_tableINS_17__hash_value_typeINS_12basic_stringIcNS_11char_traitsIcEENS_9allocatorIcEEEES7_EENS_22__unordered_map_hasherIS7_S8_NS_4hashIS7_EENS_8equal_toIS7_EELb1EEENS_21__unordered_map_equalIS7_S8_SD_SB_Lb1EEENS5_IS8_EEE12bucket_countB7v160006Ev, symObjAddr: 0x3900, symBinAddr: 0x100010E90, symSize: 0x30 }
  - { offsetInCU: 0x13ADF, offset: 0x34E93, size: 0x8, addend: 0x0, symName: __ZNKSt3__110unique_ptrIA_PNS_16__hash_node_baseIPNS_11__hash_nodeINS_17__hash_value_typeINS_12basic_stringIcNS_11char_traitsIcEENS_9allocatorIcEEEES9_EEPvEEEENS_25__bucket_list_deallocatorINS7_ISF_EEEEEixB7v160006Em, symObjAddr: 0x39B0, symBinAddr: 0x100010EC0, symSize: 0x30 }
  - { offsetInCU: 0x13B14, offset: 0x34EC8, size: 0x8, addend: 0x0, symName: __ZNKSt3__116__hash_node_baseIPNS_11__hash_nodeINS_17__hash_value_typeINS_12basic_stringIcNS_11char_traitsIcEENS_9allocatorIcEEEES8_EEPvEEE6__hashB7v160006Ev, symObjAddr: 0x39E0, symBinAddr: 0x100010EF0, symSize: 0x20 }
  - { offsetInCU: 0x13B3A, offset: 0x34EEE, size: 0x8, addend: 0x0, symName: __ZNSt3__112__hash_tableINS_17__hash_value_typeINS_12basic_stringIcNS_11char_traitsIcEENS_9allocatorIcEEEES7_EENS_22__unordered_map_hasherIS7_S8_NS_4hashIS7_EENS_8equal_toIS7_EELb1EEENS_21__unordered_map_equalIS7_S8_SD_SB_Lb1EEENS5_IS8_EEE6key_eqB7v160006Ev, symObjAddr: 0x3A00, symBinAddr: 0x100010F10, symSize: 0x20 }
  - { offsetInCU: 0x13B60, offset: 0x34F14, size: 0x8, addend: 0x0, symName: __ZNKSt3__121__unordered_map_equalINS_12basic_stringIcNS_11char_traitsIcEENS_9allocatorIcEEEENS_17__hash_value_typeIS6_S6_EENS_8equal_toIS6_EENS_4hashIS6_EELb1EEclB7v160006ERKS8_RKS6_, symObjAddr: 0x3A20, symBinAddr: 0x100010F30, symSize: 0x40 }
  - { offsetInCU: 0x13BA4, offset: 0x34F58, size: 0x8, addend: 0x0, symName: __ZNSt3__112__hash_tableINS_17__hash_value_typeINS_12basic_stringIcNS_11char_traitsIcEENS_9allocatorIcEEEES7_EENS_22__unordered_map_hasherIS7_S8_NS_4hashIS7_EENS_8equal_toIS7_EELb1EEENS_21__unordered_map_equalIS7_S8_SD_SB_Lb1EEENS5_IS8_EEE21__construct_node_hashIRKNS_21piecewise_construct_tEJNS_5tupleIJRKS7_EEENSN_IJEEEEEENS_10unique_ptrINS_11__hash_nodeIS8_PvEENS_22__hash_node_destructorINS5_ISV_EEEEEEmOT_DpOT0_, symObjAddr: 0x3A60, symBinAddr: 0x100010F70, symSize: 0x150 }
  - { offsetInCU: 0x13C40, offset: 0x34FF4, size: 0x8, addend: 0x0, symName: __ZNSt3__112__hash_tableINS_17__hash_value_typeINS_12basic_stringIcNS_11char_traitsIcEENS_9allocatorIcEEEES7_EENS_22__unordered_map_hasherIS7_S8_NS_4hashIS7_EENS_8equal_toIS7_EELb1EEENS_21__unordered_map_equalIS7_S8_SD_SB_Lb1EEENS5_IS8_EEE4sizeB7v160006Ev, symObjAddr: 0x3BB0, symBinAddr: 0x1000110C0, symSize: 0x20 }
  - { offsetInCU: 0x13C66, offset: 0x3501A, size: 0x8, addend: 0x0, symName: __ZNSt3__112__hash_tableINS_17__hash_value_typeINS_12basic_stringIcNS_11char_traitsIcEENS_9allocatorIcEEEES7_EENS_22__unordered_map_hasherIS7_S8_NS_4hashIS7_EENS_8equal_toIS7_EELb1EEENS_21__unordered_map_equalIS7_S8_SD_SB_Lb1EEENS5_IS8_EEE15max_load_factorB7v160006Ev, symObjAddr: 0x3BD0, symBinAddr: 0x1000110E0, symSize: 0x20 }
  - { offsetInCU: 0x13C8C, offset: 0x35040, size: 0x8, addend: 0x0, symName: __ZNSt3__112__hash_tableINS_17__hash_value_typeINS_12basic_stringIcNS_11char_traitsIcEENS_9allocatorIcEEEES7_EENS_22__unordered_map_hasherIS7_S8_NS_4hashIS7_EENS_8equal_toIS7_EELb1EEENS_21__unordered_map_equalIS7_S8_SD_SB_Lb1EEENS5_IS8_EEE15__rehash_uniqueB7v160006Em, symObjAddr: 0x3BF0, symBinAddr: 0x100011100, symSize: 0x30 }
  - { offsetInCU: 0x13CC1, offset: 0x35075, size: 0x8, addend: 0x0, symName: __ZNSt3__116__hash_node_baseIPNS_11__hash_nodeINS_17__hash_value_typeINS_12basic_stringIcNS_11char_traitsIcEENS_9allocatorIcEEEES8_EEPvEEE5__ptrB7v160006Ev, symObjAddr: 0x3CB0, symBinAddr: 0x100011130, symSize: 0x20 }
  - { offsetInCU: 0x13CE7, offset: 0x3509B, size: 0x8, addend: 0x0, symName: __ZNKSt3__110unique_ptrINS_11__hash_nodeINS_17__hash_value_typeINS_12basic_stringIcNS_11char_traitsIcEENS_9allocatorIcEEEES8_EEPvEENS_22__hash_node_destructorINS6_ISB_EEEEEptB7v160006Ev, symObjAddr: 0x3CD0, symBinAddr: 0x100011150, symSize: 0x20 }
  - { offsetInCU: 0x13D0D, offset: 0x350C1, size: 0x8, addend: 0x0, symName: __ZNKSt3__110unique_ptrINS_11__hash_nodeINS_17__hash_value_typeINS_12basic_stringIcNS_11char_traitsIcEENS_9allocatorIcEEEES8_EEPvEENS_22__hash_node_destructorINS6_ISB_EEEEE3getB7v160006Ev, symObjAddr: 0x3CF0, symBinAddr: 0x100011170, symSize: 0x20 }
  - { offsetInCU: 0x13D33, offset: 0x350E7, size: 0x8, addend: 0x0, symName: __ZNSt3__110unique_ptrINS_11__hash_nodeINS_17__hash_value_typeINS_12basic_stringIcNS_11char_traitsIcEENS_9allocatorIcEEEES8_EEPvEENS_22__hash_node_destructorINS6_ISB_EEEEE7releaseB7v160006Ev, symObjAddr: 0x3D10, symBinAddr: 0x100011190, symSize: 0x40 }
  - { offsetInCU: 0x13D68, offset: 0x3511C, size: 0x8, addend: 0x0, symName: __ZNSt3__110unique_ptrINS_11__hash_nodeINS_17__hash_value_typeINS_12basic_stringIcNS_11char_traitsIcEENS_9allocatorIcEEEES8_EEPvEENS_22__hash_node_destructorINS6_ISB_EEEEED1B7v160006Ev, symObjAddr: 0x3D50, symBinAddr: 0x1000111D0, symSize: 0x20 }
  - { offsetInCU: 0x13D92, offset: 0x35146, size: 0x8, addend: 0x0, symName: __ZNSt3__115__hash_iteratorIPNS_11__hash_nodeINS_17__hash_value_typeINS_12basic_stringIcNS_11char_traitsIcEENS_9allocatorIcEEEES8_EEPvEEEC1B7v160006EPNS_16__hash_node_baseISC_EEPKv, symObjAddr: 0x3D70, symBinAddr: 0x1000111F0, symSize: 0x30 }
  - { offsetInCU: 0x13DDF, offset: 0x35193, size: 0x8, addend: 0x0, symName: __ZNSt3__14pairINS_15__hash_iteratorIPNS_11__hash_nodeINS_17__hash_value_typeINS_12basic_stringIcNS_11char_traitsIcEENS_9allocatorIcEEEES9_EEPvEEEEbEC1B7v160006ISE_RbLSB_0EEEOT_OT0_, symObjAddr: 0x3DA0, symBinAddr: 0x100011220, symSize: 0x30 }
  - { offsetInCU: 0x13E3D, offset: 0x351F1, size: 0x8, addend: 0x0, symName: __ZNSt3__117__compressed_pairImNS_22__unordered_map_hasherINS_12basic_stringIcNS_11char_traitsIcEENS_9allocatorIcEEEENS_17__hash_value_typeIS7_S7_EENS_4hashIS7_EENS_8equal_toIS7_EELb1EEEE6secondB7v160006Ev, symObjAddr: 0x3DD0, symBinAddr: 0x100011250, symSize: 0x20 }
  - { offsetInCU: 0x13E63, offset: 0x35217, size: 0x8, addend: 0x0, symName: __ZNSt3__122__compressed_pair_elemINS_22__unordered_map_hasherINS_12basic_stringIcNS_11char_traitsIcEENS_9allocatorIcEEEENS_17__hash_value_typeIS7_S7_EENS_4hashIS7_EENS_8equal_toIS7_EELb1EEELi1ELb1EE5__getB7v160006Ev, symObjAddr: 0x3DF0, symBinAddr: 0x100011270, symSize: 0x10 }
  - { offsetInCU: 0x13E89, offset: 0x3523D, size: 0x8, addend: 0x0, symName: __ZNKSt3__110unique_ptrIA_PNS_16__hash_node_baseIPNS_11__hash_nodeINS_17__hash_value_typeINS_12basic_stringIcNS_11char_traitsIcEENS_9allocatorIcEEEES9_EEPvEEEENS_25__bucket_list_deallocatorINS7_ISF_EEEEE11get_deleterB7v160006Ev, symObjAddr: 0x4AF0, symBinAddr: 0x100011280, symSize: 0x20 }
  - { offsetInCU: 0x13EAF, offset: 0x35263, size: 0x8, addend: 0x0, symName: __ZNKSt3__125__bucket_list_deallocatorINS_9allocatorIPNS_16__hash_node_baseIPNS_11__hash_nodeINS_17__hash_value_typeINS_12basic_stringIcNS_11char_traitsIcEENS1_IcEEEES9_EEPvEEEEEEE4sizeB7v160006Ev, symObjAddr: 0x4B10, symBinAddr: 0x1000112A0, symSize: 0x20 }
  - { offsetInCU: 0x13ED5, offset: 0x35289, size: 0x8, addend: 0x0, symName: __ZNKSt3__117__compressed_pairIPPNS_16__hash_node_baseIPNS_11__hash_nodeINS_17__hash_value_typeINS_12basic_stringIcNS_11char_traitsIcEENS_9allocatorIcEEEES9_EEPvEEEENS_25__bucket_list_deallocatorINS7_ISF_EEEEE6secondB7v160006Ev, symObjAddr: 0x4B30, symBinAddr: 0x1000112C0, symSize: 0x20 }
  - { offsetInCU: 0x13EFB, offset: 0x352AF, size: 0x8, addend: 0x0, symName: __ZNKSt3__122__compressed_pair_elemINS_25__bucket_list_deallocatorINS_9allocatorIPNS_16__hash_node_baseIPNS_11__hash_nodeINS_17__hash_value_typeINS_12basic_stringIcNS_11char_traitsIcEENS2_IcEEEESA_EEPvEEEEEEEELi1ELb0EE5__getB7v160006Ev, symObjAddr: 0x4B50, symBinAddr: 0x1000112E0, symSize: 0x10 }
  - { offsetInCU: 0x13F21, offset: 0x352D5, size: 0x8, addend: 0x0, symName: __ZNKSt3__117__compressed_pairImNS_9allocatorIPNS_16__hash_node_baseIPNS_11__hash_nodeINS_17__hash_value_typeINS_12basic_stringIcNS_11char_traitsIcEENS1_IcEEEES9_EEPvEEEEEEE5firstB7v160006Ev, symObjAddr: 0x4B60, symBinAddr: 0x1000112F0, symSize: 0x20 }
  - { offsetInCU: 0x13F47, offset: 0x352FB, size: 0x8, addend: 0x0, symName: __ZNKSt3__117__compressed_pairIPPNS_16__hash_node_baseIPNS_11__hash_nodeINS_17__hash_value_typeINS_12basic_stringIcNS_11char_traitsIcEENS_9allocatorIcEEEES9_EEPvEEEENS_25__bucket_list_deallocatorINS7_ISF_EEEEE5firstB7v160006Ev, symObjAddr: 0x4B90, symBinAddr: 0x100011310, symSize: 0x20 }
  - { offsetInCU: 0x13F6D, offset: 0x35321, size: 0x8, addend: 0x0, symName: __ZNKSt3__122__compressed_pair_elemIPPNS_16__hash_node_baseIPNS_11__hash_nodeINS_17__hash_value_typeINS_12basic_stringIcNS_11char_traitsIcEENS_9allocatorIcEEEES9_EEPvEEEELi0ELb0EE5__getB7v160006Ev, symObjAddr: 0x4BB0, symBinAddr: 0x100011330, symSize: 0x10 }
  - { offsetInCU: 0x13F93, offset: 0x35347, size: 0x8, addend: 0x0, symName: __ZNSt3__117__compressed_pairIfNS_21__unordered_map_equalINS_12basic_stringIcNS_11char_traitsIcEENS_9allocatorIcEEEENS_17__hash_value_typeIS7_S7_EENS_8equal_toIS7_EENS_4hashIS7_EELb1EEEE6secondB7v160006Ev, symObjAddr: 0x4BC0, symBinAddr: 0x100011340, symSize: 0x20 }
  - { offsetInCU: 0x13FB9, offset: 0x3536D, size: 0x8, addend: 0x0, symName: __ZNSt3__122__compressed_pair_elemINS_21__unordered_map_equalINS_12basic_stringIcNS_11char_traitsIcEENS_9allocatorIcEEEENS_17__hash_value_typeIS7_S7_EENS_8equal_toIS7_EENS_4hashIS7_EELb1EEELi1ELb1EE5__getB7v160006Ev, symObjAddr: 0x4BE0, symBinAddr: 0x100011360, symSize: 0x10 }
  - { offsetInCU: 0x13FDF, offset: 0x35393, size: 0x8, addend: 0x0, symName: __ZNKSt3__117__hash_value_typeINS_12basic_stringIcNS_11char_traitsIcEENS_9allocatorIcEEEES6_E11__get_valueB7v160006Ev, symObjAddr: 0x4C20, symBinAddr: 0x100011370, symSize: 0x20 }
  - { offsetInCU: 0x14005, offset: 0x353B9, size: 0x8, addend: 0x0, symName: __ZNSt3__116allocator_traitsINS_9allocatorINS_11__hash_nodeINS_17__hash_value_typeINS_12basic_stringIcNS_11char_traitsIcEENS1_IcEEEES8_EEPvEEEEE8allocateB7v160006ERSC_m, symObjAddr: 0x4D80, symBinAddr: 0x1000113C0, symSize: 0x30 }
  - { offsetInCU: 0x14038, offset: 0x353EC, size: 0x8, addend: 0x0, symName: __ZNSt3__122__hash_node_destructorINS_9allocatorINS_11__hash_nodeINS_17__hash_value_typeINS_12basic_stringIcNS_11char_traitsIcEENS1_IcEEEES8_EEPvEEEEEC1B7v160006ERSC_b, symObjAddr: 0x4DB0, symBinAddr: 0x1000113F0, symSize: 0x40 }
  - { offsetInCU: 0x14085, offset: 0x35439, size: 0x8, addend: 0x0, symName: __ZNSt3__110unique_ptrINS_11__hash_nodeINS_17__hash_value_typeINS_12basic_stringIcNS_11char_traitsIcEENS_9allocatorIcEEEES8_EEPvEENS_22__hash_node_destructorINS6_ISB_EEEEEC1B7v160006ILb1EvEEPSB_NS_16__dependent_typeINS_27__unique_ptr_deleter_sfinaeISE_EEXT_EE20__good_rval_ref_typeE, symObjAddr: 0x4DF0, symBinAddr: 0x100011430, symSize: 0x30 }
  - { offsetInCU: 0x140D6, offset: 0x3548A, size: 0x8, addend: 0x0, symName: __ZNSt3__116allocator_traitsINS_9allocatorINS_11__hash_nodeINS_17__hash_value_typeINS_12basic_stringIcNS_11char_traitsIcEENS1_IcEEEES8_EEPvEEEEE9constructB7v160006INS_4pairIKS8_S8_EEJRKNS_21piecewise_construct_tENS_5tupleIJRSG_EEENSL_IJEEEEvEEvRSC_PT_DpOT0_, symObjAddr: 0x4E20, symBinAddr: 0x100011460, symSize: 0x40 }
  - { offsetInCU: 0x14155, offset: 0x35509, size: 0x8, addend: 0x0, symName: __ZNSt3__110unique_ptrINS_11__hash_nodeINS_17__hash_value_typeINS_12basic_stringIcNS_11char_traitsIcEENS_9allocatorIcEEEES8_EEPvEENS_22__hash_node_destructorINS6_ISB_EEEEE11get_deleterB7v160006Ev, symObjAddr: 0x4E60, symBinAddr: 0x1000114A0, symSize: 0x20 }
  - { offsetInCU: 0x1417B, offset: 0x3552F, size: 0x8, addend: 0x0, symName: __ZNSt3__19allocatorINS_11__hash_nodeINS_17__hash_value_typeINS_12basic_stringIcNS_11char_traitsIcEENS0_IcEEEES7_EEPvEEE8allocateB7v160006Em, symObjAddr: 0x4E80, symBinAddr: 0x1000114C0, symSize: 0x50 }
  - { offsetInCU: 0x141B9, offset: 0x3556D, size: 0x8, addend: 0x0, symName: __ZNSt3__116allocator_traitsINS_9allocatorINS_11__hash_nodeINS_17__hash_value_typeINS_12basic_stringIcNS_11char_traitsIcEENS1_IcEEEES8_EEPvEEEEE8max_sizeB7v160006ISC_vEEmRKSC_, symObjAddr: 0x4ED0, symBinAddr: 0x100011510, symSize: 0x20 }
  - { offsetInCU: 0x141E7, offset: 0x3559B, size: 0x8, addend: 0x0, symName: __ZNKSt3__19allocatorINS_11__hash_nodeINS_17__hash_value_typeINS_12basic_stringIcNS_11char_traitsIcEENS0_IcEEEES7_EEPvEEE8max_sizeB7v160006Ev, symObjAddr: 0x4F90, symBinAddr: 0x100011530, symSize: 0x20 }
  - { offsetInCU: 0x1420D, offset: 0x355C1, size: 0x8, addend: 0x0, symName: __ZNSt3__122__hash_node_destructorINS_9allocatorINS_11__hash_nodeINS_17__hash_value_typeINS_12basic_stringIcNS_11char_traitsIcEENS1_IcEEEES8_EEPvEEEEEC2B7v160006ERSC_b, symObjAddr: 0x5000, symBinAddr: 0x100011550, symSize: 0x30 }
  - { offsetInCU: 0x14255, offset: 0x35609, size: 0x8, addend: 0x0, symName: __ZNSt3__110unique_ptrINS_11__hash_nodeINS_17__hash_value_typeINS_12basic_stringIcNS_11char_traitsIcEENS_9allocatorIcEEEES8_EEPvEENS_22__hash_node_destructorINS6_ISB_EEEEEC2B7v160006ILb1EvEEPSB_NS_16__dependent_typeINS_27__unique_ptr_deleter_sfinaeISE_EEXT_EE20__good_rval_ref_typeE, symObjAddr: 0x5030, symBinAddr: 0x100011580, symSize: 0x40 }
  - { offsetInCU: 0x142A6, offset: 0x3565A, size: 0x8, addend: 0x0, symName: __ZNSt3__117__compressed_pairIPNS_11__hash_nodeINS_17__hash_value_typeINS_12basic_stringIcNS_11char_traitsIcEENS_9allocatorIcEEEES8_EEPvEENS_22__hash_node_destructorINS6_ISB_EEEEEC1B7v160006IRSC_SF_EEOT_OT0_, symObjAddr: 0x5070, symBinAddr: 0x1000115C0, symSize: 0x30 }
  - { offsetInCU: 0x142FE, offset: 0x356B2, size: 0x8, addend: 0x0, symName: __ZNSt3__117__compressed_pairIPNS_11__hash_nodeINS_17__hash_value_typeINS_12basic_stringIcNS_11char_traitsIcEENS_9allocatorIcEEEES8_EEPvEENS_22__hash_node_destructorINS6_ISB_EEEEEC2B7v160006IRSC_SF_EEOT_OT0_, symObjAddr: 0x50A0, symBinAddr: 0x1000115F0, symSize: 0x40 }
  - { offsetInCU: 0x14356, offset: 0x3570A, size: 0x8, addend: 0x0, symName: __ZNSt3__122__compressed_pair_elemIPNS_11__hash_nodeINS_17__hash_value_typeINS_12basic_stringIcNS_11char_traitsIcEENS_9allocatorIcEEEES8_EEPvEELi0ELb0EEC2B7v160006IRSC_vEEOT_, symObjAddr: 0x50E0, symBinAddr: 0x100011630, symSize: 0x20 }
  - { offsetInCU: 0x14398, offset: 0x3574C, size: 0x8, addend: 0x0, symName: __ZNSt3__122__compressed_pair_elemINS_22__hash_node_destructorINS_9allocatorINS_11__hash_nodeINS_17__hash_value_typeINS_12basic_stringIcNS_11char_traitsIcEENS2_IcEEEES9_EEPvEEEEEELi1ELb0EEC2B7v160006ISE_vEEOT_, symObjAddr: 0x5100, symBinAddr: 0x100011650, symSize: 0x30 }
  - { offsetInCU: 0x143DA, offset: 0x3578E, size: 0x8, addend: 0x0, symName: __ZNSt3__19allocatorINS_11__hash_nodeINS_17__hash_value_typeINS_12basic_stringIcNS_11char_traitsIcEENS0_IcEEEES7_EEPvEEE9constructB7v160006INS_4pairIKS7_S7_EEJRKNS_21piecewise_construct_tENS_5tupleIJRSE_EEENSJ_IJEEEEEEvPT_DpOT0_, symObjAddr: 0x5130, symBinAddr: 0x100011680, symSize: 0x40 }
  - { offsetInCU: 0x14456, offset: 0x3580A, size: 0x8, addend: 0x0, symName: __ZNSt3__14pairIKNS_12basic_stringIcNS_11char_traitsIcEENS_9allocatorIcEEEES6_EC1B7v160006IJRS7_EJEEENS_21piecewise_construct_tENS_5tupleIJDpT_EEENSC_IJDpT0_EEE, symObjAddr: 0x5170, symBinAddr: 0x1000116C0, symSize: 0x30 }
  - { offsetInCU: 0x144BD, offset: 0x35871, size: 0x8, addend: 0x0, symName: __ZNSt3__14pairIKNS_12basic_stringIcNS_11char_traitsIcEENS_9allocatorIcEEEES6_EC1B7v160006IJRS7_EJEJLm0EEJEEENS_21piecewise_construct_tERNS_5tupleIJDpT_EEERNSC_IJDpT0_EEENS_15__tuple_indicesIJXspT1_EEEENSL_IJXspT2_EEEE, symObjAddr: 0x51A0, symBinAddr: 0x1000116F0, symSize: 0x30 }
  - { offsetInCU: 0x1454A, offset: 0x358FE, size: 0x8, addend: 0x0, symName: __ZNSt3__14pairIKNS_12basic_stringIcNS_11char_traitsIcEENS_9allocatorIcEEEES6_EC2B7v160006IJRS7_EJEJLm0EEJEEENS_21piecewise_construct_tERNS_5tupleIJDpT_EEERNSC_IJDpT0_EEENS_15__tuple_indicesIJXspT1_EEEENSL_IJXspT2_EEEE, symObjAddr: 0x51D0, symBinAddr: 0x100011720, symSize: 0x50 }
  - { offsetInCU: 0x145D7, offset: 0x3598B, size: 0x8, addend: 0x0, symName: __ZNSt3__117__compressed_pairIPNS_11__hash_nodeINS_17__hash_value_typeINS_12basic_stringIcNS_11char_traitsIcEENS_9allocatorIcEEEES8_EEPvEENS_22__hash_node_destructorINS6_ISB_EEEEE6secondB7v160006Ev, symObjAddr: 0x5260, symBinAddr: 0x100011770, symSize: 0x20 }
  - { offsetInCU: 0x145FD, offset: 0x359B1, size: 0x8, addend: 0x0, symName: __ZNSt3__122__compressed_pair_elemINS_22__hash_node_destructorINS_9allocatorINS_11__hash_nodeINS_17__hash_value_typeINS_12basic_stringIcNS_11char_traitsIcEENS2_IcEEEES9_EEPvEEEEEELi1ELb0EE5__getB7v160006Ev, symObjAddr: 0x5280, symBinAddr: 0x100011790, symSize: 0x10 }
  - { offsetInCU: 0x14623, offset: 0x359D7, size: 0x8, addend: 0x0, symName: __ZNSt3__117__compressed_pairImNS_22__unordered_map_hasherINS_12basic_stringIcNS_11char_traitsIcEENS_9allocatorIcEEEENS_17__hash_value_typeIS7_S7_EENS_4hashIS7_EENS_8equal_toIS7_EELb1EEEE5firstB7v160006Ev, symObjAddr: 0x5290, symBinAddr: 0x1000117A0, symSize: 0x20 }
  - { offsetInCU: 0x14649, offset: 0x359FD, size: 0x8, addend: 0x0, symName: __ZNSt3__117__compressed_pairIfNS_21__unordered_map_equalINS_12basic_stringIcNS_11char_traitsIcEENS_9allocatorIcEEEENS_17__hash_value_typeIS7_S7_EENS_8equal_toIS7_EENS_4hashIS7_EELb1EEEE5firstB7v160006Ev, symObjAddr: 0x52B0, symBinAddr: 0x1000117C0, symSize: 0x20 }
  - { offsetInCU: 0x1466F, offset: 0x35A23, size: 0x8, addend: 0x0, symName: __ZNSt3__112__hash_tableINS_17__hash_value_typeINS_12basic_stringIcNS_11char_traitsIcEENS_9allocatorIcEEEES7_EENS_22__unordered_map_hasherIS7_S8_NS_4hashIS7_EENS_8equal_toIS7_EELb1EEENS_21__unordered_map_equalIS7_S8_SD_SB_Lb1EEENS5_IS8_EEE8__rehashILb1EEEvm, symObjAddr: 0x52E0, symBinAddr: 0x1000117E0, symSize: 0x230 }
  - { offsetInCU: 0x146BF, offset: 0x35A73, size: 0x8, addend: 0x0, symName: __ZNSt3__112__hash_tableINS_17__hash_value_typeINS_12basic_stringIcNS_11char_traitsIcEENS_9allocatorIcEEEES7_EENS_22__unordered_map_hasherIS7_S8_NS_4hashIS7_EENS_8equal_toIS7_EELb1EEENS_21__unordered_map_equalIS7_S8_SD_SB_Lb1EEENS5_IS8_EEE11__do_rehashILb1EEEvm, symObjAddr: 0x5510, symBinAddr: 0x100011A10, symSize: 0x260 }
  - { offsetInCU: 0x147A2, offset: 0x35B56, size: 0x8, addend: 0x0, symName: __ZNSt3__110unique_ptrIA_PNS_16__hash_node_baseIPNS_11__hash_nodeINS_17__hash_value_typeINS_12basic_stringIcNS_11char_traitsIcEENS_9allocatorIcEEEES9_EEPvEEEENS_25__bucket_list_deallocatorINS7_ISF_EEEEE11get_deleterB7v160006Ev, symObjAddr: 0x57E0, symBinAddr: 0x100011C80, symSize: 0x20 }
  - { offsetInCU: 0x147C8, offset: 0x35B7C, size: 0x8, addend: 0x0, symName: __ZNSt3__110unique_ptrIA_PNS_16__hash_node_baseIPNS_11__hash_nodeINS_17__hash_value_typeINS_12basic_stringIcNS_11char_traitsIcEENS_9allocatorIcEEEES9_EEPvEEEENS_25__bucket_list_deallocatorINS7_ISF_EEEEE5resetB7v160006IPSF_EENS_9enable_ifIXsr28_CheckArrayPointerConversionIT_EE5valueEvE4typeESO_, symObjAddr: 0x5800, symBinAddr: 0x100011CA0, symSize: 0x70 }
  - { offsetInCU: 0x14815, offset: 0x35BC9, size: 0x8, addend: 0x0, symName: __ZNSt3__116allocator_traitsINS_9allocatorIPNS_16__hash_node_baseIPNS_11__hash_nodeINS_17__hash_value_typeINS_12basic_stringIcNS_11char_traitsIcEENS1_IcEEEES9_EEPvEEEEEEE8allocateB7v160006ERSG_m, symObjAddr: 0x5870, symBinAddr: 0x100011D10, symSize: 0x30 }
  - { offsetInCU: 0x14848, offset: 0x35BFC, size: 0x8, addend: 0x0, symName: __ZNSt3__19allocatorIPNS_16__hash_node_baseIPNS_11__hash_nodeINS_17__hash_value_typeINS_12basic_stringIcNS_11char_traitsIcEENS0_IcEEEES8_EEPvEEEEE8allocateB7v160006Em, symObjAddr: 0x58A0, symBinAddr: 0x100011D40, symSize: 0x50 }
  - { offsetInCU: 0x14886, offset: 0x35C3A, size: 0x8, addend: 0x0, symName: __ZNSt3__116allocator_traitsINS_9allocatorIPNS_16__hash_node_baseIPNS_11__hash_nodeINS_17__hash_value_typeINS_12basic_stringIcNS_11char_traitsIcEENS1_IcEEEES9_EEPvEEEEEEE8max_sizeB7v160006ISG_vEEmRKSG_, symObjAddr: 0x58F0, symBinAddr: 0x100011D90, symSize: 0x20 }
  - { offsetInCU: 0x148B4, offset: 0x35C68, size: 0x8, addend: 0x0, symName: __ZNKSt3__19allocatorIPNS_16__hash_node_baseIPNS_11__hash_nodeINS_17__hash_value_typeINS_12basic_stringIcNS_11char_traitsIcEENS0_IcEEEES8_EEPvEEEEE8max_sizeB7v160006Ev, symObjAddr: 0x5910, symBinAddr: 0x100011DB0, symSize: 0x20 }
  - { offsetInCU: 0x148DA, offset: 0x35C8E, size: 0x8, addend: 0x0, symName: __ZNKSt3__117__compressed_pairIPNS_11__hash_nodeINS_17__hash_value_typeINS_12basic_stringIcNS_11char_traitsIcEENS_9allocatorIcEEEES8_EEPvEENS_22__hash_node_destructorINS6_ISB_EEEEE5firstB7v160006Ev, symObjAddr: 0x59D0, symBinAddr: 0x100011DD0, symSize: 0x20 }
  - { offsetInCU: 0x14900, offset: 0x35CB4, size: 0x8, addend: 0x0, symName: __ZNKSt3__122__compressed_pair_elemIPNS_11__hash_nodeINS_17__hash_value_typeINS_12basic_stringIcNS_11char_traitsIcEENS_9allocatorIcEEEES8_EEPvEELi0ELb0EE5__getB7v160006Ev, symObjAddr: 0x59F0, symBinAddr: 0x100011DF0, symSize: 0x10 }
  - { offsetInCU: 0x14926, offset: 0x35CDA, size: 0x8, addend: 0x0, symName: __ZNSt3__117__compressed_pairIPNS_11__hash_nodeINS_17__hash_value_typeINS_12basic_stringIcNS_11char_traitsIcEENS_9allocatorIcEEEES8_EEPvEENS_22__hash_node_destructorINS6_ISB_EEEEE5firstB7v160006Ev, symObjAddr: 0x5A00, symBinAddr: 0x100011E00, symSize: 0x20 }
  - { offsetInCU: 0x1494C, offset: 0x35D00, size: 0x8, addend: 0x0, symName: __ZNSt3__122__compressed_pair_elemIPNS_11__hash_nodeINS_17__hash_value_typeINS_12basic_stringIcNS_11char_traitsIcEENS_9allocatorIcEEEES8_EEPvEELi0ELb0EE5__getB7v160006Ev, symObjAddr: 0x5A20, symBinAddr: 0x100011E20, symSize: 0x10 }
  - { offsetInCU: 0x14972, offset: 0x35D26, size: 0x8, addend: 0x0, symName: __ZNSt3__110unique_ptrINS_11__hash_nodeINS_17__hash_value_typeINS_12basic_stringIcNS_11char_traitsIcEENS_9allocatorIcEEEES8_EEPvEENS_22__hash_node_destructorINS6_ISB_EEEEED2B7v160006Ev, symObjAddr: 0x5A30, symBinAddr: 0x100011E30, symSize: 0x20 }
  - { offsetInCU: 0x1499C, offset: 0x35D50, size: 0x8, addend: 0x0, symName: __ZNSt3__110unique_ptrINS_11__hash_nodeINS_17__hash_value_typeINS_12basic_stringIcNS_11char_traitsIcEENS_9allocatorIcEEEES8_EEPvEENS_22__hash_node_destructorINS6_ISB_EEEEE5resetB7v160006EPSB_, symObjAddr: 0x5A50, symBinAddr: 0x100011E50, symSize: 0x70 }
  - { offsetInCU: 0x149E0, offset: 0x35D94, size: 0x8, addend: 0x0, symName: __ZNSt3__122__hash_node_destructorINS_9allocatorINS_11__hash_nodeINS_17__hash_value_typeINS_12basic_stringIcNS_11char_traitsIcEENS1_IcEEEES8_EEPvEEEEEclB7v160006EPSB_, symObjAddr: 0x5AC0, symBinAddr: 0x100011EC0, symSize: 0x80 }
  - { offsetInCU: 0x14A15, offset: 0x35DC9, size: 0x8, addend: 0x0, symName: __ZNSt3__115__hash_iteratorIPNS_11__hash_nodeINS_17__hash_value_typeINS_12basic_stringIcNS_11char_traitsIcEENS_9allocatorIcEEEES8_EEPvEEEC2B7v160006EPNS_16__hash_node_baseISC_EEPKv, symObjAddr: 0x5B40, symBinAddr: 0x100011F40, symSize: 0x20 }
  - { offsetInCU: 0x14A5D, offset: 0x35E11, size: 0x8, addend: 0x0, symName: __ZNSt3__14pairINS_15__hash_iteratorIPNS_11__hash_nodeINS_17__hash_value_typeINS_12basic_stringIcNS_11char_traitsIcEENS_9allocatorIcEEEES9_EEPvEEEEbEC2B7v160006ISE_RbLSB_0EEEOT_OT0_, symObjAddr: 0x5B60, symBinAddr: 0x100011F60, symSize: 0x30 }
  - { offsetInCU: 0x14ABB, offset: 0x35E6F, size: 0x8, addend: 0x0, symName: __ZNSt3__114pointer_traitsIPNS_17__hash_value_typeINS_12basic_stringIcNS_11char_traitsIcEENS_9allocatorIcEEEES7_EEE10pointer_toB7v160006ERS8_, symObjAddr: 0x5C70, symBinAddr: 0x100011F90, symSize: 0x10 }
  - { offsetInCU: 0x14ADE, offset: 0x35E92, size: 0x8, addend: 0x0, symName: __ZNSt3__112__hash_tableINS_17__hash_value_typeINS_12basic_stringIcNS_11char_traitsIcEENS_9allocatorIcEEEES7_EENS_22__unordered_map_hasherIS7_S8_NS_4hashIS7_EENS_8equal_toIS7_EELb1EEENS_21__unordered_map_equalIS7_S8_SD_SB_Lb1EEENS5_IS8_EEE4findIS7_EENS_15__hash_iteratorIPNS_11__hash_nodeIS8_PvEEEERKT_, symObjAddr: 0x5C80, symBinAddr: 0x100011FA0, symSize: 0x180 }
  - { offsetInCU: 0x14B68, offset: 0x35F1C, size: 0x8, addend: 0x0, symName: __ZNSt3__119__hash_map_iteratorINS_15__hash_iteratorIPNS_11__hash_nodeINS_17__hash_value_typeINS_12basic_stringIcNS_11char_traitsIcEENS_9allocatorIcEEEES9_EEPvEEEEEC1B7v160006ESE_, symObjAddr: 0x5E00, symBinAddr: 0x100012120, symSize: 0x30 }
  - { offsetInCU: 0x14BA1, offset: 0x35F55, size: 0x8, addend: 0x0, symName: __ZNSt3__112__hash_tableINS_17__hash_value_typeINS_12basic_stringIcNS_11char_traitsIcEENS_9allocatorIcEEEES7_EENS_22__unordered_map_hasherIS7_S8_NS_4hashIS7_EENS_8equal_toIS7_EELb1EEENS_21__unordered_map_equalIS7_S8_SD_SB_Lb1EEENS5_IS8_EEE3endEv, symObjAddr: 0x5E30, symBinAddr: 0x100012150, symSize: 0x30 }
  - { offsetInCU: 0x14BC9, offset: 0x35F7D, size: 0x8, addend: 0x0, symName: __ZNSt3__119__hash_map_iteratorINS_15__hash_iteratorIPNS_11__hash_nodeINS_17__hash_value_typeINS_12basic_stringIcNS_11char_traitsIcEENS_9allocatorIcEEEES9_EEPvEEEEEC2B7v160006ESE_, symObjAddr: 0x5E60, symBinAddr: 0x100012180, symSize: 0x20 }
  - { offsetInCU: 0x14C02, offset: 0x35FB6, size: 0x8, addend: 0x0, symName: __ZNKSt3__112__hash_tableINS_17__hash_value_typeINS_12basic_stringIcNS_11char_traitsIcEENS_9allocatorIcEEEES7_EENS_22__unordered_map_hasherIS7_S8_NS_4hashIS7_EENS_8equal_toIS7_EELb1EEENS_21__unordered_map_equalIS7_S8_SD_SB_Lb1EEENS5_IS8_EEE4sizeB7v160006Ev, symObjAddr: 0x5EE0, symBinAddr: 0x100012200, symSize: 0x30 }
  - { offsetInCU: 0x14C28, offset: 0x35FDC, size: 0x8, addend: 0x0, symName: __ZNKSt3__117__compressed_pairImNS_22__unordered_map_hasherINS_12basic_stringIcNS_11char_traitsIcEENS_9allocatorIcEEEENS_17__hash_value_typeIS7_S7_EENS_4hashIS7_EENS_8equal_toIS7_EELb1EEEE5firstB7v160006Ev, symObjAddr: 0x5F10, symBinAddr: 0x100012230, symSize: 0x1B }
  - { offsetInCU: 0x4B, offset: 0x3614B, size: 0x8, addend: 0x0, symName: _MD_FOLDER_PATH, symObjAddr: 0xF970, symBinAddr: 0x100044008, symSize: 0x0 }
  - { offsetInCU: 0x2B71, offset: 0x38C71, size: 0x8, addend: 0x0, symName: _VD, symObjAddr: 0xF988, symBinAddr: 0x100044020, symSize: 0x0 }
  - { offsetInCU: 0x2B87, offset: 0x38C87, size: 0x8, addend: 0x0, symName: _FILE_DELIMITER, symObjAddr: 0xF9A0, symBinAddr: 0x100044038, symSize: 0x0 }
  - { offsetInCU: 0x2B9D, offset: 0x38C9D, size: 0x8, addend: 0x0, symName: _DATE_DELIMITER, symObjAddr: 0xF9B8, symBinAddr: 0x100044050, symSize: 0x0 }
  - { offsetInCU: 0x2BB3, offset: 0x38CB3, size: 0x8, addend: 0x0, symName: _COLON_DELIMITER, symObjAddr: 0xF9D0, symBinAddr: 0x100044068, symSize: 0x0 }
  - { offsetInCU: 0x2BC9, offset: 0x38CC9, size: 0x8, addend: 0x0, symName: _USD_SOFR, symObjAddr: 0xF9E8, symBinAddr: 0x100044080, symSize: 0x0 }
  - { offsetInCU: 0x3DF4, offset: 0x3E976, size: 0x8, addend: 0x0, symName: __ZNSt3__1plB7v160006IcNS_11char_traitsIcEENS_9allocatorIcEEEENS_12basic_stringIT_T0_T1_EEOS9_SA_, symObjAddr: 0x6A0, symBinAddr: 0x1000129F0, symSize: 0x50 }
  - { offsetInCU: 0x3E4C, offset: 0x3E9CE, size: 0x8, addend: 0x0, symName: __ZNSt3__1plB7v160006IcNS_11char_traitsIcEENS_9allocatorIcEEEENS_12basic_stringIT_T0_T1_EEOS9_PKS6_, symObjAddr: 0x6F0, symBinAddr: 0x100012A40, symSize: 0x50 }
  - { offsetInCU: 0x3EA4, offset: 0x3EA26, size: 0x8, addend: 0x0, symName: __ZNSt3__1eqB7v160006IcNS_11char_traitsIcEENS_9allocatorIcEEEEbRKNS_12basic_stringIT_T0_T1_EEPKS6_, symObjAddr: 0xCF0, symBinAddr: 0x100013040, symSize: 0x90 }
  - { offsetInCU: 0x3F0B, offset: 0x3EA8D, size: 0x8, addend: 0x0, symName: __ZNSt3__1neB7v160006IPcEEbRKNS_11__wrap_iterIT_EES6_, symObjAddr: 0xFB0, symBinAddr: 0x100013240, symSize: 0x30 }
  - { offsetInCU: 0x3F4E, offset: 0x3EAD0, size: 0x8, addend: 0x0, symName: __ZNSt3__1eqB7v160006IPcEEbRKNS_11__wrap_iterIT_EES6_, symObjAddr: 0x1240, symBinAddr: 0x100013380, symSize: 0x40 }
  - { offsetInCU: 0x3F91, offset: 0x3EB13, size: 0x8, addend: 0x0, symName: __ZNSt3__115__debug_db_swapB7v160006INS_12basic_stringIcNS_11char_traitsIcEENS_9allocatorIcEEEEEEvPT_S8_, symObjAddr: 0x1390, symBinAddr: 0x100013470, symSize: 0x10 }
  - { offsetInCU: 0x4880, offset: 0x3F402, size: 0x8, addend: 0x0, symName: __Z7toloweri, symObjAddr: 0x1000, symBinAddr: 0x100013290, symSize: 0x20 }
  - { offsetInCU: 0x65FF, offset: 0x41181, size: 0x8, addend: 0x0, symName: __ZmiRK4DateS1_, symObjAddr: 0x0, symBinAddr: 0x100012400, symSize: 0x70 }
  - { offsetInCU: 0x6663, offset: 0x411E5, size: 0x8, addend: 0x0, symName: __ZgtRK4DateS1_, symObjAddr: 0x70, symBinAddr: 0x100012470, symSize: 0x50 }
  - { offsetInCU: 0x66AB, offset: 0x4122D, size: 0x8, addend: 0x0, symName: __ZltRK4DateS1_, symObjAddr: 0xC0, symBinAddr: 0x1000124C0, symSize: 0x50 }
  - { offsetInCU: 0x66F3, offset: 0x41275, size: 0x8, addend: 0x0, symName: __ZgeRK4DateS1_, symObjAddr: 0x110, symBinAddr: 0x100012510, symSize: 0x30 }
  - { offsetInCU: 0x672D, offset: 0x412AF, size: 0x8, addend: 0x0, symName: __ZleRK4DateS1_, symObjAddr: 0x140, symBinAddr: 0x100012540, symSize: 0x30 }
  - { offsetInCU: 0x6767, offset: 0x412E9, size: 0x8, addend: 0x0, symName: __ZeqRK4DateS1_, symObjAddr: 0x170, symBinAddr: 0x100012570, symSize: 0x60 }
  - { offsetInCU: 0x67AF, offset: 0x41331, size: 0x8, addend: 0x0, symName: __Z12yearsBetweenRK4DateS1_, symObjAddr: 0x1D0, symBinAddr: 0x1000125D0, symSize: 0xA0 }
  - { offsetInCU: 0x6805, offset: 0x41387, size: 0x8, addend: 0x0, symName: __Z17daysInMonthOfYearii, symObjAddr: 0x270, symBinAddr: 0x100012670, symSize: 0xD0 }
  - { offsetInCU: 0x683F, offset: 0x413C1, size: 0x8, addend: 0x0, symName: __ZlsRNSt3__113basic_ostreamIcNS_11char_traitsIcEEEERK4Date, symObjAddr: 0x340, symBinAddr: 0x100012740, symSize: 0x80 }
  - { offsetInCU: 0x6879, offset: 0x413FB, size: 0x8, addend: 0x0, symName: __ZrsRNSt3__113basic_istreamIcNS_11char_traitsIcEEEER4Date, symObjAddr: 0x470, symBinAddr: 0x1000127C0, symSize: 0x50 }
  - { offsetInCU: 0x68B8, offset: 0x4143A, size: 0x8, addend: 0x0, symName: __ZNK4Date8toStringEv, symObjAddr: 0x4C0, symBinAddr: 0x100012810, symSize: 0x1E0 }
  - { offsetInCU: 0x68E0, offset: 0x41462, size: 0x8, addend: 0x0, symName: __Z12dateAddTenorRK4DateRKNSt3__112basic_stringIcNS2_11char_traitsIcEENS2_9allocatorIcEEEE, symObjAddr: 0x740, symBinAddr: 0x100012A90, symSize: 0x540 }
  - { offsetInCU: 0x698D, offset: 0x4150F, size: 0x8, addend: 0x0, symName: __ZN4DateC1Eiii, symObjAddr: 0xC80, symBinAddr: 0x100012FD0, symSize: 0x30 }
  - { offsetInCU: 0x69E1, offset: 0x41563, size: 0x8, addend: 0x0, symName: __ZNKSt3__112basic_stringIcNS_11char_traitsIcEENS_9allocatorIcEEE4backB7v160006Ev, symObjAddr: 0xCB0, symBinAddr: 0x100013000, symSize: 0x40 }
  - { offsetInCU: 0x6A07, offset: 0x41589, size: 0x8, addend: 0x0, symName: __Z7toLowerNSt3__112basic_stringIcNS_11char_traitsIcEENS_9allocatorIcEEEE, symObjAddr: 0xD80, symBinAddr: 0x1000130D0, symSize: 0xA0 }
  - { offsetInCU: 0x6A85, offset: 0x41607, size: 0x8, addend: 0x0, symName: __ZN4DateC2Eiii, symObjAddr: 0xEE0, symBinAddr: 0x100013170, symSize: 0x30 }
  - { offsetInCU: 0x6AD9, offset: 0x4165B, size: 0x8, addend: 0x0, symName: __ZNSt3__112basic_stringIcNS_11char_traitsIcEENS_9allocatorIcEEE5beginB7v160006Ev, symObjAddr: 0xF10, symBinAddr: 0x1000131A0, symSize: 0x50 }
  - { offsetInCU: 0x6AFF, offset: 0x41681, size: 0x8, addend: 0x0, symName: __ZNSt3__112basic_stringIcNS_11char_traitsIcEENS_9allocatorIcEEE3endB7v160006Ev, symObjAddr: 0xF60, symBinAddr: 0x1000131F0, symSize: 0x50 }
  - { offsetInCU: 0x6B25, offset: 0x416A7, size: 0x8, addend: 0x0, symName: __ZNKSt3__111__wrap_iterIPcEdeB7v160006Ev, symObjAddr: 0xFE0, symBinAddr: 0x100013270, symSize: 0x20 }
  - { offsetInCU: 0x6B4B, offset: 0x416CD, size: 0x8, addend: 0x0, symName: __ZNSt3__111__wrap_iterIPcEppB7v160006Ev, symObjAddr: 0x1020, symBinAddr: 0x1000132B0, symSize: 0x20 }
  - { offsetInCU: 0x6B71, offset: 0x416F3, size: 0x8, addend: 0x0, symName: __ZNSt3__112basic_stringIcNS_11char_traitsIcEENS_9allocatorIcEEEC1B7v160006EOS5_, symObjAddr: 0x1040, symBinAddr: 0x1000132D0, symSize: 0x30 }
  - { offsetInCU: 0x6BAA, offset: 0x4172C, size: 0x8, addend: 0x0, symName: __ZNSt3__112basic_stringIcNS_11char_traitsIcEENS_9allocatorIcEEE15__make_iteratorB7v160006EPc, symObjAddr: 0x1070, symBinAddr: 0x100013300, symSize: 0x30 }
  - { offsetInCU: 0x6BDF, offset: 0x41761, size: 0x8, addend: 0x0, symName: __ZNSt3__111__wrap_iterIPcEC1B7v160006EPKvS1_, symObjAddr: 0x1100, symBinAddr: 0x100013330, symSize: 0x30 }
  - { offsetInCU: 0x6C25, offset: 0x417A7, size: 0x8, addend: 0x0, symName: __ZNSt3__111__wrap_iterIPcEC2B7v160006EPKvS1_, symObjAddr: 0x1130, symBinAddr: 0x100013360, symSize: 0x20 }
  - { offsetInCU: 0x6C6B, offset: 0x417ED, size: 0x8, addend: 0x0, symName: __ZNKSt3__111__wrap_iterIPcE4baseB7v160006Ev, symObjAddr: 0x1280, symBinAddr: 0x1000133C0, symSize: 0x20 }
  - { offsetInCU: 0x6C91, offset: 0x41813, size: 0x8, addend: 0x0, symName: __ZNSt3__112basic_stringIcNS_11char_traitsIcEENS_9allocatorIcEEEC2B7v160006EOS5_, symObjAddr: 0x12A0, symBinAddr: 0x1000133E0, symSize: 0x90 }
  - { offsetInCU: 0x6CE8, offset: 0x4186A, size: 0x8, addend: 0x0, symName: __ZNSt3__112basic_stringIcNS_11char_traitsIcEENS_9allocatorIcEEE6appendB7v160006ERKS5_, symObjAddr: 0x1D20, symBinAddr: 0x100013480, symSize: 0x50 }
  - { offsetInCU: 0xA263, offset: 0x4BBB8, size: 0x8, addend: 0x0, symName: __ZNSt3__1eqB7v160006IP4DateEEbRKNS_11__wrap_iterIT_EES7_, symObjAddr: 0x390, symBinAddr: 0x100013730, symSize: 0x40 }
  - { offsetInCU: 0xA2A6, offset: 0x4BBFB, size: 0x8, addend: 0x0, symName: __ZNSt3__14findB7v160006INS_11__wrap_iterIP4DateEES2_EET_S5_S5_RKT0_, symObjAddr: 0x3D0, symBinAddr: 0x100013770, symSize: 0x80 }
  - { offsetInCU: 0xA300, offset: 0x4BC55, size: 0x8, addend: 0x0, symName: __ZNSt3__1neB7v160006IPdEEbRKNS_11__wrap_iterIT_EES6_, symObjAddr: 0x670, symBinAddr: 0x1000139B0, symSize: 0x30 }
  - { offsetInCU: 0xC6EC, offset: 0x4E041, size: 0x8, addend: 0x0, symName: __ZNSt3__1neB7v160006ERKNS_25__hash_map_const_iteratorINS_21__hash_const_iteratorIPNS_11__hash_nodeINS_17__hash_value_typeINS_12basic_stringIcNS_11char_traitsIcEENS_9allocatorIcEEEE9RateCurveEEPvEEEEEESI_, symObjAddr: 0x13F0, symBinAddr: 0x100014700, symSize: 0x30 }
  - { offsetInCU: 0xC729, offset: 0x4E07E, size: 0x8, addend: 0x0, symName: __ZNSt3__1neB7v160006ERKNS_25__hash_map_const_iteratorINS_21__hash_const_iteratorIPNS_11__hash_nodeINS_17__hash_value_typeINS_12basic_stringIcNS_11char_traitsIcEENS_9allocatorIcEEEE8VolCurveEEPvEEEEEESI_, symObjAddr: 0x1530, symBinAddr: 0x1000147F0, symSize: 0x30 }
  - { offsetInCU: 0xC766, offset: 0x4E0BB, size: 0x8, addend: 0x0, symName: __ZNSt3__1eqB7v160006IPdEEbRKNS_11__wrap_iterIT_EES6_, symObjAddr: 0x19D0, symBinAddr: 0x100014B30, symSize: 0x40 }
  - { offsetInCU: 0xC7A9, offset: 0x4E0FE, size: 0x8, addend: 0x0, symName: __ZNSt3__142__uninitialized_allocator_move_if_noexceptB7v160006INS_9allocatorIdEENS_16reverse_iteratorIPdEES5_dvEET1_RT_T0_S9_S6_, symObjAddr: 0x4BC0, symBinAddr: 0x100015240, symSize: 0x70 }
  - { offsetInCU: 0xC825, offset: 0x4E17A, size: 0x8, addend: 0x0, symName: __ZNSt3__14swapB7v160006IPdEENS_9enable_ifIXaasr21is_move_constructibleIT_EE5valuesr18is_move_assignableIS3_EE5valueEvE4typeERS3_S6_, symObjAddr: 0x4C30, symBinAddr: 0x1000152B0, symSize: 0x40 }
  - { offsetInCU: 0xC876, offset: 0x4E1CB, size: 0x8, addend: 0x0, symName: __ZNSt3__125__debug_db_invalidate_allB7v160006INS_6vectorIdNS_9allocatorIdEEEEEEvPT_, symObjAddr: 0x4C70, symBinAddr: 0x1000152F0, symSize: 0x10 }
  - { offsetInCU: 0xC8A7, offset: 0x4E1FC, size: 0x8, addend: 0x0, symName: __ZNSt3__14moveB7v160006INS_16reverse_iteratorIPdEES3_EET0_T_S5_S4_, symObjAddr: 0x4C80, symBinAddr: 0x100015300, symSize: 0x80 }
  - { offsetInCU: 0xC901, offset: 0x4E256, size: 0x8, addend: 0x0, symName: __ZNSt3__16__moveB7v160006INS_17_ClassicAlgPolicyENS_16reverse_iteratorIPdEES4_S4_EENS_4pairIT0_T2_EES6_T1_S7_, symObjAddr: 0x4D00, symBinAddr: 0x100015380, symSize: 0x90 }
  - { offsetInCU: 0xC96D, offset: 0x4E2C2, size: 0x8, addend: 0x0, symName: __ZNSt3__123__dispatch_copy_or_moveB7v160006INS_17_ClassicAlgPolicyENS_11__move_loopIS1_EENS_14__move_trivialENS_16reverse_iteratorIPdEES7_S7_EENS_4pairIT2_T4_EES9_T3_SA_, symObjAddr: 0x4D90, symBinAddr: 0x100015410, symSize: 0x90 }
  - { offsetInCU: 0xC9EB, offset: 0x4E340, size: 0x8, addend: 0x0, symName: __ZNSt3__121__unwrap_and_dispatchB7v160006INS_10__overloadINS_11__move_loopINS_17_ClassicAlgPolicyEEENS_14__move_trivialEEENS_16reverse_iteratorIPdEES9_S9_Li0EEENS_4pairIT0_T2_EESB_T1_SC_, symObjAddr: 0x4E20, symBinAddr: 0x1000154A0, symSize: 0x210 }
  - { offsetInCU: 0xCA7A, offset: 0x4E3CF, size: 0x8, addend: 0x0, symName: __ZNSt3__114__unwrap_rangeB7v160006INS_16reverse_iteratorIPdEES3_EENS_4pairIT0_S5_EET_S7_, symObjAddr: 0x5030, symBinAddr: 0x1000156B0, symSize: 0x90 }
  - { offsetInCU: 0xCC2B, offset: 0x4E580, size: 0x8, addend: 0x0, symName: __ZNSt3__113__unwrap_iterB7v160006INS_16reverse_iteratorIPdEENS_18__unwrap_iter_implIS3_Lb0EEELi0EEEDTclsrT0_8__unwrapclsr3stdE7declvalIT_EEEES7_, symObjAddr: 0x5160, symBinAddr: 0x1000157E0, symSize: 0x40 }
  - { offsetInCU: 0xCC6F, offset: 0x4E5C4, size: 0x8, addend: 0x0, symName: __ZNSt3__19make_pairB7v160006INS_16reverse_iteratorIPdEES3_EENS_4pairINS_18__unwrap_ref_decayIT_E4typeENS5_IT0_E4typeEEEOS6_OS9_, symObjAddr: 0x51A0, symBinAddr: 0x100015820, symSize: 0x30 }
  - { offsetInCU: 0xCCBE, offset: 0x4E613, size: 0x8, addend: 0x0, symName: __ZNSt3__114__rewrap_rangeB7v160006INS_16reverse_iteratorIPdEES3_EET_S4_T0_, symObjAddr: 0x51D0, symBinAddr: 0x100015850, symSize: 0x60 }
  - { offsetInCU: 0xCD0A, offset: 0x4E65F, size: 0x8, addend: 0x0, symName: __ZNSt3__113__rewrap_iterB7v160006INS_16reverse_iteratorIPdEES3_NS_18__unwrap_iter_implIS3_Lb0EEEEET_S6_T0_, symObjAddr: 0x5230, symBinAddr: 0x1000158B0, symSize: 0x70 }
  - { offsetInCU: 0xCE44, offset: 0x4E799, size: 0x8, addend: 0x0, symName: __ZNSt3__1neB7v160006IP4DateEEbRKNS_11__wrap_iterIT_EES7_, symObjAddr: 0x6720, symBinAddr: 0x100015CC0, symSize: 0x30 }
  - { offsetInCU: 0xCE87, offset: 0x4E7DC, size: 0x8, addend: 0x0, symName: __ZNSt3__1neB7v160006ERKNS_21__hash_const_iteratorIPNS_11__hash_nodeINS_17__hash_value_typeINS_12basic_stringIcNS_11char_traitsIcEENS_9allocatorIcEEEE9RateCurveEEPvEEEESG_, symObjAddr: 0x7730, symBinAddr: 0x100015D60, symSize: 0x30 }
  - { offsetInCU: 0xCEC4, offset: 0x4E819, size: 0x8, addend: 0x0, symName: __ZNSt3__1eqB7v160006ERKNS_21__hash_const_iteratorIPNS_11__hash_nodeINS_17__hash_value_typeINS_12basic_stringIcNS_11char_traitsIcEENS_9allocatorIcEEEE9RateCurveEEPvEEEESG_, symObjAddr: 0x7760, symBinAddr: 0x100015D90, symSize: 0x30 }
  - { offsetInCU: 0xCF01, offset: 0x4E856, size: 0x8, addend: 0x0, symName: __ZNSt3__1neB7v160006ERKNS_21__hash_const_iteratorIPNS_11__hash_nodeINS_17__hash_value_typeINS_12basic_stringIcNS_11char_traitsIcEENS_9allocatorIcEEEE8VolCurveEEPvEEEESG_, symObjAddr: 0x78A0, symBinAddr: 0x100015E10, symSize: 0x30 }
  - { offsetInCU: 0xCF3E, offset: 0x4E893, size: 0x8, addend: 0x0, symName: __ZNSt3__1eqB7v160006ERKNS_21__hash_const_iteratorIPNS_11__hash_nodeINS_17__hash_value_typeINS_12basic_stringIcNS_11char_traitsIcEENS_9allocatorIcEEEE8VolCurveEEPvEEEESG_, symObjAddr: 0x78D0, symBinAddr: 0x100015E40, symSize: 0x30 }
  - { offsetInCU: 0xCFE1, offset: 0x4E936, size: 0x8, addend: 0x0, symName: __ZNSt3__125__debug_db_invalidate_allB7v160006INS_12__hash_tableINS_17__hash_value_typeINS_12basic_stringIcNS_11char_traitsIcEENS_9allocatorIcEEEE8VolCurveEENS_22__unordered_map_hasherIS8_SA_NS_4hashIS8_EENS_8equal_toIS8_EELb1EEENS_21__unordered_map_equalIS8_SA_SF_SD_Lb1EEENS6_ISA_EEEEEEvPT_, symObjAddr: 0xBA60, symBinAddr: 0x100017C20, symSize: 0x10 }
  - { offsetInCU: 0xD054, offset: 0x4E9A9, size: 0x8, addend: 0x0, symName: __ZNSt3__125__debug_db_invalidate_allB7v160006INS_12__hash_tableINS_17__hash_value_typeINS_12basic_stringIcNS_11char_traitsIcEENS_9allocatorIcEEEEdEENS_22__unordered_map_hasherIS8_S9_NS_4hashIS8_EENS_8equal_toIS8_EELb1EEENS_21__unordered_map_equalIS8_S9_SE_SC_Lb1EEENS6_IS9_EEEEEEvPT_, symObjAddr: 0xD540, symBinAddr: 0x1000193D0, symSize: 0x10 }
  - { offsetInCU: 0xD92A, offset: 0x4F27F, size: 0x8, addend: 0x0, symName: __ZNSt3__16vectorIdNS_9allocatorIdEEE26__swap_out_circular_bufferERNS_14__split_bufferIdRS2_EE, symObjAddr: 0x47F0, symBinAddr: 0x100014EF0, symSize: 0x130 }
  - { offsetInCU: 0x10196, offset: 0x51AEB, size: 0x8, addend: 0x0, symName: __ZNK9RateCurve7displayEv, symObjAddr: 0x0, symBinAddr: 0x1000134D0, symSize: 0x160 }
  - { offsetInCU: 0x101D1, offset: 0x51B26, size: 0x8, addend: 0x0, symName: __ZNKSt3__16vectorI4DateNS_9allocatorIS1_EEEixB7v160006Em, symObjAddr: 0x290, symBinAddr: 0x100013630, symSize: 0x20 }
  - { offsetInCU: 0x10208, offset: 0x51B5D, size: 0x8, addend: 0x0, symName: __ZNKSt3__16vectorIdNS_9allocatorIdEEEixB7v160006Em, symObjAddr: 0x2B0, symBinAddr: 0x100013650, symSize: 0x20 }
  - { offsetInCU: 0x10240, offset: 0x51B95, size: 0x8, addend: 0x0, symName: __ZN9RateCurve7addRateE4Dated, symObjAddr: 0x2D0, symBinAddr: 0x100013670, symSize: 0xC0 }
  - { offsetInCU: 0x10283, offset: 0x51BD8, size: 0x8, addend: 0x0, symName: __ZNSt3__16vectorI4DateNS_9allocatorIS1_EEE5beginB7v160006Ev, symObjAddr: 0x450, symBinAddr: 0x1000137F0, symSize: 0x30 }
  - { offsetInCU: 0x102AB, offset: 0x51C00, size: 0x8, addend: 0x0, symName: __ZNSt3__16vectorI4DateNS_9allocatorIS1_EEE3endB7v160006Ev, symObjAddr: 0x480, symBinAddr: 0x100013820, symSize: 0x30 }
  - { offsetInCU: 0x102D3, offset: 0x51C28, size: 0x8, addend: 0x0, symName: __ZNSt3__16vectorIdNS_9allocatorIdEEE9push_backB7v160006ERKd, symObjAddr: 0x510, symBinAddr: 0x100013850, symSize: 0x60 }
  - { offsetInCU: 0x1030B, offset: 0x51C60, size: 0x8, addend: 0x0, symName: __ZN9RateCurve5shockE4Dated, symObjAddr: 0x570, symBinAddr: 0x1000138B0, symSize: 0xA0 }
  - { offsetInCU: 0x103A1, offset: 0x51CF6, size: 0x8, addend: 0x0, symName: __ZNSt3__16vectorIdNS_9allocatorIdEEE5beginB7v160006Ev, symObjAddr: 0x610, symBinAddr: 0x100013950, symSize: 0x30 }
  - { offsetInCU: 0x103C9, offset: 0x51D1E, size: 0x8, addend: 0x0, symName: __ZNSt3__16vectorIdNS_9allocatorIdEEE3endB7v160006Ev, symObjAddr: 0x640, symBinAddr: 0x100013980, symSize: 0x30 }
  - { offsetInCU: 0x103F2, offset: 0x51D47, size: 0x8, addend: 0x0, symName: __ZNKSt3__111__wrap_iterIPdEdeB7v160006Ev, symObjAddr: 0x6A0, symBinAddr: 0x1000139E0, symSize: 0x20 }
  - { offsetInCU: 0x10418, offset: 0x51D6D, size: 0x8, addend: 0x0, symName: __ZNSt3__111__wrap_iterIPdEppB7v160006Ev, symObjAddr: 0x6C0, symBinAddr: 0x100013A00, symSize: 0x20 }
  - { offsetInCU: 0x1043E, offset: 0x51D93, size: 0x8, addend: 0x0, symName: __ZNK9RateCurve7getRateE4Date, symObjAddr: 0x6E0, symBinAddr: 0x100013A20, symSize: 0x200 }
  - { offsetInCU: 0x104DB, offset: 0x51E30, size: 0x8, addend: 0x0, symName: __ZNK9RateCurve5getDfE4Date, symObjAddr: 0x8E0, symBinAddr: 0x100013C20, symSize: 0xA0 }
  - { offsetInCU: 0x1052E, offset: 0x51E83, size: 0x8, addend: 0x0, symName: __ZNK8VolCurve7displayEv, symObjAddr: 0x980, symBinAddr: 0x100013CC0, symSize: 0x160 }
  - { offsetInCU: 0x1056A, offset: 0x51EBF, size: 0x8, addend: 0x0, symName: __ZN8VolCurve6addVolE4Dated, symObjAddr: 0xAE0, symBinAddr: 0x100013E20, symSize: 0xC0 }
  - { offsetInCU: 0x105AE, offset: 0x51F03, size: 0x8, addend: 0x0, symName: __ZN8VolCurve5shockE4Dated, symObjAddr: 0xBA0, symBinAddr: 0x100013EE0, symSize: 0xA0 }
  - { offsetInCU: 0x10645, offset: 0x51F9A, size: 0x8, addend: 0x0, symName: __ZNK8VolCurve6getVolE4Date, symObjAddr: 0xC40, symBinAddr: 0x100013F80, symSize: 0x1B0 }
  - { offsetInCU: 0x10AC8, offset: 0x5241D, size: 0x8, addend: 0x0, symName: __ZNK6Market5PrintEv, symObjAddr: 0xDF0, symBinAddr: 0x100014130, symSize: 0x5A0 }
  - { offsetInCU: 0x10C2A, offset: 0x5257F, size: 0x8, addend: 0x0, symName: __ZNKSt3__113unordered_mapINS_12basic_stringIcNS_11char_traitsIcEENS_9allocatorIcEEEE9RateCurveNS_4hashIS6_EENS_8equal_toIS6_EENS4_INS_4pairIKS6_S7_EEEEE3endB7v160006Ev, symObjAddr: 0x13C0, symBinAddr: 0x1000146D0, symSize: 0x30 }
  - { offsetInCU: 0x10C50, offset: 0x525A5, size: 0x8, addend: 0x0, symName: __ZNKSt3__125__hash_map_const_iteratorINS_21__hash_const_iteratorIPNS_11__hash_nodeINS_17__hash_value_typeINS_12basic_stringIcNS_11char_traitsIcEENS_9allocatorIcEEEE9RateCurveEEPvEEEEEdeB7v160006Ev, symObjAddr: 0x1420, symBinAddr: 0x100014730, symSize: 0x30 }
  - { offsetInCU: 0x10C76, offset: 0x525CB, size: 0x8, addend: 0x0, symName: __ZNSt3__14pairIKNS_12basic_stringIcNS_11char_traitsIcEENS_9allocatorIcEEEE9RateCurveEC1ERKS9_, symObjAddr: 0x1450, symBinAddr: 0x100014760, symSize: 0x30 }
  - { offsetInCU: 0x10CAB, offset: 0x52600, size: 0x8, addend: 0x0, symName: __ZNSt3__125__hash_map_const_iteratorINS_21__hash_const_iteratorIPNS_11__hash_nodeINS_17__hash_value_typeINS_12basic_stringIcNS_11char_traitsIcEENS_9allocatorIcEEEE9RateCurveEEPvEEEEEppB7v160006Ev, symObjAddr: 0x14A0, symBinAddr: 0x100014790, symSize: 0x30 }
  - { offsetInCU: 0x10CD1, offset: 0x52626, size: 0x8, addend: 0x0, symName: __ZNKSt3__113unordered_mapINS_12basic_stringIcNS_11char_traitsIcEENS_9allocatorIcEEEE8VolCurveNS_4hashIS6_EENS_8equal_toIS6_EENS4_INS_4pairIKS6_S7_EEEEE3endB7v160006Ev, symObjAddr: 0x1500, symBinAddr: 0x1000147C0, symSize: 0x30 }
  - { offsetInCU: 0x10CF7, offset: 0x5264C, size: 0x8, addend: 0x0, symName: __ZNKSt3__125__hash_map_const_iteratorINS_21__hash_const_iteratorIPNS_11__hash_nodeINS_17__hash_value_typeINS_12basic_stringIcNS_11char_traitsIcEENS_9allocatorIcEEEE8VolCurveEEPvEEEEEdeB7v160006Ev, symObjAddr: 0x1560, symBinAddr: 0x100014820, symSize: 0x30 }
  - { offsetInCU: 0x10D1D, offset: 0x52672, size: 0x8, addend: 0x0, symName: __ZNSt3__14pairIKNS_12basic_stringIcNS_11char_traitsIcEENS_9allocatorIcEEEE8VolCurveEC1ERKS9_, symObjAddr: 0x1590, symBinAddr: 0x100014850, symSize: 0x30 }
  - { offsetInCU: 0x10D52, offset: 0x526A7, size: 0x8, addend: 0x0, symName: __ZNSt3__125__hash_map_const_iteratorINS_21__hash_const_iteratorIPNS_11__hash_nodeINS_17__hash_value_typeINS_12basic_stringIcNS_11char_traitsIcEENS_9allocatorIcEEEE8VolCurveEEPvEEEEEppB7v160006Ev, symObjAddr: 0x15E0, symBinAddr: 0x100014880, symSize: 0x30 }
  - { offsetInCU: 0x10D78, offset: 0x526CD, size: 0x8, addend: 0x0, symName: __ZN6Market8addCurveERKNSt3__112basic_stringIcNS0_11char_traitsIcEENS0_9allocatorIcEEEERK9RateCurve, symObjAddr: 0x1750, symBinAddr: 0x1000148B0, symSize: 0x40 }
  - { offsetInCU: 0x10DBC, offset: 0x52711, size: 0x8, addend: 0x0, symName: __ZNSt3__113unordered_mapINS_12basic_stringIcNS_11char_traitsIcEENS_9allocatorIcEEEE9RateCurveNS_4hashIS6_EENS_8equal_toIS6_EENS4_INS_4pairIKS6_S7_EEEEE7emplaceB7v160006IJRSD_RKS7_EEENSC_INS_19__hash_map_iteratorINS_15__hash_iteratorIPNS_11__hash_nodeINS_17__hash_value_typeIS6_S7_EEPvEEEEEEbEEDpOT_, symObjAddr: 0x1790, symBinAddr: 0x1000148F0, symSize: 0x50 }
  - { offsetInCU: 0x10E10, offset: 0x52765, size: 0x8, addend: 0x0, symName: __ZN6Market11addVolCurveERKNSt3__112basic_stringIcNS0_11char_traitsIcEENS0_9allocatorIcEEEERK8VolCurve, symObjAddr: 0x17E0, symBinAddr: 0x100014940, symSize: 0x40 }
  - { offsetInCU: 0x10E54, offset: 0x527A9, size: 0x8, addend: 0x0, symName: __ZNSt3__113unordered_mapINS_12basic_stringIcNS_11char_traitsIcEENS_9allocatorIcEEEE8VolCurveNS_4hashIS6_EENS_8equal_toIS6_EENS4_INS_4pairIKS6_S7_EEEEE7emplaceB7v160006IJRSD_RKS7_EEENSC_INS_19__hash_map_iteratorINS_15__hash_iteratorIPNS_11__hash_nodeINS_17__hash_value_typeIS6_S7_EEPvEEEEEEbEEDpOT_, symObjAddr: 0x1820, symBinAddr: 0x100014980, symSize: 0x50 }
  - { offsetInCU: 0x10EA8, offset: 0x527FD, size: 0x8, addend: 0x0, symName: __ZN6Market12addBondPriceERKNSt3__112basic_stringIcNS0_11char_traitsIcEENS0_9allocatorIcEEEEd, symObjAddr: 0x1870, symBinAddr: 0x1000149D0, symSize: 0x40 }
  - { offsetInCU: 0x10EEC, offset: 0x52841, size: 0x8, addend: 0x0, symName: __ZNSt3__113unordered_mapINS_12basic_stringIcNS_11char_traitsIcEENS_9allocatorIcEEEEdNS_4hashIS6_EENS_8equal_toIS6_EENS4_INS_4pairIKS6_dEEEEE7emplaceB7v160006IJRSC_RdEEENSB_INS_19__hash_map_iteratorINS_15__hash_iteratorIPNS_11__hash_nodeINS_17__hash_value_typeIS6_dEEPvEEEEEEbEEDpOT_, symObjAddr: 0x18B0, symBinAddr: 0x100014A10, symSize: 0x50 }
  - { offsetInCU: 0x10F40, offset: 0x52895, size: 0x8, addend: 0x0, symName: __ZN6Market13addStockPriceERKNSt3__112basic_stringIcNS0_11char_traitsIcEENS0_9allocatorIcEEEEd, symObjAddr: 0x1900, symBinAddr: 0x100014A60, symSize: 0x40 }
  - { offsetInCU: 0x10F83, offset: 0x528D8, size: 0x8, addend: 0x0, symName: __ZlsRNSt3__113basic_ostreamIcNS_11char_traitsIcEEEERK6Market, symObjAddr: 0x1940, symBinAddr: 0x100014AA0, symSize: 0x40 }
  - { offsetInCU: 0x10FBD, offset: 0x52912, size: 0x8, addend: 0x0, symName: __ZrsRNSt3__113basic_istreamIcNS_11char_traitsIcEEEER6Market, symObjAddr: 0x1980, symBinAddr: 0x100014AE0, symSize: 0x30 }
  - { offsetInCU: 0x10FF8, offset: 0x5294D, size: 0x8, addend: 0x0, symName: __ZNKSt3__111__wrap_iterIP4DateE4baseB7v160006Ev, symObjAddr: 0x19B0, symBinAddr: 0x100014B10, symSize: 0x20 }
  - { offsetInCU: 0x1101E, offset: 0x52973, size: 0x8, addend: 0x0, symName: __ZNKSt3__111__wrap_iterIPdE4baseB7v160006Ev, symObjAddr: 0x1A10, symBinAddr: 0x100014B70, symSize: 0x20 }
  - { offsetInCU: 0x11044, offset: 0x52999, size: 0x8, addend: 0x0, symName: __ZNSt3__14pairIKNS_12basic_stringIcNS_11char_traitsIcEENS_9allocatorIcEEEE9RateCurveEC2ERKS9_, symObjAddr: 0x1A30, symBinAddr: 0x100014B90, symSize: 0x60 }
  - { offsetInCU: 0x110BA, offset: 0x52A0F, size: 0x8, addend: 0x0, symName: __ZNSt3__14pairIKNS_12basic_stringIcNS_11char_traitsIcEENS_9allocatorIcEEEE8VolCurveEC2ERKS9_, symObjAddr: 0x4320, symBinAddr: 0x100014BF0, symSize: 0x60 }
  - { offsetInCU: 0x110EF, offset: 0x52A44, size: 0x8, addend: 0x0, symName: __ZNSt3__16vectorIdNS_9allocatorIdEEE22__construct_one_at_endB7v160006IJRKdEEEvDpOT_, symObjAddr: 0x4550, symBinAddr: 0x100014C50, symSize: 0x90 }
  - { offsetInCU: 0x1113D, offset: 0x52A92, size: 0x8, addend: 0x0, symName: __ZNSt3__16vectorIdNS_9allocatorIdEEE21__push_back_slow_pathIRKdEEvOT_, symObjAddr: 0x45E0, symBinAddr: 0x100014CE0, symSize: 0xD0 }
  - { offsetInCU: 0x1119C, offset: 0x52AF1, size: 0x8, addend: 0x0, symName: __ZNSt3__116allocator_traitsINS_9allocatorIdEEE9constructB7v160006IdJRKdEvEEvRS2_PT_DpOT0_, symObjAddr: 0x46B0, symBinAddr: 0x100014DB0, symSize: 0x30 }
  - { offsetInCU: 0x111F3, offset: 0x52B48, size: 0x8, addend: 0x0, symName: __ZNSt3__19allocatorIdE9constructB7v160006IdJRKdEEEvPT_DpOT0_, symObjAddr: 0x46E0, symBinAddr: 0x100014DE0, symSize: 0x30 }
  - { offsetInCU: 0x11248, offset: 0x52B9D, size: 0x8, addend: 0x0, symName: __ZNKSt3__16vectorIdNS_9allocatorIdEEE11__recommendB7v160006Em, symObjAddr: 0x4710, symBinAddr: 0x100014E10, symSize: 0xA0 }
  - { offsetInCU: 0x1129E, offset: 0x52BF3, size: 0x8, addend: 0x0, symName: __ZNSt3__114__split_bufferIdRNS_9allocatorIdEEEC1EmmS3_, symObjAddr: 0x47B0, symBinAddr: 0x100014EB0, symSize: 0x40 }
  - { offsetInCU: 0x112F4, offset: 0x52C49, size: 0x8, addend: 0x0, symName: __ZNSt3__114__split_bufferIdRNS_9allocatorIdEEED1Ev, symObjAddr: 0x4920, symBinAddr: 0x100015020, symSize: 0x20 }
  - { offsetInCU: 0x11320, offset: 0x52C75, size: 0x8, addend: 0x0, symName: __ZNSt3__114__split_bufferIdRNS_9allocatorIdEEEC2EmmS3_, symObjAddr: 0x49C0, symBinAddr: 0x100015040, symSize: 0xD0 }
  - { offsetInCU: 0x11393, offset: 0x52CE8, size: 0x8, addend: 0x0, symName: __ZNSt3__117__compressed_pairIPdRNS_9allocatorIdEEEC1B7v160006IDnS4_EEOT_OT0_, symObjAddr: 0x4A90, symBinAddr: 0x100015110, symSize: 0x30 }
  - { offsetInCU: 0x113EB, offset: 0x52D40, size: 0x8, addend: 0x0, symName: __ZNSt3__114__split_bufferIdRNS_9allocatorIdEEE7__allocB7v160006Ev, symObjAddr: 0x4AC0, symBinAddr: 0x100015140, symSize: 0x20 }
  - { offsetInCU: 0x11411, offset: 0x52D66, size: 0x8, addend: 0x0, symName: __ZNSt3__114__split_bufferIdRNS_9allocatorIdEEE9__end_capB7v160006Ev, symObjAddr: 0x4AE0, symBinAddr: 0x100015160, symSize: 0x20 }
  - { offsetInCU: 0x11437, offset: 0x52D8C, size: 0x8, addend: 0x0, symName: __ZNSt3__117__compressed_pairIPdRNS_9allocatorIdEEEC2B7v160006IDnS4_EEOT_OT0_, symObjAddr: 0x4B00, symBinAddr: 0x100015180, symSize: 0x40 }
  - { offsetInCU: 0x1148F, offset: 0x52DE4, size: 0x8, addend: 0x0, symName: __ZNSt3__122__compressed_pair_elemIRNS_9allocatorIdEELi1ELb0EEC2B7v160006IS3_vEEOT_, symObjAddr: 0x4B40, symBinAddr: 0x1000151C0, symSize: 0x20 }
  - { offsetInCU: 0x114D1, offset: 0x52E26, size: 0x8, addend: 0x0, symName: __ZNSt3__117__compressed_pairIPdRNS_9allocatorIdEEE6secondB7v160006Ev, symObjAddr: 0x4B60, symBinAddr: 0x1000151E0, symSize: 0x20 }
  - { offsetInCU: 0x114F7, offset: 0x52E4C, size: 0x8, addend: 0x0, symName: __ZNSt3__122__compressed_pair_elemIRNS_9allocatorIdEELi1ELb0EE5__getB7v160006Ev, symObjAddr: 0x4B80, symBinAddr: 0x100015200, symSize: 0x20 }
  - { offsetInCU: 0x1151D, offset: 0x52E72, size: 0x8, addend: 0x0, symName: __ZNSt3__117__compressed_pairIPdRNS_9allocatorIdEEE5firstB7v160006Ev, symObjAddr: 0x4BA0, symBinAddr: 0x100015220, symSize: 0x20 }
  - { offsetInCU: 0x11566, offset: 0x52EBB, size: 0x8, addend: 0x0, symName: __ZNKSt3__111__move_loopINS_17_ClassicAlgPolicyEEclB7v160006INS_16reverse_iteratorIPdEES6_S6_EENS_4pairIT_T1_EES8_T0_S9_, symObjAddr: 0x50C0, symBinAddr: 0x100015740, symSize: 0xA0 }
  - { offsetInCU: 0x115D6, offset: 0x52F2B, size: 0x8, addend: 0x0, symName: __ZNSt3__18_IterOpsINS_17_ClassicAlgPolicyEE11__iter_moveB7v160006IRNS_16reverse_iteratorIPdEEEENS_9enable_ifIXsr12is_referenceIDTdeclsr3stdE7declvalIRT_EEEEE5valueEDTclsr3stdE4movedeclsr3stdE7declvalISA_EEEEE4typeEOS9_, symObjAddr: 0x52A0, symBinAddr: 0x100015920, symSize: 0x20 }
  - { offsetInCU: 0x11602, offset: 0x52F57, size: 0x8, addend: 0x0, symName: __ZNSt3__18_IterOpsINS_17_ClassicAlgPolicyEE25__validate_iter_referenceB7v160006IRNS_16reverse_iteratorIPdEEEEvv, symObjAddr: 0x52C0, symBinAddr: 0x100015940, symSize: 0x10 }
  - { offsetInCU: 0x11620, offset: 0x52F75, size: 0x8, addend: 0x0, symName: __ZNSt3__118__unwrap_iter_implINS_16reverse_iteratorIPdEELb0EE8__unwrapB7v160006ES3_, symObjAddr: 0x52D0, symBinAddr: 0x100015950, symSize: 0x20 }
  - { offsetInCU: 0x11648, offset: 0x52F9D, size: 0x8, addend: 0x0, symName: __ZNSt3__14pairINS_16reverse_iteratorIPdEES3_EC1B7v160006IS3_S3_LPv0EEEOT_OT0_, symObjAddr: 0x52F0, symBinAddr: 0x100015970, symSize: 0x30 }
  - { offsetInCU: 0x116A6, offset: 0x52FFB, size: 0x8, addend: 0x0, symName: __ZNSt3__14pairINS_16reverse_iteratorIPdEES3_EC2B7v160006IS3_S3_LPv0EEEOT_OT0_, symObjAddr: 0x5320, symBinAddr: 0x1000159A0, symSize: 0x40 }
  - { offsetInCU: 0x11704, offset: 0x53059, size: 0x8, addend: 0x0, symName: __ZNSt3__118__unwrap_iter_implINS_16reverse_iteratorIPdEELb0EE8__rewrapB7v160006ES3_S3_, symObjAddr: 0x5360, symBinAddr: 0x1000159E0, symSize: 0x30 }
  - { offsetInCU: 0x11732, offset: 0x53087, size: 0x8, addend: 0x0, symName: __ZNSt3__114__split_bufferIdRNS_9allocatorIdEEED2Ev, symObjAddr: 0x5390, symBinAddr: 0x100015A10, symSize: 0x70 }
  - { offsetInCU: 0x1175E, offset: 0x530B3, size: 0x8, addend: 0x0, symName: __ZNSt3__114__split_bufferIdRNS_9allocatorIdEEE5clearB7v160006Ev, symObjAddr: 0x5400, symBinAddr: 0x100015A80, symSize: 0x20 }
  - { offsetInCU: 0x11784, offset: 0x530D9, size: 0x8, addend: 0x0, symName: __ZNKSt3__114__split_bufferIdRNS_9allocatorIdEEE8capacityB7v160006Ev, symObjAddr: 0x5420, symBinAddr: 0x100015AA0, symSize: 0x30 }
  - { offsetInCU: 0x117AA, offset: 0x530FF, size: 0x8, addend: 0x0, symName: __ZNSt3__114__split_bufferIdRNS_9allocatorIdEEE17__destruct_at_endB7v160006EPd, symObjAddr: 0x5450, symBinAddr: 0x100015AD0, symSize: 0x30 }
  - { offsetInCU: 0x117DD, offset: 0x53132, size: 0x8, addend: 0x0, symName: __ZNSt3__114__split_bufferIdRNS_9allocatorIdEEE17__destruct_at_endB7v160006EPdNS_17integral_constantIbLb0EEE, symObjAddr: 0x5480, symBinAddr: 0x100015B00, symSize: 0x80 }
  - { offsetInCU: 0x1181F, offset: 0x53174, size: 0x8, addend: 0x0, symName: __ZNKSt3__114__split_bufferIdRNS_9allocatorIdEEE9__end_capB7v160006Ev, symObjAddr: 0x5500, symBinAddr: 0x100015B80, symSize: 0x20 }
  - { offsetInCU: 0x11845, offset: 0x5319A, size: 0x8, addend: 0x0, symName: __ZNKSt3__117__compressed_pairIPdRNS_9allocatorIdEEE5firstB7v160006Ev, symObjAddr: 0x5520, symBinAddr: 0x100015BA0, symSize: 0x20 }
  - { offsetInCU: 0x1186B, offset: 0x531C0, size: 0x8, addend: 0x0, symName: __ZNSt3__16vectorIdNS_9allocatorIdEEE11__make_iterB7v160006EPd, symObjAddr: 0x5540, symBinAddr: 0x100015BC0, symSize: 0x30 }
  - { offsetInCU: 0x118A0, offset: 0x531F5, size: 0x8, addend: 0x0, symName: __ZNSt3__111__wrap_iterIPdEC1B7v160006EPKvS1_, symObjAddr: 0x5570, symBinAddr: 0x100015BF0, symSize: 0x30 }
  - { offsetInCU: 0x118E6, offset: 0x5323B, size: 0x8, addend: 0x0, symName: __ZNSt3__111__wrap_iterIPdEC2B7v160006EPKvS1_, symObjAddr: 0x55A0, symBinAddr: 0x100015C20, symSize: 0x20 }
  - { offsetInCU: 0x1194A, offset: 0x5329F, size: 0x8, addend: 0x0, symName: __ZNSt3__16vectorI4DateNS_9allocatorIS1_EEE11__make_iterB7v160006EPS1_, symObjAddr: 0x66A0, symBinAddr: 0x100015C40, symSize: 0x30 }
  - { offsetInCU: 0x1197F, offset: 0x532D4, size: 0x8, addend: 0x0, symName: __ZNSt3__111__wrap_iterIP4DateEC1B7v160006EPKvS2_, symObjAddr: 0x66D0, symBinAddr: 0x100015C70, symSize: 0x30 }
  - { offsetInCU: 0x119C5, offset: 0x5331A, size: 0x8, addend: 0x0, symName: __ZNSt3__111__wrap_iterIP4DateEC2B7v160006EPKvS2_, symObjAddr: 0x6700, symBinAddr: 0x100015CA0, symSize: 0x20 }
  - { offsetInCU: 0x11A0B, offset: 0x53360, size: 0x8, addend: 0x0, symName: __ZNKSt3__111__wrap_iterIP4DateEdeB7v160006Ev, symObjAddr: 0x6750, symBinAddr: 0x100015CF0, symSize: 0x20 }
  - { offsetInCU: 0x11A31, offset: 0x53386, size: 0x8, addend: 0x0, symName: __ZNSt3__111__wrap_iterIP4DateEppB7v160006Ev, symObjAddr: 0x6770, symBinAddr: 0x100015D10, symSize: 0x20 }
  - { offsetInCU: 0x11A56, offset: 0x533AB, size: 0x8, addend: 0x0, symName: __ZNKSt3__112__hash_tableINS_17__hash_value_typeINS_12basic_stringIcNS_11char_traitsIcEENS_9allocatorIcEEEE9RateCurveEENS_22__unordered_map_hasherIS7_S9_NS_4hashIS7_EENS_8equal_toIS7_EELb1EEENS_21__unordered_map_equalIS7_S9_SE_SC_Lb1EEENS5_IS9_EEE3endEv, symObjAddr: 0x7700, symBinAddr: 0x100015D30, symSize: 0x30 }
  - { offsetInCU: 0x11A7F, offset: 0x533D4, size: 0x8, addend: 0x0, symName: __ZNSt3__121__hash_const_iteratorIPNS_11__hash_nodeINS_17__hash_value_typeINS_12basic_stringIcNS_11char_traitsIcEENS_9allocatorIcEEEE9RateCurveEEPvEEEppB7v160006Ev, symObjAddr: 0x7790, symBinAddr: 0x100015DC0, symSize: 0x20 }
  - { offsetInCU: 0x11AA4, offset: 0x533F9, size: 0x8, addend: 0x0, symName: __ZNKSt3__112__hash_tableINS_17__hash_value_typeINS_12basic_stringIcNS_11char_traitsIcEENS_9allocatorIcEEEE8VolCurveEENS_22__unordered_map_hasherIS7_S9_NS_4hashIS7_EENS_8equal_toIS7_EELb1EEENS_21__unordered_map_equalIS7_S9_SE_SC_Lb1EEENS5_IS9_EEE3endEv, symObjAddr: 0x7870, symBinAddr: 0x100015DE0, symSize: 0x30 }
  - { offsetInCU: 0x11ACD, offset: 0x53422, size: 0x8, addend: 0x0, symName: __ZNSt3__121__hash_const_iteratorIPNS_11__hash_nodeINS_17__hash_value_typeINS_12basic_stringIcNS_11char_traitsIcEENS_9allocatorIcEEEE8VolCurveEEPvEEEppB7v160006Ev, symObjAddr: 0x7900, symBinAddr: 0x100015E70, symSize: 0x20 }
  - { offsetInCU: 0x11AF3, offset: 0x53448, size: 0x8, addend: 0x0, symName: __ZNSt3__112__hash_tableINS_17__hash_value_typeINS_12basic_stringIcNS_11char_traitsIcEENS_9allocatorIcEEEE9RateCurveEENS_22__unordered_map_hasherIS7_S9_NS_4hashIS7_EENS_8equal_toIS7_EELb1EEENS_21__unordered_map_equalIS7_S9_SE_SC_Lb1EEENS5_IS9_EEE16__emplace_uniqueB7v160006IRKS7_RKS8_EENS_9enable_ifIXsr21__can_extract_map_keyIT_S7_NS_4pairISL_S8_EEEE5valueENSR_INS_15__hash_iteratorIPNS_11__hash_nodeIS9_PvEEEEbEEE4typeEOSQ_OT0_, symObjAddr: 0x79E0, symBinAddr: 0x100015E90, symSize: 0x40 }
  - { offsetInCU: 0x11B49, offset: 0x5349E, size: 0x8, addend: 0x0, symName: __ZNSt3__14pairINS_19__hash_map_iteratorINS_15__hash_iteratorIPNS_11__hash_nodeINS_17__hash_value_typeINS_12basic_stringIcNS_11char_traitsIcEENS_9allocatorIcEEEE9RateCurveEEPvEEEEEEbEC1B7v160006ISG_bLSD_0EEEONS0_IT_T0_EE, symObjAddr: 0x7A20, symBinAddr: 0x100015ED0, symSize: 0x30 }
  - { offsetInCU: 0x11B99, offset: 0x534EE, size: 0x8, addend: 0x0, symName: __ZNSt3__112__hash_tableINS_17__hash_value_typeINS_12basic_stringIcNS_11char_traitsIcEENS_9allocatorIcEEEE9RateCurveEENS_22__unordered_map_hasherIS7_S9_NS_4hashIS7_EENS_8equal_toIS7_EELb1EEENS_21__unordered_map_equalIS7_S9_SE_SC_Lb1EEENS5_IS9_EEE25__emplace_unique_key_argsIS7_JRKS7_RKS8_EEENS_4pairINS_15__hash_iteratorIPNS_11__hash_nodeIS9_PvEEEEbEERKT_DpOT0_, symObjAddr: 0x7A50, symBinAddr: 0x100015F00, symSize: 0x640 }
  - { offsetInCU: 0x11C8C, offset: 0x535E1, size: 0x8, addend: 0x0, symName: __ZNSt3__112__hash_tableINS_17__hash_value_typeINS_12basic_stringIcNS_11char_traitsIcEENS_9allocatorIcEEEE9RateCurveEENS_22__unordered_map_hasherIS7_S9_NS_4hashIS7_EENS_8equal_toIS7_EELb1EEENS_21__unordered_map_equalIS7_S9_SE_SC_Lb1EEENS5_IS9_EEE21__construct_node_hashIRKS7_JRKS8_EEENS_10unique_ptrINS_11__hash_nodeIS9_PvEENS_22__hash_node_destructorINS5_ISS_EEEEEEmOT_DpOT0_, symObjAddr: 0x8240, symBinAddr: 0x100016540, symSize: 0x140 }
  - { offsetInCU: 0x11D1F, offset: 0x53674, size: 0x8, addend: 0x0, symName: __ZNSt3__116allocator_traitsINS_9allocatorINS_11__hash_nodeINS_17__hash_value_typeINS_12basic_stringIcNS_11char_traitsIcEENS1_IcEEEE9RateCurveEEPvEEEEE9constructB7v160006INS_4pairIKS8_S9_EEJRSH_RKS9_EvEEvRSD_PT_DpOT0_, symObjAddr: 0x9640, symBinAddr: 0x100016680, symSize: 0x40 }
  - { offsetInCU: 0x11D94, offset: 0x536E9, size: 0x8, addend: 0x0, symName: __ZNSt3__19allocatorINS_11__hash_nodeINS_17__hash_value_typeINS_12basic_stringIcNS_11char_traitsIcEENS0_IcEEEE9RateCurveEEPvEEE9constructB7v160006INS_4pairIKS7_S8_EEJRSF_RKS8_EEEvPT_DpOT0_, symObjAddr: 0x98B0, symBinAddr: 0x1000166C0, symSize: 0x30 }
  - { offsetInCU: 0x11DFD, offset: 0x53752, size: 0x8, addend: 0x0, symName: __ZNSt3__14pairIKNS_12basic_stringIcNS_11char_traitsIcEENS_9allocatorIcEEEE9RateCurveEC1B7v160006ILb1ELPv0EEERS7_RKS8_, symObjAddr: 0x98E0, symBinAddr: 0x1000166F0, symSize: 0x30 }
  - { offsetInCU: 0x11E53, offset: 0x537A8, size: 0x8, addend: 0x0, symName: __ZNSt3__14pairIKNS_12basic_stringIcNS_11char_traitsIcEENS_9allocatorIcEEEE9RateCurveEC2B7v160006ILb1ELPv0EEERS7_RKS8_, symObjAddr: 0x9910, symBinAddr: 0x100016720, symSize: 0x60 }
  - { offsetInCU: 0x11EA9, offset: 0x537FE, size: 0x8, addend: 0x0, symName: __ZNSt3__14pairINS_19__hash_map_iteratorINS_15__hash_iteratorIPNS_11__hash_nodeINS_17__hash_value_typeINS_12basic_stringIcNS_11char_traitsIcEENS_9allocatorIcEEEE9RateCurveEEPvEEEEEEbEC2B7v160006ISG_bLSD_0EEEONS0_IT_T0_EE, symObjAddr: 0xA4E0, symBinAddr: 0x100016780, symSize: 0x50 }
  - { offsetInCU: 0x11EFA, offset: 0x5384F, size: 0x8, addend: 0x0, symName: __ZNSt3__119__hash_map_iteratorINS_15__hash_iteratorIPNS_11__hash_nodeINS_17__hash_value_typeINS_12basic_stringIcNS_11char_traitsIcEENS_9allocatorIcEEEE9RateCurveEEPvEEEEEC1B7v160006ESF_, symObjAddr: 0xA530, symBinAddr: 0x1000167D0, symSize: 0x30 }
  - { offsetInCU: 0x11F33, offset: 0x53888, size: 0x8, addend: 0x0, symName: __ZNSt3__119__hash_map_iteratorINS_15__hash_iteratorIPNS_11__hash_nodeINS_17__hash_value_typeINS_12basic_stringIcNS_11char_traitsIcEENS_9allocatorIcEEEE9RateCurveEEPvEEEEEC2B7v160006ESF_, symObjAddr: 0xA560, symBinAddr: 0x100016800, symSize: 0x20 }
  - { offsetInCU: 0x11F6C, offset: 0x538C1, size: 0x8, addend: 0x0, symName: __ZNSt3__112__hash_tableINS_17__hash_value_typeINS_12basic_stringIcNS_11char_traitsIcEENS_9allocatorIcEEEE8VolCurveEENS_22__unordered_map_hasherIS7_S9_NS_4hashIS7_EENS_8equal_toIS7_EELb1EEENS_21__unordered_map_equalIS7_S9_SE_SC_Lb1EEENS5_IS9_EEE16__emplace_uniqueB7v160006IRKS7_RKS8_EENS_9enable_ifIXsr21__can_extract_map_keyIT_S7_NS_4pairISL_S8_EEEE5valueENSR_INS_15__hash_iteratorIPNS_11__hash_nodeIS9_PvEEEEbEEE4typeEOSQ_OT0_, symObjAddr: 0xA580, symBinAddr: 0x100016820, symSize: 0x40 }
  - { offsetInCU: 0x11FC2, offset: 0x53917, size: 0x8, addend: 0x0, symName: __ZNSt3__14pairINS_19__hash_map_iteratorINS_15__hash_iteratorIPNS_11__hash_nodeINS_17__hash_value_typeINS_12basic_stringIcNS_11char_traitsIcEENS_9allocatorIcEEEE8VolCurveEEPvEEEEEEbEC1B7v160006ISG_bLSD_0EEEONS0_IT_T0_EE, symObjAddr: 0xA5C0, symBinAddr: 0x100016860, symSize: 0x30 }
  - { offsetInCU: 0x12012, offset: 0x53967, size: 0x8, addend: 0x0, symName: __ZNSt3__112__hash_tableINS_17__hash_value_typeINS_12basic_stringIcNS_11char_traitsIcEENS_9allocatorIcEEEE8VolCurveEENS_22__unordered_map_hasherIS7_S9_NS_4hashIS7_EENS_8equal_toIS7_EELb1EEENS_21__unordered_map_equalIS7_S9_SE_SC_Lb1EEENS5_IS9_EEE25__emplace_unique_key_argsIS7_JRKS7_RKS8_EEENS_4pairINS_15__hash_iteratorIPNS_11__hash_nodeIS9_PvEEEEbEERKT_DpOT0_, symObjAddr: 0xA5F0, symBinAddr: 0x100016890, symSize: 0x5F0 }
  - { offsetInCU: 0x12106, offset: 0x53A5B, size: 0x8, addend: 0x0, symName: __ZNSt3__112__hash_tableINS_17__hash_value_typeINS_12basic_stringIcNS_11char_traitsIcEENS_9allocatorIcEEEE8VolCurveEENS_22__unordered_map_hasherIS7_S9_NS_4hashIS7_EENS_8equal_toIS7_EELb1EEENS_21__unordered_map_equalIS7_S9_SE_SC_Lb1EEENS5_IS9_EEE13hash_functionB7v160006Ev, symObjAddr: 0xABE0, symBinAddr: 0x100016E80, symSize: 0x20 }
  - { offsetInCU: 0x1212C, offset: 0x53A81, size: 0x8, addend: 0x0, symName: __ZNKSt3__122__unordered_map_hasherINS_12basic_stringIcNS_11char_traitsIcEENS_9allocatorIcEEEENS_17__hash_value_typeIS6_8VolCurveEENS_4hashIS6_EENS_8equal_toIS6_EELb1EEclB7v160006ERKS6_, symObjAddr: 0xAC00, symBinAddr: 0x100016EA0, symSize: 0x30 }
  - { offsetInCU: 0x12161, offset: 0x53AB6, size: 0x8, addend: 0x0, symName: __ZNKSt3__112__hash_tableINS_17__hash_value_typeINS_12basic_stringIcNS_11char_traitsIcEENS_9allocatorIcEEEE8VolCurveEENS_22__unordered_map_hasherIS7_S9_NS_4hashIS7_EENS_8equal_toIS7_EELb1EEENS_21__unordered_map_equalIS7_S9_SE_SC_Lb1EEENS5_IS9_EEE12bucket_countB7v160006Ev, symObjAddr: 0xAC30, symBinAddr: 0x100016ED0, symSize: 0x30 }
  - { offsetInCU: 0x12187, offset: 0x53ADC, size: 0x8, addend: 0x0, symName: __ZNKSt3__110unique_ptrIA_PNS_16__hash_node_baseIPNS_11__hash_nodeINS_17__hash_value_typeINS_12basic_stringIcNS_11char_traitsIcEENS_9allocatorIcEEEE8VolCurveEEPvEEEENS_25__bucket_list_deallocatorINS7_ISG_EEEEEixB7v160006Em, symObjAddr: 0xAC60, symBinAddr: 0x100016F00, symSize: 0x30 }
  - { offsetInCU: 0x121BC, offset: 0x53B11, size: 0x8, addend: 0x0, symName: __ZNKSt3__116__hash_node_baseIPNS_11__hash_nodeINS_17__hash_value_typeINS_12basic_stringIcNS_11char_traitsIcEENS_9allocatorIcEEEE8VolCurveEEPvEEE6__hashB7v160006Ev, symObjAddr: 0xAC90, symBinAddr: 0x100016F30, symSize: 0x20 }
  - { offsetInCU: 0x121E2, offset: 0x53B37, size: 0x8, addend: 0x0, symName: __ZNSt3__112__hash_tableINS_17__hash_value_typeINS_12basic_stringIcNS_11char_traitsIcEENS_9allocatorIcEEEE8VolCurveEENS_22__unordered_map_hasherIS7_S9_NS_4hashIS7_EENS_8equal_toIS7_EELb1EEENS_21__unordered_map_equalIS7_S9_SE_SC_Lb1EEENS5_IS9_EEE6key_eqB7v160006Ev, symObjAddr: 0xACB0, symBinAddr: 0x100016F50, symSize: 0x20 }
  - { offsetInCU: 0x12208, offset: 0x53B5D, size: 0x8, addend: 0x0, symName: __ZNKSt3__121__unordered_map_equalINS_12basic_stringIcNS_11char_traitsIcEENS_9allocatorIcEEEENS_17__hash_value_typeIS6_8VolCurveEENS_8equal_toIS6_EENS_4hashIS6_EELb1EEclB7v160006ERKS9_RKS6_, symObjAddr: 0xACD0, symBinAddr: 0x100016F70, symSize: 0x40 }
  - { offsetInCU: 0x1224B, offset: 0x53BA0, size: 0x8, addend: 0x0, symName: __ZNSt3__112__hash_tableINS_17__hash_value_typeINS_12basic_stringIcNS_11char_traitsIcEENS_9allocatorIcEEEE8VolCurveEENS_22__unordered_map_hasherIS7_S9_NS_4hashIS7_EENS_8equal_toIS7_EELb1EEENS_21__unordered_map_equalIS7_S9_SE_SC_Lb1EEENS5_IS9_EEE21__construct_node_hashIRKS7_JRKS8_EEENS_10unique_ptrINS_11__hash_nodeIS9_PvEENS_22__hash_node_destructorINS5_ISS_EEEEEEmOT_DpOT0_, symObjAddr: 0xAD10, symBinAddr: 0x100016FB0, symSize: 0x140 }
  - { offsetInCU: 0x122D4, offset: 0x53C29, size: 0x8, addend: 0x0, symName: __ZNSt3__112__hash_tableINS_17__hash_value_typeINS_12basic_stringIcNS_11char_traitsIcEENS_9allocatorIcEEEE8VolCurveEENS_22__unordered_map_hasherIS7_S9_NS_4hashIS7_EENS_8equal_toIS7_EELb1EEENS_21__unordered_map_equalIS7_S9_SE_SC_Lb1EEENS5_IS9_EEE4sizeB7v160006Ev, symObjAddr: 0xAE50, symBinAddr: 0x1000170F0, symSize: 0x20 }
  - { offsetInCU: 0x122FA, offset: 0x53C4F, size: 0x8, addend: 0x0, symName: __ZNSt3__112__hash_tableINS_17__hash_value_typeINS_12basic_stringIcNS_11char_traitsIcEENS_9allocatorIcEEEE8VolCurveEENS_22__unordered_map_hasherIS7_S9_NS_4hashIS7_EENS_8equal_toIS7_EELb1EEENS_21__unordered_map_equalIS7_S9_SE_SC_Lb1EEENS5_IS9_EEE15max_load_factorB7v160006Ev, symObjAddr: 0xAE70, symBinAddr: 0x100017110, symSize: 0x20 }
  - { offsetInCU: 0x12320, offset: 0x53C75, size: 0x8, addend: 0x0, symName: __ZNSt3__112__hash_tableINS_17__hash_value_typeINS_12basic_stringIcNS_11char_traitsIcEENS_9allocatorIcEEEE8VolCurveEENS_22__unordered_map_hasherIS7_S9_NS_4hashIS7_EENS_8equal_toIS7_EELb1EEENS_21__unordered_map_equalIS7_S9_SE_SC_Lb1EEENS5_IS9_EEE15__rehash_uniqueB7v160006Em, symObjAddr: 0xAE90, symBinAddr: 0x100017130, symSize: 0x30 }
  - { offsetInCU: 0x12355, offset: 0x53CAA, size: 0x8, addend: 0x0, symName: __ZNSt3__116__hash_node_baseIPNS_11__hash_nodeINS_17__hash_value_typeINS_12basic_stringIcNS_11char_traitsIcEENS_9allocatorIcEEEE8VolCurveEEPvEEE5__ptrB7v160006Ev, symObjAddr: 0xAEE0, symBinAddr: 0x100017160, symSize: 0x20 }
  - { offsetInCU: 0x1237B, offset: 0x53CD0, size: 0x8, addend: 0x0, symName: __ZNKSt3__110unique_ptrINS_11__hash_nodeINS_17__hash_value_typeINS_12basic_stringIcNS_11char_traitsIcEENS_9allocatorIcEEEE8VolCurveEEPvEENS_22__hash_node_destructorINS6_ISC_EEEEEptB7v160006Ev, symObjAddr: 0xAF00, symBinAddr: 0x100017180, symSize: 0x20 }
  - { offsetInCU: 0x123A1, offset: 0x53CF6, size: 0x8, addend: 0x0, symName: __ZNKSt3__110unique_ptrINS_11__hash_nodeINS_17__hash_value_typeINS_12basic_stringIcNS_11char_traitsIcEENS_9allocatorIcEEEE8VolCurveEEPvEENS_22__hash_node_destructorINS6_ISC_EEEEE3getB7v160006Ev, symObjAddr: 0xAF20, symBinAddr: 0x1000171A0, symSize: 0x20 }
  - { offsetInCU: 0x123C7, offset: 0x53D1C, size: 0x8, addend: 0x0, symName: __ZNSt3__110unique_ptrINS_11__hash_nodeINS_17__hash_value_typeINS_12basic_stringIcNS_11char_traitsIcEENS_9allocatorIcEEEE8VolCurveEEPvEENS_22__hash_node_destructorINS6_ISC_EEEEE7releaseB7v160006Ev, symObjAddr: 0xAF40, symBinAddr: 0x1000171C0, symSize: 0x40 }
  - { offsetInCU: 0x123FC, offset: 0x53D51, size: 0x8, addend: 0x0, symName: __ZNSt3__110unique_ptrINS_11__hash_nodeINS_17__hash_value_typeINS_12basic_stringIcNS_11char_traitsIcEENS_9allocatorIcEEEE8VolCurveEEPvEENS_22__hash_node_destructorINS6_ISC_EEEEED1B7v160006Ev, symObjAddr: 0xAF80, symBinAddr: 0x100017200, symSize: 0x20 }
  - { offsetInCU: 0x12426, offset: 0x53D7B, size: 0x8, addend: 0x0, symName: __ZNSt3__115__hash_iteratorIPNS_11__hash_nodeINS_17__hash_value_typeINS_12basic_stringIcNS_11char_traitsIcEENS_9allocatorIcEEEE8VolCurveEEPvEEEC1B7v160006EPNS_16__hash_node_baseISD_EEPKv, symObjAddr: 0xAFA0, symBinAddr: 0x100017220, symSize: 0x30 }
  - { offsetInCU: 0x12473, offset: 0x53DC8, size: 0x8, addend: 0x0, symName: __ZNSt3__14pairINS_15__hash_iteratorIPNS_11__hash_nodeINS_17__hash_value_typeINS_12basic_stringIcNS_11char_traitsIcEENS_9allocatorIcEEEE8VolCurveEEPvEEEEbEC1B7v160006ISF_RbLSC_0EEEOT_OT0_, symObjAddr: 0xAFD0, symBinAddr: 0x100017250, symSize: 0x30 }
  - { offsetInCU: 0x124D1, offset: 0x53E26, size: 0x8, addend: 0x0, symName: __ZNSt3__117__compressed_pairImNS_22__unordered_map_hasherINS_12basic_stringIcNS_11char_traitsIcEENS_9allocatorIcEEEENS_17__hash_value_typeIS7_8VolCurveEENS_4hashIS7_EENS_8equal_toIS7_EELb1EEEE6secondB7v160006Ev, symObjAddr: 0xB000, symBinAddr: 0x100017280, symSize: 0x20 }
  - { offsetInCU: 0x124F7, offset: 0x53E4C, size: 0x8, addend: 0x0, symName: __ZNSt3__122__compressed_pair_elemINS_22__unordered_map_hasherINS_12basic_stringIcNS_11char_traitsIcEENS_9allocatorIcEEEENS_17__hash_value_typeIS7_8VolCurveEENS_4hashIS7_EENS_8equal_toIS7_EELb1EEELi1ELb1EE5__getB7v160006Ev, symObjAddr: 0xB020, symBinAddr: 0x1000172A0, symSize: 0x10 }
  - { offsetInCU: 0x1251D, offset: 0x53E72, size: 0x8, addend: 0x0, symName: __ZNKSt3__110unique_ptrIA_PNS_16__hash_node_baseIPNS_11__hash_nodeINS_17__hash_value_typeINS_12basic_stringIcNS_11char_traitsIcEENS_9allocatorIcEEEE8VolCurveEEPvEEEENS_25__bucket_list_deallocatorINS7_ISG_EEEEE11get_deleterB7v160006Ev, symObjAddr: 0xB030, symBinAddr: 0x1000172B0, symSize: 0x20 }
  - { offsetInCU: 0x12543, offset: 0x53E98, size: 0x8, addend: 0x0, symName: __ZNKSt3__125__bucket_list_deallocatorINS_9allocatorIPNS_16__hash_node_baseIPNS_11__hash_nodeINS_17__hash_value_typeINS_12basic_stringIcNS_11char_traitsIcEENS1_IcEEEE8VolCurveEEPvEEEEEEE4sizeB7v160006Ev, symObjAddr: 0xB050, symBinAddr: 0x1000172D0, symSize: 0x20 }
  - { offsetInCU: 0x12569, offset: 0x53EBE, size: 0x8, addend: 0x0, symName: __ZNKSt3__117__compressed_pairIPPNS_16__hash_node_baseIPNS_11__hash_nodeINS_17__hash_value_typeINS_12basic_stringIcNS_11char_traitsIcEENS_9allocatorIcEEEE8VolCurveEEPvEEEENS_25__bucket_list_deallocatorINS7_ISG_EEEEE6secondB7v160006Ev, symObjAddr: 0xB070, symBinAddr: 0x1000172F0, symSize: 0x20 }
  - { offsetInCU: 0x1258F, offset: 0x53EE4, size: 0x8, addend: 0x0, symName: __ZNKSt3__122__compressed_pair_elemINS_25__bucket_list_deallocatorINS_9allocatorIPNS_16__hash_node_baseIPNS_11__hash_nodeINS_17__hash_value_typeINS_12basic_stringIcNS_11char_traitsIcEENS2_IcEEEE8VolCurveEEPvEEEEEEEELi1ELb0EE5__getB7v160006Ev, symObjAddr: 0xB090, symBinAddr: 0x100017310, symSize: 0x10 }
  - { offsetInCU: 0x125B5, offset: 0x53F0A, size: 0x8, addend: 0x0, symName: __ZNKSt3__117__compressed_pairImNS_9allocatorIPNS_16__hash_node_baseIPNS_11__hash_nodeINS_17__hash_value_typeINS_12basic_stringIcNS_11char_traitsIcEENS1_IcEEEE8VolCurveEEPvEEEEEEE5firstB7v160006Ev, symObjAddr: 0xB0A0, symBinAddr: 0x100017320, symSize: 0x20 }
  - { offsetInCU: 0x125DB, offset: 0x53F30, size: 0x8, addend: 0x0, symName: __ZNKSt3__117__compressed_pairIPPNS_16__hash_node_baseIPNS_11__hash_nodeINS_17__hash_value_typeINS_12basic_stringIcNS_11char_traitsIcEENS_9allocatorIcEEEE8VolCurveEEPvEEEENS_25__bucket_list_deallocatorINS7_ISG_EEEEE5firstB7v160006Ev, symObjAddr: 0xB0C0, symBinAddr: 0x100017340, symSize: 0x20 }
  - { offsetInCU: 0x12601, offset: 0x53F56, size: 0x8, addend: 0x0, symName: __ZNKSt3__122__compressed_pair_elemIPPNS_16__hash_node_baseIPNS_11__hash_nodeINS_17__hash_value_typeINS_12basic_stringIcNS_11char_traitsIcEENS_9allocatorIcEEEE8VolCurveEEPvEEEELi0ELb0EE5__getB7v160006Ev, symObjAddr: 0xB0E0, symBinAddr: 0x100017360, symSize: 0x10 }
  - { offsetInCU: 0x12627, offset: 0x53F7C, size: 0x8, addend: 0x0, symName: __ZNSt3__117__compressed_pairIfNS_21__unordered_map_equalINS_12basic_stringIcNS_11char_traitsIcEENS_9allocatorIcEEEENS_17__hash_value_typeIS7_8VolCurveEENS_8equal_toIS7_EENS_4hashIS7_EELb1EEEE6secondB7v160006Ev, symObjAddr: 0xB0F0, symBinAddr: 0x100017370, symSize: 0x20 }
  - { offsetInCU: 0x1264D, offset: 0x53FA2, size: 0x8, addend: 0x0, symName: __ZNSt3__122__compressed_pair_elemINS_21__unordered_map_equalINS_12basic_stringIcNS_11char_traitsIcEENS_9allocatorIcEEEENS_17__hash_value_typeIS7_8VolCurveEENS_8equal_toIS7_EENS_4hashIS7_EELb1EEELi1ELb1EE5__getB7v160006Ev, symObjAddr: 0xB110, symBinAddr: 0x100017390, symSize: 0x10 }
  - { offsetInCU: 0x12673, offset: 0x53FC8, size: 0x8, addend: 0x0, symName: __ZNSt3__116allocator_traitsINS_9allocatorINS_11__hash_nodeINS_17__hash_value_typeINS_12basic_stringIcNS_11char_traitsIcEENS1_IcEEEE8VolCurveEEPvEEEEE8allocateB7v160006ERSD_m, symObjAddr: 0xB140, symBinAddr: 0x1000173A0, symSize: 0x30 }
  - { offsetInCU: 0x126A6, offset: 0x53FFB, size: 0x8, addend: 0x0, symName: __ZNSt3__122__hash_node_destructorINS_9allocatorINS_11__hash_nodeINS_17__hash_value_typeINS_12basic_stringIcNS_11char_traitsIcEENS1_IcEEEE8VolCurveEEPvEEEEEC1B7v160006ERSD_b, symObjAddr: 0xB170, symBinAddr: 0x1000173D0, symSize: 0x40 }
  - { offsetInCU: 0x126F3, offset: 0x54048, size: 0x8, addend: 0x0, symName: __ZNSt3__110unique_ptrINS_11__hash_nodeINS_17__hash_value_typeINS_12basic_stringIcNS_11char_traitsIcEENS_9allocatorIcEEEE8VolCurveEEPvEENS_22__hash_node_destructorINS6_ISC_EEEEEC1B7v160006ILb1EvEEPSC_NS_16__dependent_typeINS_27__unique_ptr_deleter_sfinaeISF_EEXT_EE20__good_rval_ref_typeE, symObjAddr: 0xB1B0, symBinAddr: 0x100017410, symSize: 0x30 }
  - { offsetInCU: 0x12744, offset: 0x54099, size: 0x8, addend: 0x0, symName: __ZNSt3__116allocator_traitsINS_9allocatorINS_11__hash_nodeINS_17__hash_value_typeINS_12basic_stringIcNS_11char_traitsIcEENS1_IcEEEE8VolCurveEEPvEEEEE9constructB7v160006INS_4pairIKS8_S9_EEJRSH_RKS9_EvEEvRSD_PT_DpOT0_, symObjAddr: 0xB1E0, symBinAddr: 0x100017440, symSize: 0x40 }
  - { offsetInCU: 0x127AF, offset: 0x54104, size: 0x8, addend: 0x0, symName: __ZNSt3__110unique_ptrINS_11__hash_nodeINS_17__hash_value_typeINS_12basic_stringIcNS_11char_traitsIcEENS_9allocatorIcEEEE8VolCurveEEPvEENS_22__hash_node_destructorINS6_ISC_EEEEE11get_deleterB7v160006Ev, symObjAddr: 0xB240, symBinAddr: 0x100017480, symSize: 0x20 }
  - { offsetInCU: 0x127D5, offset: 0x5412A, size: 0x8, addend: 0x0, symName: __ZNSt3__19allocatorINS_11__hash_nodeINS_17__hash_value_typeINS_12basic_stringIcNS_11char_traitsIcEENS0_IcEEEE8VolCurveEEPvEEE8allocateB7v160006Em, symObjAddr: 0xB290, symBinAddr: 0x1000174A0, symSize: 0x50 }
  - { offsetInCU: 0x12813, offset: 0x54168, size: 0x8, addend: 0x0, symName: __ZNSt3__116allocator_traitsINS_9allocatorINS_11__hash_nodeINS_17__hash_value_typeINS_12basic_stringIcNS_11char_traitsIcEENS1_IcEEEE8VolCurveEEPvEEEEE8max_sizeB7v160006ISD_vEEmRKSD_, symObjAddr: 0xB2E0, symBinAddr: 0x1000174F0, symSize: 0x20 }
  - { offsetInCU: 0x12841, offset: 0x54196, size: 0x8, addend: 0x0, symName: __ZNKSt3__19allocatorINS_11__hash_nodeINS_17__hash_value_typeINS_12basic_stringIcNS_11char_traitsIcEENS0_IcEEEE8VolCurveEEPvEEE8max_sizeB7v160006Ev, symObjAddr: 0xB300, symBinAddr: 0x100017510, symSize: 0x20 }
  - { offsetInCU: 0x12867, offset: 0x541BC, size: 0x8, addend: 0x0, symName: __ZNSt3__122__hash_node_destructorINS_9allocatorINS_11__hash_nodeINS_17__hash_value_typeINS_12basic_stringIcNS_11char_traitsIcEENS1_IcEEEE8VolCurveEEPvEEEEEC2B7v160006ERSD_b, symObjAddr: 0xB320, symBinAddr: 0x100017530, symSize: 0x30 }
  - { offsetInCU: 0x128AF, offset: 0x54204, size: 0x8, addend: 0x0, symName: __ZNSt3__110unique_ptrINS_11__hash_nodeINS_17__hash_value_typeINS_12basic_stringIcNS_11char_traitsIcEENS_9allocatorIcEEEE8VolCurveEEPvEENS_22__hash_node_destructorINS6_ISC_EEEEEC2B7v160006ILb1EvEEPSC_NS_16__dependent_typeINS_27__unique_ptr_deleter_sfinaeISF_EEXT_EE20__good_rval_ref_typeE, symObjAddr: 0xB350, symBinAddr: 0x100017560, symSize: 0x40 }
  - { offsetInCU: 0x12900, offset: 0x54255, size: 0x8, addend: 0x0, symName: __ZNSt3__117__compressed_pairIPNS_11__hash_nodeINS_17__hash_value_typeINS_12basic_stringIcNS_11char_traitsIcEENS_9allocatorIcEEEE8VolCurveEEPvEENS_22__hash_node_destructorINS6_ISC_EEEEEC1B7v160006IRSD_SG_EEOT_OT0_, symObjAddr: 0xB390, symBinAddr: 0x1000175A0, symSize: 0x30 }
  - { offsetInCU: 0x12958, offset: 0x542AD, size: 0x8, addend: 0x0, symName: __ZNSt3__117__compressed_pairIPNS_11__hash_nodeINS_17__hash_value_typeINS_12basic_stringIcNS_11char_traitsIcEENS_9allocatorIcEEEE8VolCurveEEPvEENS_22__hash_node_destructorINS6_ISC_EEEEEC2B7v160006IRSD_SG_EEOT_OT0_, symObjAddr: 0xB3C0, symBinAddr: 0x1000175D0, symSize: 0x40 }
  - { offsetInCU: 0x129B0, offset: 0x54305, size: 0x8, addend: 0x0, symName: __ZNSt3__122__compressed_pair_elemIPNS_11__hash_nodeINS_17__hash_value_typeINS_12basic_stringIcNS_11char_traitsIcEENS_9allocatorIcEEEE8VolCurveEEPvEELi0ELb0EEC2B7v160006IRSD_vEEOT_, symObjAddr: 0xB400, symBinAddr: 0x100017610, symSize: 0x20 }
  - { offsetInCU: 0x129F2, offset: 0x54347, size: 0x8, addend: 0x0, symName: __ZNSt3__122__compressed_pair_elemINS_22__hash_node_destructorINS_9allocatorINS_11__hash_nodeINS_17__hash_value_typeINS_12basic_stringIcNS_11char_traitsIcEENS2_IcEEEE8VolCurveEEPvEEEEEELi1ELb0EEC2B7v160006ISF_vEEOT_, symObjAddr: 0xB420, symBinAddr: 0x100017630, symSize: 0x30 }
  - { offsetInCU: 0x12A34, offset: 0x54389, size: 0x8, addend: 0x0, symName: __ZNSt3__19allocatorINS_11__hash_nodeINS_17__hash_value_typeINS_12basic_stringIcNS_11char_traitsIcEENS0_IcEEEE8VolCurveEEPvEEE9constructB7v160006INS_4pairIKS7_S8_EEJRSF_RKS8_EEEvPT_DpOT0_, symObjAddr: 0xB450, symBinAddr: 0x100017660, symSize: 0x30 }
  - { offsetInCU: 0x12A9D, offset: 0x543F2, size: 0x8, addend: 0x0, symName: __ZNSt3__14pairIKNS_12basic_stringIcNS_11char_traitsIcEENS_9allocatorIcEEEE8VolCurveEC1B7v160006ILb1ELPv0EEERS7_RKS8_, symObjAddr: 0xB480, symBinAddr: 0x100017690, symSize: 0x30 }
  - { offsetInCU: 0x12AF3, offset: 0x54448, size: 0x8, addend: 0x0, symName: __ZNSt3__14pairIKNS_12basic_stringIcNS_11char_traitsIcEENS_9allocatorIcEEEE8VolCurveEC2B7v160006ILb1ELPv0EEERS7_RKS8_, symObjAddr: 0xB4B0, symBinAddr: 0x1000176C0, symSize: 0x60 }
  - { offsetInCU: 0x12B49, offset: 0x5449E, size: 0x8, addend: 0x0, symName: __ZNSt3__117__compressed_pairIPNS_11__hash_nodeINS_17__hash_value_typeINS_12basic_stringIcNS_11char_traitsIcEENS_9allocatorIcEEEE8VolCurveEEPvEENS_22__hash_node_destructorINS6_ISC_EEEEE6secondB7v160006Ev, symObjAddr: 0xB560, symBinAddr: 0x100017720, symSize: 0x20 }
  - { offsetInCU: 0x12B6F, offset: 0x544C4, size: 0x8, addend: 0x0, symName: __ZNSt3__122__compressed_pair_elemINS_22__hash_node_destructorINS_9allocatorINS_11__hash_nodeINS_17__hash_value_typeINS_12basic_stringIcNS_11char_traitsIcEENS2_IcEEEE8VolCurveEEPvEEEEEELi1ELb0EE5__getB7v160006Ev, symObjAddr: 0xB580, symBinAddr: 0x100017740, symSize: 0x10 }
  - { offsetInCU: 0x12B95, offset: 0x544EA, size: 0x8, addend: 0x0, symName: __ZNSt3__117__compressed_pairImNS_22__unordered_map_hasherINS_12basic_stringIcNS_11char_traitsIcEENS_9allocatorIcEEEENS_17__hash_value_typeIS7_8VolCurveEENS_4hashIS7_EENS_8equal_toIS7_EELb1EEEE5firstB7v160006Ev, symObjAddr: 0xB590, symBinAddr: 0x100017750, symSize: 0x20 }
  - { offsetInCU: 0x12BBB, offset: 0x54510, size: 0x8, addend: 0x0, symName: __ZNSt3__117__compressed_pairIfNS_21__unordered_map_equalINS_12basic_stringIcNS_11char_traitsIcEENS_9allocatorIcEEEENS_17__hash_value_typeIS7_8VolCurveEENS_8equal_toIS7_EENS_4hashIS7_EELb1EEEE5firstB7v160006Ev, symObjAddr: 0xB5B0, symBinAddr: 0x100017770, symSize: 0x20 }
  - { offsetInCU: 0x12BE0, offset: 0x54535, size: 0x8, addend: 0x0, symName: __ZNSt3__112__hash_tableINS_17__hash_value_typeINS_12basic_stringIcNS_11char_traitsIcEENS_9allocatorIcEEEE8VolCurveEENS_22__unordered_map_hasherIS7_S9_NS_4hashIS7_EENS_8equal_toIS7_EELb1EEENS_21__unordered_map_equalIS7_S9_SE_SC_Lb1EEENS5_IS9_EEE8__rehashILb1EEEvm, symObjAddr: 0xB5D0, symBinAddr: 0x100017790, symSize: 0x230 }
  - { offsetInCU: 0x12C30, offset: 0x54585, size: 0x8, addend: 0x0, symName: __ZNSt3__112__hash_tableINS_17__hash_value_typeINS_12basic_stringIcNS_11char_traitsIcEENS_9allocatorIcEEEE8VolCurveEENS_22__unordered_map_hasherIS7_S9_NS_4hashIS7_EENS_8equal_toIS7_EELb1EEENS_21__unordered_map_equalIS7_S9_SE_SC_Lb1EEENS5_IS9_EEE11__do_rehashILb1EEEvm, symObjAddr: 0xB800, symBinAddr: 0x1000179C0, symSize: 0x260 }
  - { offsetInCU: 0x12D14, offset: 0x54669, size: 0x8, addend: 0x0, symName: __ZNSt3__110unique_ptrIA_PNS_16__hash_node_baseIPNS_11__hash_nodeINS_17__hash_value_typeINS_12basic_stringIcNS_11char_traitsIcEENS_9allocatorIcEEEE8VolCurveEEPvEEEENS_25__bucket_list_deallocatorINS7_ISG_EEEEE11get_deleterB7v160006Ev, symObjAddr: 0xBA70, symBinAddr: 0x100017C30, symSize: 0x20 }
  - { offsetInCU: 0x12D3A, offset: 0x5468F, size: 0x8, addend: 0x0, symName: __ZNSt3__110unique_ptrIA_PNS_16__hash_node_baseIPNS_11__hash_nodeINS_17__hash_value_typeINS_12basic_stringIcNS_11char_traitsIcEENS_9allocatorIcEEEE8VolCurveEEPvEEEENS_25__bucket_list_deallocatorINS7_ISG_EEEEE5resetB7v160006IPSG_EENS_9enable_ifIXsr28_CheckArrayPointerConversionIT_EE5valueEvE4typeESP_, symObjAddr: 0xBAB0, symBinAddr: 0x100017C50, symSize: 0x70 }
  - { offsetInCU: 0x12D87, offset: 0x546DC, size: 0x8, addend: 0x0, symName: __ZNSt3__116allocator_traitsINS_9allocatorIPNS_16__hash_node_baseIPNS_11__hash_nodeINS_17__hash_value_typeINS_12basic_stringIcNS_11char_traitsIcEENS1_IcEEEE8VolCurveEEPvEEEEEEE8allocateB7v160006ERSH_m, symObjAddr: 0xBB20, symBinAddr: 0x100017CC0, symSize: 0x30 }
  - { offsetInCU: 0x12DBA, offset: 0x5470F, size: 0x8, addend: 0x0, symName: __ZNSt3__19allocatorIPNS_16__hash_node_baseIPNS_11__hash_nodeINS_17__hash_value_typeINS_12basic_stringIcNS_11char_traitsIcEENS0_IcEEEE8VolCurveEEPvEEEEE8allocateB7v160006Em, symObjAddr: 0xBCC0, symBinAddr: 0x100017CF0, symSize: 0x50 }
  - { offsetInCU: 0x12DF8, offset: 0x5474D, size: 0x8, addend: 0x0, symName: __ZNSt3__116allocator_traitsINS_9allocatorIPNS_16__hash_node_baseIPNS_11__hash_nodeINS_17__hash_value_typeINS_12basic_stringIcNS_11char_traitsIcEENS1_IcEEEE8VolCurveEEPvEEEEEEE8max_sizeB7v160006ISH_vEEmRKSH_, symObjAddr: 0xBD10, symBinAddr: 0x100017D40, symSize: 0x20 }
  - { offsetInCU: 0x12E26, offset: 0x5477B, size: 0x8, addend: 0x0, symName: __ZNKSt3__19allocatorIPNS_16__hash_node_baseIPNS_11__hash_nodeINS_17__hash_value_typeINS_12basic_stringIcNS_11char_traitsIcEENS0_IcEEEE8VolCurveEEPvEEEEE8max_sizeB7v160006Ev, symObjAddr: 0xBD30, symBinAddr: 0x100017D60, symSize: 0x20 }
  - { offsetInCU: 0x12E4C, offset: 0x547A1, size: 0x8, addend: 0x0, symName: __ZNKSt3__117__compressed_pairIPNS_11__hash_nodeINS_17__hash_value_typeINS_12basic_stringIcNS_11char_traitsIcEENS_9allocatorIcEEEE8VolCurveEEPvEENS_22__hash_node_destructorINS6_ISC_EEEEE5firstB7v160006Ev, symObjAddr: 0xBD80, symBinAddr: 0x100017D80, symSize: 0x20 }
  - { offsetInCU: 0x12E72, offset: 0x547C7, size: 0x8, addend: 0x0, symName: __ZNKSt3__122__compressed_pair_elemIPNS_11__hash_nodeINS_17__hash_value_typeINS_12basic_stringIcNS_11char_traitsIcEENS_9allocatorIcEEEE8VolCurveEEPvEELi0ELb0EE5__getB7v160006Ev, symObjAddr: 0xBDA0, symBinAddr: 0x100017DA0, symSize: 0x10 }
  - { offsetInCU: 0x12E98, offset: 0x547ED, size: 0x8, addend: 0x0, symName: __ZNSt3__117__compressed_pairIPNS_11__hash_nodeINS_17__hash_value_typeINS_12basic_stringIcNS_11char_traitsIcEENS_9allocatorIcEEEE8VolCurveEEPvEENS_22__hash_node_destructorINS6_ISC_EEEEE5firstB7v160006Ev, symObjAddr: 0xBDB0, symBinAddr: 0x100017DB0, symSize: 0x20 }
  - { offsetInCU: 0x12EBE, offset: 0x54813, size: 0x8, addend: 0x0, symName: __ZNSt3__122__compressed_pair_elemIPNS_11__hash_nodeINS_17__hash_value_typeINS_12basic_stringIcNS_11char_traitsIcEENS_9allocatorIcEEEE8VolCurveEEPvEELi0ELb0EE5__getB7v160006Ev, symObjAddr: 0xBDD0, symBinAddr: 0x100017DD0, symSize: 0x10 }
  - { offsetInCU: 0x12EE4, offset: 0x54839, size: 0x8, addend: 0x0, symName: __ZNSt3__110unique_ptrINS_11__hash_nodeINS_17__hash_value_typeINS_12basic_stringIcNS_11char_traitsIcEENS_9allocatorIcEEEE8VolCurveEEPvEENS_22__hash_node_destructorINS6_ISC_EEEEED2B7v160006Ev, symObjAddr: 0xBDE0, symBinAddr: 0x100017DE0, symSize: 0x20 }
  - { offsetInCU: 0x12F0E, offset: 0x54863, size: 0x8, addend: 0x0, symName: __ZNSt3__110unique_ptrINS_11__hash_nodeINS_17__hash_value_typeINS_12basic_stringIcNS_11char_traitsIcEENS_9allocatorIcEEEE8VolCurveEEPvEENS_22__hash_node_destructorINS6_ISC_EEEEE5resetB7v160006EPSC_, symObjAddr: 0xBE00, symBinAddr: 0x100017E00, symSize: 0x70 }
  - { offsetInCU: 0x12F52, offset: 0x548A7, size: 0x8, addend: 0x0, symName: __ZNSt3__122__hash_node_destructorINS_9allocatorINS_11__hash_nodeINS_17__hash_value_typeINS_12basic_stringIcNS_11char_traitsIcEENS1_IcEEEE8VolCurveEEPvEEEEEclB7v160006EPSC_, symObjAddr: 0xBE70, symBinAddr: 0x100017E70, symSize: 0x90 }
  - { offsetInCU: 0x12F87, offset: 0x548DC, size: 0x8, addend: 0x0, symName: __ZNSt3__115__hash_iteratorIPNS_11__hash_nodeINS_17__hash_value_typeINS_12basic_stringIcNS_11char_traitsIcEENS_9allocatorIcEEEE8VolCurveEEPvEEEC2B7v160006EPNS_16__hash_node_baseISD_EEPKv, symObjAddr: 0xBF90, symBinAddr: 0x100017F00, symSize: 0x20 }
  - { offsetInCU: 0x12FCF, offset: 0x54924, size: 0x8, addend: 0x0, symName: __ZNSt3__14pairINS_15__hash_iteratorIPNS_11__hash_nodeINS_17__hash_value_typeINS_12basic_stringIcNS_11char_traitsIcEENS_9allocatorIcEEEE8VolCurveEEPvEEEEbEC2B7v160006ISF_RbLSC_0EEEOT_OT0_, symObjAddr: 0xBFB0, symBinAddr: 0x100017F20, symSize: 0x30 }
  - { offsetInCU: 0x1302D, offset: 0x54982, size: 0x8, addend: 0x0, symName: __ZNSt3__14pairINS_19__hash_map_iteratorINS_15__hash_iteratorIPNS_11__hash_nodeINS_17__hash_value_typeINS_12basic_stringIcNS_11char_traitsIcEENS_9allocatorIcEEEE8VolCurveEEPvEEEEEEbEC2B7v160006ISG_bLSD_0EEEONS0_IT_T0_EE, symObjAddr: 0xBFE0, symBinAddr: 0x100017F50, symSize: 0x50 }
  - { offsetInCU: 0x1307E, offset: 0x549D3, size: 0x8, addend: 0x0, symName: __ZNSt3__119__hash_map_iteratorINS_15__hash_iteratorIPNS_11__hash_nodeINS_17__hash_value_typeINS_12basic_stringIcNS_11char_traitsIcEENS_9allocatorIcEEEE8VolCurveEEPvEEEEEC1B7v160006ESF_, symObjAddr: 0xC030, symBinAddr: 0x100017FA0, symSize: 0x30 }
  - { offsetInCU: 0x130B7, offset: 0x54A0C, size: 0x8, addend: 0x0, symName: __ZNSt3__119__hash_map_iteratorINS_15__hash_iteratorIPNS_11__hash_nodeINS_17__hash_value_typeINS_12basic_stringIcNS_11char_traitsIcEENS_9allocatorIcEEEE8VolCurveEEPvEEEEEC2B7v160006ESF_, symObjAddr: 0xC060, symBinAddr: 0x100017FD0, symSize: 0x20 }
  - { offsetInCU: 0x130F0, offset: 0x54A45, size: 0x8, addend: 0x0, symName: __ZNSt3__112__hash_tableINS_17__hash_value_typeINS_12basic_stringIcNS_11char_traitsIcEENS_9allocatorIcEEEEdEENS_22__unordered_map_hasherIS7_S8_NS_4hashIS7_EENS_8equal_toIS7_EELb1EEENS_21__unordered_map_equalIS7_S8_SD_SB_Lb1EEENS5_IS8_EEE16__emplace_uniqueB7v160006IRKS7_RdEENS_9enable_ifIXsr21__can_extract_map_keyIT_S7_NS_4pairISK_dEEEE5valueENSP_INS_15__hash_iteratorIPNS_11__hash_nodeIS8_PvEEEEbEEE4typeEOSO_OT0_, symObjAddr: 0xC080, symBinAddr: 0x100017FF0, symSize: 0x40 }
  - { offsetInCU: 0x13146, offset: 0x54A9B, size: 0x8, addend: 0x0, symName: __ZNSt3__14pairINS_19__hash_map_iteratorINS_15__hash_iteratorIPNS_11__hash_nodeINS_17__hash_value_typeINS_12basic_stringIcNS_11char_traitsIcEENS_9allocatorIcEEEEdEEPvEEEEEEbEC1B7v160006ISF_bLSC_0EEEONS0_IT_T0_EE, symObjAddr: 0xC0C0, symBinAddr: 0x100018030, symSize: 0x30 }
  - { offsetInCU: 0x13196, offset: 0x54AEB, size: 0x8, addend: 0x0, symName: __ZNSt3__112__hash_tableINS_17__hash_value_typeINS_12basic_stringIcNS_11char_traitsIcEENS_9allocatorIcEEEEdEENS_22__unordered_map_hasherIS7_S8_NS_4hashIS7_EENS_8equal_toIS7_EELb1EEENS_21__unordered_map_equalIS7_S8_SD_SB_Lb1EEENS5_IS8_EEE25__emplace_unique_key_argsIS7_JRKS7_RdEEENS_4pairINS_15__hash_iteratorIPNS_11__hash_nodeIS8_PvEEEEbEERKT_DpOT0_, symObjAddr: 0xC0F0, symBinAddr: 0x100018060, symSize: 0x5F0 }
  - { offsetInCU: 0x1328A, offset: 0x54BDF, size: 0x8, addend: 0x0, symName: __ZNSt3__112__hash_tableINS_17__hash_value_typeINS_12basic_stringIcNS_11char_traitsIcEENS_9allocatorIcEEEEdEENS_22__unordered_map_hasherIS7_S8_NS_4hashIS7_EENS_8equal_toIS7_EELb1EEENS_21__unordered_map_equalIS7_S8_SD_SB_Lb1EEENS5_IS8_EEE13hash_functionB7v160006Ev, symObjAddr: 0xC6E0, symBinAddr: 0x100018650, symSize: 0x20 }
  - { offsetInCU: 0x132B0, offset: 0x54C05, size: 0x8, addend: 0x0, symName: __ZNKSt3__122__unordered_map_hasherINS_12basic_stringIcNS_11char_traitsIcEENS_9allocatorIcEEEENS_17__hash_value_typeIS6_dEENS_4hashIS6_EENS_8equal_toIS6_EELb1EEclB7v160006ERKS6_, symObjAddr: 0xC700, symBinAddr: 0x100018670, symSize: 0x30 }
  - { offsetInCU: 0x132E5, offset: 0x54C3A, size: 0x8, addend: 0x0, symName: __ZNKSt3__112__hash_tableINS_17__hash_value_typeINS_12basic_stringIcNS_11char_traitsIcEENS_9allocatorIcEEEEdEENS_22__unordered_map_hasherIS7_S8_NS_4hashIS7_EENS_8equal_toIS7_EELb1EEENS_21__unordered_map_equalIS7_S8_SD_SB_Lb1EEENS5_IS8_EEE12bucket_countB7v160006Ev, symObjAddr: 0xC730, symBinAddr: 0x1000186A0, symSize: 0x30 }
  - { offsetInCU: 0x1330B, offset: 0x54C60, size: 0x8, addend: 0x0, symName: __ZNKSt3__110unique_ptrIA_PNS_16__hash_node_baseIPNS_11__hash_nodeINS_17__hash_value_typeINS_12basic_stringIcNS_11char_traitsIcEENS_9allocatorIcEEEEdEEPvEEEENS_25__bucket_list_deallocatorINS7_ISF_EEEEEixB7v160006Em, symObjAddr: 0xC760, symBinAddr: 0x1000186D0, symSize: 0x30 }
  - { offsetInCU: 0x13340, offset: 0x54C95, size: 0x8, addend: 0x0, symName: __ZNKSt3__116__hash_node_baseIPNS_11__hash_nodeINS_17__hash_value_typeINS_12basic_stringIcNS_11char_traitsIcEENS_9allocatorIcEEEEdEEPvEEE6__hashB7v160006Ev, symObjAddr: 0xC790, symBinAddr: 0x100018700, symSize: 0x20 }
  - { offsetInCU: 0x13366, offset: 0x54CBB, size: 0x8, addend: 0x0, symName: __ZNSt3__112__hash_tableINS_17__hash_value_typeINS_12basic_stringIcNS_11char_traitsIcEENS_9allocatorIcEEEEdEENS_22__unordered_map_hasherIS7_S8_NS_4hashIS7_EENS_8equal_toIS7_EELb1EEENS_21__unordered_map_equalIS7_S8_SD_SB_Lb1EEENS5_IS8_EEE6key_eqB7v160006Ev, symObjAddr: 0xC7B0, symBinAddr: 0x100018720, symSize: 0x20 }
  - { offsetInCU: 0x1338C, offset: 0x54CE1, size: 0x8, addend: 0x0, symName: __ZNKSt3__121__unordered_map_equalINS_12basic_stringIcNS_11char_traitsIcEENS_9allocatorIcEEEENS_17__hash_value_typeIS6_dEENS_8equal_toIS6_EENS_4hashIS6_EELb1EEclB7v160006ERKS8_RKS6_, symObjAddr: 0xC7D0, symBinAddr: 0x100018740, symSize: 0x40 }
  - { offsetInCU: 0x133CF, offset: 0x54D24, size: 0x8, addend: 0x0, symName: __ZNSt3__112__hash_tableINS_17__hash_value_typeINS_12basic_stringIcNS_11char_traitsIcEENS_9allocatorIcEEEEdEENS_22__unordered_map_hasherIS7_S8_NS_4hashIS7_EENS_8equal_toIS7_EELb1EEENS_21__unordered_map_equalIS7_S8_SD_SB_Lb1EEENS5_IS8_EEE21__construct_node_hashIRKS7_JRdEEENS_10unique_ptrINS_11__hash_nodeIS8_PvEENS_22__hash_node_destructorINS5_ISQ_EEEEEEmOT_DpOT0_, symObjAddr: 0xC810, symBinAddr: 0x100018780, symSize: 0x140 }
  - { offsetInCU: 0x13458, offset: 0x54DAD, size: 0x8, addend: 0x0, symName: __ZNSt3__112__hash_tableINS_17__hash_value_typeINS_12basic_stringIcNS_11char_traitsIcEENS_9allocatorIcEEEEdEENS_22__unordered_map_hasherIS7_S8_NS_4hashIS7_EENS_8equal_toIS7_EELb1EEENS_21__unordered_map_equalIS7_S8_SD_SB_Lb1EEENS5_IS8_EEE4sizeB7v160006Ev, symObjAddr: 0xC950, symBinAddr: 0x1000188C0, symSize: 0x20 }
  - { offsetInCU: 0x1347E, offset: 0x54DD3, size: 0x8, addend: 0x0, symName: __ZNSt3__112__hash_tableINS_17__hash_value_typeINS_12basic_stringIcNS_11char_traitsIcEENS_9allocatorIcEEEEdEENS_22__unordered_map_hasherIS7_S8_NS_4hashIS7_EENS_8equal_toIS7_EELb1EEENS_21__unordered_map_equalIS7_S8_SD_SB_Lb1EEENS5_IS8_EEE15max_load_factorB7v160006Ev, symObjAddr: 0xC970, symBinAddr: 0x1000188E0, symSize: 0x20 }
  - { offsetInCU: 0x134A4, offset: 0x54DF9, size: 0x8, addend: 0x0, symName: __ZNSt3__112__hash_tableINS_17__hash_value_typeINS_12basic_stringIcNS_11char_traitsIcEENS_9allocatorIcEEEEdEENS_22__unordered_map_hasherIS7_S8_NS_4hashIS7_EENS_8equal_toIS7_EELb1EEENS_21__unordered_map_equalIS7_S8_SD_SB_Lb1EEENS5_IS8_EEE15__rehash_uniqueB7v160006Em, symObjAddr: 0xC990, symBinAddr: 0x100018900, symSize: 0x30 }
  - { offsetInCU: 0x134D9, offset: 0x54E2E, size: 0x8, addend: 0x0, symName: __ZNSt3__116__hash_node_baseIPNS_11__hash_nodeINS_17__hash_value_typeINS_12basic_stringIcNS_11char_traitsIcEENS_9allocatorIcEEEEdEEPvEEE5__ptrB7v160006Ev, symObjAddr: 0xC9E0, symBinAddr: 0x100018930, symSize: 0x20 }
  - { offsetInCU: 0x134FF, offset: 0x54E54, size: 0x8, addend: 0x0, symName: __ZNKSt3__110unique_ptrINS_11__hash_nodeINS_17__hash_value_typeINS_12basic_stringIcNS_11char_traitsIcEENS_9allocatorIcEEEEdEEPvEENS_22__hash_node_destructorINS6_ISB_EEEEEptB7v160006Ev, symObjAddr: 0xCA00, symBinAddr: 0x100018950, symSize: 0x20 }
  - { offsetInCU: 0x13525, offset: 0x54E7A, size: 0x8, addend: 0x0, symName: __ZNKSt3__110unique_ptrINS_11__hash_nodeINS_17__hash_value_typeINS_12basic_stringIcNS_11char_traitsIcEENS_9allocatorIcEEEEdEEPvEENS_22__hash_node_destructorINS6_ISB_EEEEE3getB7v160006Ev, symObjAddr: 0xCA20, symBinAddr: 0x100018970, symSize: 0x20 }
  - { offsetInCU: 0x1354B, offset: 0x54EA0, size: 0x8, addend: 0x0, symName: __ZNSt3__110unique_ptrINS_11__hash_nodeINS_17__hash_value_typeINS_12basic_stringIcNS_11char_traitsIcEENS_9allocatorIcEEEEdEEPvEENS_22__hash_node_destructorINS6_ISB_EEEEE7releaseB7v160006Ev, symObjAddr: 0xCA40, symBinAddr: 0x100018990, symSize: 0x40 }
  - { offsetInCU: 0x13580, offset: 0x54ED5, size: 0x8, addend: 0x0, symName: __ZNSt3__110unique_ptrINS_11__hash_nodeINS_17__hash_value_typeINS_12basic_stringIcNS_11char_traitsIcEENS_9allocatorIcEEEEdEEPvEENS_22__hash_node_destructorINS6_ISB_EEEEED1B7v160006Ev, symObjAddr: 0xCA80, symBinAddr: 0x1000189D0, symSize: 0x20 }
  - { offsetInCU: 0x135AA, offset: 0x54EFF, size: 0x8, addend: 0x0, symName: __ZNSt3__115__hash_iteratorIPNS_11__hash_nodeINS_17__hash_value_typeINS_12basic_stringIcNS_11char_traitsIcEENS_9allocatorIcEEEEdEEPvEEEC1B7v160006EPNS_16__hash_node_baseISC_EEPKv, symObjAddr: 0xCAA0, symBinAddr: 0x1000189F0, symSize: 0x30 }
  - { offsetInCU: 0x135F7, offset: 0x54F4C, size: 0x8, addend: 0x0, symName: __ZNSt3__14pairINS_15__hash_iteratorIPNS_11__hash_nodeINS_17__hash_value_typeINS_12basic_stringIcNS_11char_traitsIcEENS_9allocatorIcEEEEdEEPvEEEEbEC1B7v160006ISE_RbLSB_0EEEOT_OT0_, symObjAddr: 0xCAD0, symBinAddr: 0x100018A20, symSize: 0x30 }
  - { offsetInCU: 0x13655, offset: 0x54FAA, size: 0x8, addend: 0x0, symName: __ZNSt3__117__compressed_pairImNS_22__unordered_map_hasherINS_12basic_stringIcNS_11char_traitsIcEENS_9allocatorIcEEEENS_17__hash_value_typeIS7_dEENS_4hashIS7_EENS_8equal_toIS7_EELb1EEEE6secondB7v160006Ev, symObjAddr: 0xCB00, symBinAddr: 0x100018A50, symSize: 0x20 }
  - { offsetInCU: 0x1367B, offset: 0x54FD0, size: 0x8, addend: 0x0, symName: __ZNSt3__122__compressed_pair_elemINS_22__unordered_map_hasherINS_12basic_stringIcNS_11char_traitsIcEENS_9allocatorIcEEEENS_17__hash_value_typeIS7_dEENS_4hashIS7_EENS_8equal_toIS7_EELb1EEELi1ELb1EE5__getB7v160006Ev, symObjAddr: 0xCB20, symBinAddr: 0x100018A70, symSize: 0x10 }
  - { offsetInCU: 0x136A1, offset: 0x54FF6, size: 0x8, addend: 0x0, symName: __ZNKSt3__110unique_ptrIA_PNS_16__hash_node_baseIPNS_11__hash_nodeINS_17__hash_value_typeINS_12basic_stringIcNS_11char_traitsIcEENS_9allocatorIcEEEEdEEPvEEEENS_25__bucket_list_deallocatorINS7_ISF_EEEEE11get_deleterB7v160006Ev, symObjAddr: 0xCB30, symBinAddr: 0x100018A80, symSize: 0x20 }
  - { offsetInCU: 0x136C7, offset: 0x5501C, size: 0x8, addend: 0x0, symName: __ZNKSt3__125__bucket_list_deallocatorINS_9allocatorIPNS_16__hash_node_baseIPNS_11__hash_nodeINS_17__hash_value_typeINS_12basic_stringIcNS_11char_traitsIcEENS1_IcEEEEdEEPvEEEEEEE4sizeB7v160006Ev, symObjAddr: 0xCB50, symBinAddr: 0x100018AA0, symSize: 0x20 }
  - { offsetInCU: 0x136ED, offset: 0x55042, size: 0x8, addend: 0x0, symName: __ZNKSt3__117__compressed_pairIPPNS_16__hash_node_baseIPNS_11__hash_nodeINS_17__hash_value_typeINS_12basic_stringIcNS_11char_traitsIcEENS_9allocatorIcEEEEdEEPvEEEENS_25__bucket_list_deallocatorINS7_ISF_EEEEE6secondB7v160006Ev, symObjAddr: 0xCB70, symBinAddr: 0x100018AC0, symSize: 0x20 }
  - { offsetInCU: 0x13713, offset: 0x55068, size: 0x8, addend: 0x0, symName: __ZNKSt3__122__compressed_pair_elemINS_25__bucket_list_deallocatorINS_9allocatorIPNS_16__hash_node_baseIPNS_11__hash_nodeINS_17__hash_value_typeINS_12basic_stringIcNS_11char_traitsIcEENS2_IcEEEEdEEPvEEEEEEEELi1ELb0EE5__getB7v160006Ev, symObjAddr: 0xCB90, symBinAddr: 0x100018AE0, symSize: 0x10 }
  - { offsetInCU: 0x13739, offset: 0x5508E, size: 0x8, addend: 0x0, symName: __ZNKSt3__117__compressed_pairImNS_9allocatorIPNS_16__hash_node_baseIPNS_11__hash_nodeINS_17__hash_value_typeINS_12basic_stringIcNS_11char_traitsIcEENS1_IcEEEEdEEPvEEEEEEE5firstB7v160006Ev, symObjAddr: 0xCBA0, symBinAddr: 0x100018AF0, symSize: 0x20 }
  - { offsetInCU: 0x1375F, offset: 0x550B4, size: 0x8, addend: 0x0, symName: __ZNKSt3__117__compressed_pairIPPNS_16__hash_node_baseIPNS_11__hash_nodeINS_17__hash_value_typeINS_12basic_stringIcNS_11char_traitsIcEENS_9allocatorIcEEEEdEEPvEEEENS_25__bucket_list_deallocatorINS7_ISF_EEEEE5firstB7v160006Ev, symObjAddr: 0xCBC0, symBinAddr: 0x100018B10, symSize: 0x20 }
  - { offsetInCU: 0x13785, offset: 0x550DA, size: 0x8, addend: 0x0, symName: __ZNKSt3__122__compressed_pair_elemIPPNS_16__hash_node_baseIPNS_11__hash_nodeINS_17__hash_value_typeINS_12basic_stringIcNS_11char_traitsIcEENS_9allocatorIcEEEEdEEPvEEEELi0ELb0EE5__getB7v160006Ev, symObjAddr: 0xCBE0, symBinAddr: 0x100018B30, symSize: 0x10 }
  - { offsetInCU: 0x137AB, offset: 0x55100, size: 0x8, addend: 0x0, symName: __ZNSt3__117__compressed_pairIfNS_21__unordered_map_equalINS_12basic_stringIcNS_11char_traitsIcEENS_9allocatorIcEEEENS_17__hash_value_typeIS7_dEENS_8equal_toIS7_EENS_4hashIS7_EELb1EEEE6secondB7v160006Ev, symObjAddr: 0xCBF0, symBinAddr: 0x100018B40, symSize: 0x20 }
  - { offsetInCU: 0x137D1, offset: 0x55126, size: 0x8, addend: 0x0, symName: __ZNSt3__122__compressed_pair_elemINS_21__unordered_map_equalINS_12basic_stringIcNS_11char_traitsIcEENS_9allocatorIcEEEENS_17__hash_value_typeIS7_dEENS_8equal_toIS7_EENS_4hashIS7_EELb1EEELi1ELb1EE5__getB7v160006Ev, symObjAddr: 0xCC10, symBinAddr: 0x100018B60, symSize: 0x10 }
  - { offsetInCU: 0x137F7, offset: 0x5514C, size: 0x8, addend: 0x0, symName: __ZNSt3__116allocator_traitsINS_9allocatorINS_11__hash_nodeINS_17__hash_value_typeINS_12basic_stringIcNS_11char_traitsIcEENS1_IcEEEEdEEPvEEEEE8allocateB7v160006ERSC_m, symObjAddr: 0xCC40, symBinAddr: 0x100018B70, symSize: 0x30 }
  - { offsetInCU: 0x1382A, offset: 0x5517F, size: 0x8, addend: 0x0, symName: __ZNSt3__122__hash_node_destructorINS_9allocatorINS_11__hash_nodeINS_17__hash_value_typeINS_12basic_stringIcNS_11char_traitsIcEENS1_IcEEEEdEEPvEEEEEC1B7v160006ERSC_b, symObjAddr: 0xCC70, symBinAddr: 0x100018BA0, symSize: 0x40 }
  - { offsetInCU: 0x13877, offset: 0x551CC, size: 0x8, addend: 0x0, symName: __ZNSt3__110unique_ptrINS_11__hash_nodeINS_17__hash_value_typeINS_12basic_stringIcNS_11char_traitsIcEENS_9allocatorIcEEEEdEEPvEENS_22__hash_node_destructorINS6_ISB_EEEEEC1B7v160006ILb1EvEEPSB_NS_16__dependent_typeINS_27__unique_ptr_deleter_sfinaeISE_EEXT_EE20__good_rval_ref_typeE, symObjAddr: 0xCCB0, symBinAddr: 0x100018BE0, symSize: 0x30 }
  - { offsetInCU: 0x138C8, offset: 0x5521D, size: 0x8, addend: 0x0, symName: __ZNSt3__116allocator_traitsINS_9allocatorINS_11__hash_nodeINS_17__hash_value_typeINS_12basic_stringIcNS_11char_traitsIcEENS1_IcEEEEdEEPvEEEEE9constructB7v160006INS_4pairIKS8_dEEJRSG_RdEvEEvRSC_PT_DpOT0_, symObjAddr: 0xCCE0, symBinAddr: 0x100018C10, symSize: 0x40 }
  - { offsetInCU: 0x13933, offset: 0x55288, size: 0x8, addend: 0x0, symName: __ZNSt3__110unique_ptrINS_11__hash_nodeINS_17__hash_value_typeINS_12basic_stringIcNS_11char_traitsIcEENS_9allocatorIcEEEEdEEPvEENS_22__hash_node_destructorINS6_ISB_EEEEE11get_deleterB7v160006Ev, symObjAddr: 0xCD40, symBinAddr: 0x100018C50, symSize: 0x20 }
  - { offsetInCU: 0x13959, offset: 0x552AE, size: 0x8, addend: 0x0, symName: __ZNSt3__19allocatorINS_11__hash_nodeINS_17__hash_value_typeINS_12basic_stringIcNS_11char_traitsIcEENS0_IcEEEEdEEPvEEE8allocateB7v160006Em, symObjAddr: 0xCD90, symBinAddr: 0x100018C70, symSize: 0x50 }
  - { offsetInCU: 0x13997, offset: 0x552EC, size: 0x8, addend: 0x0, symName: __ZNSt3__116allocator_traitsINS_9allocatorINS_11__hash_nodeINS_17__hash_value_typeINS_12basic_stringIcNS_11char_traitsIcEENS1_IcEEEEdEEPvEEEEE8max_sizeB7v160006ISC_vEEmRKSC_, symObjAddr: 0xCDE0, symBinAddr: 0x100018CC0, symSize: 0x20 }
  - { offsetInCU: 0x139C5, offset: 0x5531A, size: 0x8, addend: 0x0, symName: __ZNKSt3__19allocatorINS_11__hash_nodeINS_17__hash_value_typeINS_12basic_stringIcNS_11char_traitsIcEENS0_IcEEEEdEEPvEEE8max_sizeB7v160006Ev, symObjAddr: 0xCE00, symBinAddr: 0x100018CE0, symSize: 0x20 }
  - { offsetInCU: 0x139EB, offset: 0x55340, size: 0x8, addend: 0x0, symName: __ZNSt3__122__hash_node_destructorINS_9allocatorINS_11__hash_nodeINS_17__hash_value_typeINS_12basic_stringIcNS_11char_traitsIcEENS1_IcEEEEdEEPvEEEEEC2B7v160006ERSC_b, symObjAddr: 0xCE20, symBinAddr: 0x100018D00, symSize: 0x30 }
  - { offsetInCU: 0x13A33, offset: 0x55388, size: 0x8, addend: 0x0, symName: __ZNSt3__110unique_ptrINS_11__hash_nodeINS_17__hash_value_typeINS_12basic_stringIcNS_11char_traitsIcEENS_9allocatorIcEEEEdEEPvEENS_22__hash_node_destructorINS6_ISB_EEEEEC2B7v160006ILb1EvEEPSB_NS_16__dependent_typeINS_27__unique_ptr_deleter_sfinaeISE_EEXT_EE20__good_rval_ref_typeE, symObjAddr: 0xCE50, symBinAddr: 0x100018D30, symSize: 0x40 }
  - { offsetInCU: 0x13A84, offset: 0x553D9, size: 0x8, addend: 0x0, symName: __ZNSt3__117__compressed_pairIPNS_11__hash_nodeINS_17__hash_value_typeINS_12basic_stringIcNS_11char_traitsIcEENS_9allocatorIcEEEEdEEPvEENS_22__hash_node_destructorINS6_ISB_EEEEEC1B7v160006IRSC_SF_EEOT_OT0_, symObjAddr: 0xCE90, symBinAddr: 0x100018D70, symSize: 0x30 }
  - { offsetInCU: 0x13ADC, offset: 0x55431, size: 0x8, addend: 0x0, symName: __ZNSt3__117__compressed_pairIPNS_11__hash_nodeINS_17__hash_value_typeINS_12basic_stringIcNS_11char_traitsIcEENS_9allocatorIcEEEEdEEPvEENS_22__hash_node_destructorINS6_ISB_EEEEEC2B7v160006IRSC_SF_EEOT_OT0_, symObjAddr: 0xCEC0, symBinAddr: 0x100018DA0, symSize: 0x40 }
  - { offsetInCU: 0x13B34, offset: 0x55489, size: 0x8, addend: 0x0, symName: __ZNSt3__122__compressed_pair_elemIPNS_11__hash_nodeINS_17__hash_value_typeINS_12basic_stringIcNS_11char_traitsIcEENS_9allocatorIcEEEEdEEPvEELi0ELb0EEC2B7v160006IRSC_vEEOT_, symObjAddr: 0xCF00, symBinAddr: 0x100018DE0, symSize: 0x20 }
  - { offsetInCU: 0x13B76, offset: 0x554CB, size: 0x8, addend: 0x0, symName: __ZNSt3__122__compressed_pair_elemINS_22__hash_node_destructorINS_9allocatorINS_11__hash_nodeINS_17__hash_value_typeINS_12basic_stringIcNS_11char_traitsIcEENS2_IcEEEEdEEPvEEEEEELi1ELb0EEC2B7v160006ISE_vEEOT_, symObjAddr: 0xCF20, symBinAddr: 0x100018E00, symSize: 0x30 }
  - { offsetInCU: 0x13BB8, offset: 0x5550D, size: 0x8, addend: 0x0, symName: __ZNSt3__19allocatorINS_11__hash_nodeINS_17__hash_value_typeINS_12basic_stringIcNS_11char_traitsIcEENS0_IcEEEEdEEPvEEE9constructB7v160006INS_4pairIKS7_dEEJRSE_RdEEEvPT_DpOT0_, symObjAddr: 0xCF50, symBinAddr: 0x100018E30, symSize: 0x30 }
  - { offsetInCU: 0x13C21, offset: 0x55576, size: 0x8, addend: 0x0, symName: __ZNSt3__14pairIKNS_12basic_stringIcNS_11char_traitsIcEENS_9allocatorIcEEEEdEC1B7v160006IRS7_RdLPv0EEEOT_OT0_, symObjAddr: 0xCF80, symBinAddr: 0x100018E60, symSize: 0x30 }
  - { offsetInCU: 0x13C7F, offset: 0x555D4, size: 0x8, addend: 0x0, symName: __ZNSt3__14pairIKNS_12basic_stringIcNS_11char_traitsIcEENS_9allocatorIcEEEEdEC2B7v160006IRS7_RdLPv0EEEOT_OT0_, symObjAddr: 0xCFB0, symBinAddr: 0x100018E90, symSize: 0x40 }
  - { offsetInCU: 0x13CDD, offset: 0x55632, size: 0x8, addend: 0x0, symName: __ZNSt3__117__compressed_pairIPNS_11__hash_nodeINS_17__hash_value_typeINS_12basic_stringIcNS_11char_traitsIcEENS_9allocatorIcEEEEdEEPvEENS_22__hash_node_destructorINS6_ISB_EEEEE6secondB7v160006Ev, symObjAddr: 0xD040, symBinAddr: 0x100018ED0, symSize: 0x20 }
  - { offsetInCU: 0x13D03, offset: 0x55658, size: 0x8, addend: 0x0, symName: __ZNSt3__122__compressed_pair_elemINS_22__hash_node_destructorINS_9allocatorINS_11__hash_nodeINS_17__hash_value_typeINS_12basic_stringIcNS_11char_traitsIcEENS2_IcEEEEdEEPvEEEEEELi1ELb0EE5__getB7v160006Ev, symObjAddr: 0xD060, symBinAddr: 0x100018EF0, symSize: 0x10 }
  - { offsetInCU: 0x13D29, offset: 0x5567E, size: 0x8, addend: 0x0, symName: __ZNSt3__117__compressed_pairImNS_22__unordered_map_hasherINS_12basic_stringIcNS_11char_traitsIcEENS_9allocatorIcEEEENS_17__hash_value_typeIS7_dEENS_4hashIS7_EENS_8equal_toIS7_EELb1EEEE5firstB7v160006Ev, symObjAddr: 0xD070, symBinAddr: 0x100018F00, symSize: 0x20 }
  - { offsetInCU: 0x13D4F, offset: 0x556A4, size: 0x8, addend: 0x0, symName: __ZNSt3__117__compressed_pairIfNS_21__unordered_map_equalINS_12basic_stringIcNS_11char_traitsIcEENS_9allocatorIcEEEENS_17__hash_value_typeIS7_dEENS_8equal_toIS7_EENS_4hashIS7_EELb1EEEE5firstB7v160006Ev, symObjAddr: 0xD090, symBinAddr: 0x100018F20, symSize: 0x20 }
  - { offsetInCU: 0x13D74, offset: 0x556C9, size: 0x8, addend: 0x0, symName: __ZNSt3__112__hash_tableINS_17__hash_value_typeINS_12basic_stringIcNS_11char_traitsIcEENS_9allocatorIcEEEEdEENS_22__unordered_map_hasherIS7_S8_NS_4hashIS7_EENS_8equal_toIS7_EELb1EEENS_21__unordered_map_equalIS7_S8_SD_SB_Lb1EEENS5_IS8_EEE8__rehashILb1EEEvm, symObjAddr: 0xD0B0, symBinAddr: 0x100018F40, symSize: 0x230 }
  - { offsetInCU: 0x13DC4, offset: 0x55719, size: 0x8, addend: 0x0, symName: __ZNSt3__112__hash_tableINS_17__hash_value_typeINS_12basic_stringIcNS_11char_traitsIcEENS_9allocatorIcEEEEdEENS_22__unordered_map_hasherIS7_S8_NS_4hashIS7_EENS_8equal_toIS7_EELb1EEENS_21__unordered_map_equalIS7_S8_SD_SB_Lb1EEENS5_IS8_EEE11__do_rehashILb1EEEvm, symObjAddr: 0xD2E0, symBinAddr: 0x100019170, symSize: 0x260 }
  - { offsetInCU: 0x13EA8, offset: 0x557FD, size: 0x8, addend: 0x0, symName: __ZNSt3__110unique_ptrIA_PNS_16__hash_node_baseIPNS_11__hash_nodeINS_17__hash_value_typeINS_12basic_stringIcNS_11char_traitsIcEENS_9allocatorIcEEEEdEEPvEEEENS_25__bucket_list_deallocatorINS7_ISF_EEEEE11get_deleterB7v160006Ev, symObjAddr: 0xD550, symBinAddr: 0x1000193E0, symSize: 0x20 }
  - { offsetInCU: 0x13ECE, offset: 0x55823, size: 0x8, addend: 0x0, symName: __ZNSt3__110unique_ptrIA_PNS_16__hash_node_baseIPNS_11__hash_nodeINS_17__hash_value_typeINS_12basic_stringIcNS_11char_traitsIcEENS_9allocatorIcEEEEdEEPvEEEENS_25__bucket_list_deallocatorINS7_ISF_EEEEE5resetB7v160006IPSF_EENS_9enable_ifIXsr28_CheckArrayPointerConversionIT_EE5valueEvE4typeESO_, symObjAddr: 0xD590, symBinAddr: 0x100019400, symSize: 0x70 }
  - { offsetInCU: 0x13F1B, offset: 0x55870, size: 0x8, addend: 0x0, symName: __ZNSt3__116allocator_traitsINS_9allocatorIPNS_16__hash_node_baseIPNS_11__hash_nodeINS_17__hash_value_typeINS_12basic_stringIcNS_11char_traitsIcEENS1_IcEEEEdEEPvEEEEEEE8allocateB7v160006ERSG_m, symObjAddr: 0xD600, symBinAddr: 0x100019470, symSize: 0x30 }
  - { offsetInCU: 0x13F4E, offset: 0x558A3, size: 0x8, addend: 0x0, symName: __ZNSt3__19allocatorIPNS_16__hash_node_baseIPNS_11__hash_nodeINS_17__hash_value_typeINS_12basic_stringIcNS_11char_traitsIcEENS0_IcEEEEdEEPvEEEEE8allocateB7v160006Em, symObjAddr: 0xD7A0, symBinAddr: 0x1000194A0, symSize: 0x50 }
  - { offsetInCU: 0x13F8C, offset: 0x558E1, size: 0x8, addend: 0x0, symName: __ZNSt3__116allocator_traitsINS_9allocatorIPNS_16__hash_node_baseIPNS_11__hash_nodeINS_17__hash_value_typeINS_12basic_stringIcNS_11char_traitsIcEENS1_IcEEEEdEEPvEEEEEEE8max_sizeB7v160006ISG_vEEmRKSG_, symObjAddr: 0xD7F0, symBinAddr: 0x1000194F0, symSize: 0x20 }
  - { offsetInCU: 0x13FBA, offset: 0x5590F, size: 0x8, addend: 0x0, symName: __ZNKSt3__19allocatorIPNS_16__hash_node_baseIPNS_11__hash_nodeINS_17__hash_value_typeINS_12basic_stringIcNS_11char_traitsIcEENS0_IcEEEEdEEPvEEEEE8max_sizeB7v160006Ev, symObjAddr: 0xD810, symBinAddr: 0x100019510, symSize: 0x20 }
  - { offsetInCU: 0x13FE0, offset: 0x55935, size: 0x8, addend: 0x0, symName: __ZNKSt3__117__compressed_pairIPNS_11__hash_nodeINS_17__hash_value_typeINS_12basic_stringIcNS_11char_traitsIcEENS_9allocatorIcEEEEdEEPvEENS_22__hash_node_destructorINS6_ISB_EEEEE5firstB7v160006Ev, symObjAddr: 0xD860, symBinAddr: 0x100019530, symSize: 0x20 }
  - { offsetInCU: 0x14006, offset: 0x5595B, size: 0x8, addend: 0x0, symName: __ZNKSt3__122__compressed_pair_elemIPNS_11__hash_nodeINS_17__hash_value_typeINS_12basic_stringIcNS_11char_traitsIcEENS_9allocatorIcEEEEdEEPvEELi0ELb0EE5__getB7v160006Ev, symObjAddr: 0xD880, symBinAddr: 0x100019550, symSize: 0x10 }
  - { offsetInCU: 0x1402C, offset: 0x55981, size: 0x8, addend: 0x0, symName: __ZNSt3__117__compressed_pairIPNS_11__hash_nodeINS_17__hash_value_typeINS_12basic_stringIcNS_11char_traitsIcEENS_9allocatorIcEEEEdEEPvEENS_22__hash_node_destructorINS6_ISB_EEEEE5firstB7v160006Ev, symObjAddr: 0xD890, symBinAddr: 0x100019560, symSize: 0x20 }
  - { offsetInCU: 0x14052, offset: 0x559A7, size: 0x8, addend: 0x0, symName: __ZNSt3__122__compressed_pair_elemIPNS_11__hash_nodeINS_17__hash_value_typeINS_12basic_stringIcNS_11char_traitsIcEENS_9allocatorIcEEEEdEEPvEELi0ELb0EE5__getB7v160006Ev, symObjAddr: 0xD8B0, symBinAddr: 0x100019580, symSize: 0x10 }
  - { offsetInCU: 0x14078, offset: 0x559CD, size: 0x8, addend: 0x0, symName: __ZNSt3__110unique_ptrINS_11__hash_nodeINS_17__hash_value_typeINS_12basic_stringIcNS_11char_traitsIcEENS_9allocatorIcEEEEdEEPvEENS_22__hash_node_destructorINS6_ISB_EEEEED2B7v160006Ev, symObjAddr: 0xD8C0, symBinAddr: 0x100019590, symSize: 0x20 }
  - { offsetInCU: 0x140A2, offset: 0x559F7, size: 0x8, addend: 0x0, symName: __ZNSt3__110unique_ptrINS_11__hash_nodeINS_17__hash_value_typeINS_12basic_stringIcNS_11char_traitsIcEENS_9allocatorIcEEEEdEEPvEENS_22__hash_node_destructorINS6_ISB_EEEEE5resetB7v160006EPSB_, symObjAddr: 0xD8E0, symBinAddr: 0x1000195B0, symSize: 0x70 }
  - { offsetInCU: 0x140E6, offset: 0x55A3B, size: 0x8, addend: 0x0, symName: __ZNSt3__122__hash_node_destructorINS_9allocatorINS_11__hash_nodeINS_17__hash_value_typeINS_12basic_stringIcNS_11char_traitsIcEENS1_IcEEEEdEEPvEEEEEclB7v160006EPSB_, symObjAddr: 0xD950, symBinAddr: 0x100019620, symSize: 0x90 }
  - { offsetInCU: 0x1411B, offset: 0x55A70, size: 0x8, addend: 0x0, symName: __ZNSt3__115__hash_iteratorIPNS_11__hash_nodeINS_17__hash_value_typeINS_12basic_stringIcNS_11char_traitsIcEENS_9allocatorIcEEEEdEEPvEEEC2B7v160006EPNS_16__hash_node_baseISC_EEPKv, symObjAddr: 0xDA80, symBinAddr: 0x1000196B0, symSize: 0x20 }
  - { offsetInCU: 0x14163, offset: 0x55AB8, size: 0x8, addend: 0x0, symName: __ZNSt3__14pairINS_15__hash_iteratorIPNS_11__hash_nodeINS_17__hash_value_typeINS_12basic_stringIcNS_11char_traitsIcEENS_9allocatorIcEEEEdEEPvEEEEbEC2B7v160006ISE_RbLSB_0EEEOT_OT0_, symObjAddr: 0xDAA0, symBinAddr: 0x1000196D0, symSize: 0x30 }
  - { offsetInCU: 0x141C1, offset: 0x55B16, size: 0x8, addend: 0x0, symName: __ZNSt3__14pairINS_19__hash_map_iteratorINS_15__hash_iteratorIPNS_11__hash_nodeINS_17__hash_value_typeINS_12basic_stringIcNS_11char_traitsIcEENS_9allocatorIcEEEEdEEPvEEEEEEbEC2B7v160006ISF_bLSC_0EEEONS0_IT_T0_EE, symObjAddr: 0xDAD0, symBinAddr: 0x100019700, symSize: 0x50 }
  - { offsetInCU: 0x14212, offset: 0x55B67, size: 0x8, addend: 0x0, symName: __ZNSt3__119__hash_map_iteratorINS_15__hash_iteratorIPNS_11__hash_nodeINS_17__hash_value_typeINS_12basic_stringIcNS_11char_traitsIcEENS_9allocatorIcEEEEdEEPvEEEEEC1B7v160006ESE_, symObjAddr: 0xDB20, symBinAddr: 0x100019750, symSize: 0x30 }
  - { offsetInCU: 0x1424B, offset: 0x55BA0, size: 0x8, addend: 0x0, symName: __ZNSt3__119__hash_map_iteratorINS_15__hash_iteratorIPNS_11__hash_nodeINS_17__hash_value_typeINS_12basic_stringIcNS_11char_traitsIcEENS_9allocatorIcEEEEdEEPvEEEEEC2B7v160006ESE_, symObjAddr: 0xDB50, symBinAddr: 0x100019780, symSize: 0x19 }
  - { offsetInCU: 0xA91E, offset: 0x60741, size: 0x8, addend: 0x0, symName: __ZNSt3__1neB7v160006ERKNS_19__hash_map_iteratorINS_15__hash_iteratorIPNS_11__hash_nodeINS_17__hash_value_typeINS_12basic_stringIcNS_11char_traitsIcEENS_9allocatorIcEEEEdEEPvEEEEEESH_, symObjAddr: 0x1020, symBinAddr: 0x10001A510, symSize: 0x30 }
  - { offsetInCU: 0xA979, offset: 0x6079C, size: 0x8, addend: 0x0, symName: __ZNSt3__1neB7v160006ERKNS_15__hash_iteratorIPNS_11__hash_nodeINS_17__hash_value_typeINS_12basic_stringIcNS_11char_traitsIcEENS_9allocatorIcEEEEdEEPvEEEESF_, symObjAddr: 0x8C30, symBinAddr: 0x10001BB00, symSize: 0x30 }
  - { offsetInCU: 0xA9B6, offset: 0x607D9, size: 0x8, addend: 0x0, symName: __ZNSt3__1eqB7v160006ERKNS_15__hash_iteratorIPNS_11__hash_nodeINS_17__hash_value_typeINS_12basic_stringIcNS_11char_traitsIcEENS_9allocatorIcEEEEdEEPvEEEESF_, symObjAddr: 0x8C60, symBinAddr: 0x10001BB30, symSize: 0x30 }
  - { offsetInCU: 0xA9F3, offset: 0x60816, size: 0x8, addend: 0x0, symName: __ZNSt3__1eqB7v160006ERKNS_19__hash_map_iteratorINS_15__hash_iteratorIPNS_11__hash_nodeINS_17__hash_value_typeINS_12basic_stringIcNS_11char_traitsIcEENS_9allocatorIcEEEEdEEPvEEEEEESH_, symObjAddr: 0x8C90, symBinAddr: 0x10001BB60, symSize: 0x30 }
  - { offsetInCU: 0xAA30, offset: 0x60853, size: 0x8, addend: 0x0, symName: __ZNSt3__120__throw_out_of_rangeB7v160006EPKc, symObjAddr: 0x8CC0, symBinAddr: 0x10001BB90, symSize: 0x70 }
  - { offsetInCU: 0xBDF8, offset: 0x61C1B, size: 0x8, addend: 0x0, symName: __Z3powB7v160006IdiENSt3__19enable_ifIXaasr3std13is_arithmeticIT_EE5valuesr3std13is_arithmeticIT0_EE5valueENS0_9__promoteIS2_S3_vEEE4type4typeES2_S3_, symObjAddr: 0x45B0, symBinAddr: 0x10001AA40, symSize: 0x30 }
  - { offsetInCU: 0xD570, offset: 0x63393, size: 0x8, addend: 0x0, symName: __Z7toupperi, symObjAddr: 0x4080, symBinAddr: 0x10001AA20, symSize: 0x20 }
  - { offsetInCU: 0xDDE5, offset: 0x63C08, size: 0x8, addend: 0x0, symName: __ZN6Pricer5PriceERK6MarketNSt3__110shared_ptrI5TradeEE, symObjAddr: 0x0, symBinAddr: 0x1000197A0, symSize: 0x220 }
  - { offsetInCU: 0xDE54, offset: 0x63C77, size: 0x8, addend: 0x0, symName: __ZNKSt3__110shared_ptrI5TradeEptB7v160006Ev, symObjAddr: 0x2B0, symBinAddr: 0x1000199C0, symSize: 0x20 }
  - { offsetInCU: 0xDE7A, offset: 0x63C9D, size: 0x8, addend: 0x0, symName: __ZN5Trade7getTypeEv, symObjAddr: 0x2D0, symBinAddr: 0x1000199E0, symSize: 0x30 }
  - { offsetInCU: 0xDEA0, offset: 0x63CC3, size: 0x8, addend: 0x0, symName: __ZNKSt3__110shared_ptrI5TradeE3getB7v160006Ev, symObjAddr: 0x300, symBinAddr: 0x100019A10, symSize: 0x20 }
  - { offsetInCU: 0xDFD0, offset: 0x63DF3, size: 0x8, addend: 0x0, symName: __ZN18BinomialTreePricer9PriceTreeERK6MarketRK11TreeProduct, symObjAddr: 0x420, symBinAddr: 0x100019A30, symSize: 0x9E0 }
  - { offsetInCU: 0xE11B, offset: 0x63F3E, size: 0x8, addend: 0x0, symName: __Z7toUpperNSt3__112basic_stringIcNS_11char_traitsIcEENS_9allocatorIcEEEE, symObjAddr: 0xF20, symBinAddr: 0x10001A410, symSize: 0xA0 }
  - { offsetInCU: 0xE19A, offset: 0x63FBD, size: 0x8, addend: 0x0, symName: __ZNSt3__113unordered_mapINS_12basic_stringIcNS_11char_traitsIcEENS_9allocatorIcEEEEdNS_4hashIS6_EENS_8equal_toIS6_EENS4_INS_4pairIKS6_dEEEEEC1ERKSF_, symObjAddr: 0xFC0, symBinAddr: 0x10001A4B0, symSize: 0x30 }
  - { offsetInCU: 0xE1D5, offset: 0x63FF8, size: 0x8, addend: 0x0, symName: __ZNKSt3__112basic_stringIcNS_11char_traitsIcEENS_9allocatorIcEEE5emptyB7v160006Ev, symObjAddr: 0xFF0, symBinAddr: 0x10001A4E0, symSize: 0x30 }
  - { offsetInCU: 0xE1FB, offset: 0x6401E, size: 0x8, addend: 0x0, symName: __ZNSt3__113unordered_mapINS_12basic_stringIcNS_11char_traitsIcEENS_9allocatorIcEEEEdNS_4hashIS6_EENS_8equal_toIS6_EENS4_INS_4pairIKS6_dEEEEE4findB7v160006ERSC_, symObjAddr: 0x1050, symBinAddr: 0x10001A540, symSize: 0x40 }
  - { offsetInCU: 0xE230, offset: 0x64053, size: 0x8, addend: 0x0, symName: __ZNSt3__113unordered_mapINS_12basic_stringIcNS_11char_traitsIcEENS_9allocatorIcEEEEdNS_4hashIS6_EENS_8equal_toIS6_EENS4_INS_4pairIKS6_dEEEEE3endB7v160006Ev, symObjAddr: 0x1090, symBinAddr: 0x10001A580, symSize: 0x30 }
  - { offsetInCU: 0xE256, offset: 0x64079, size: 0x8, addend: 0x0, symName: __ZNSt3__113unordered_mapINS_12basic_stringIcNS_11char_traitsIcEENS_9allocatorIcEEEEdNS_4hashIS6_EENS_8equal_toIS6_EENS4_INS_4pairIKS6_dEEEEE2atERSC_, symObjAddr: 0x10C0, symBinAddr: 0x10001A5B0, symSize: 0x70 }
  - { offsetInCU: 0xE29C, offset: 0x640BF, size: 0x8, addend: 0x0, symName: __ZNSt3__16vectorIdNS_9allocatorIdEEEixB7v160006Em, symObjAddr: 0x12E0, symBinAddr: 0x10001A620, symSize: 0x20 }
  - { offsetInCU: 0xE3C1, offset: 0x641E4, size: 0x8, addend: 0x0, symName: __ZN21CRRBinomialTreePricer10ModelSetupEdddd, symObjAddr: 0x1360, symBinAddr: 0x10001A640, symSize: 0x160 }
  - { offsetInCU: 0xE529, offset: 0x6434C, size: 0x8, addend: 0x0, symName: __ZN22JRRNBinomialTreePricer10ModelSetupEdddd, symObjAddr: 0x14C0, symBinAddr: 0x10001A7A0, symSize: 0x120 }
  - { offsetInCU: 0xE589, offset: 0x643AC, size: 0x8, addend: 0x0, symName: __ZN6Pricer9PriceTreeERK6MarketRK11TreeProduct, symObjAddr: 0x15E0, symBinAddr: 0x10001A8C0, symSize: 0x20 }
  - { offsetInCU: 0xE5CB, offset: 0x643EE, size: 0x8, addend: 0x0, symName: __ZNK21CRRBinomialTreePricer7GetSpotEii, symObjAddr: 0x1600, symBinAddr: 0x10001A8E0, symSize: 0x50 }
  - { offsetInCU: 0xE60D, offset: 0x64430, size: 0x8, addend: 0x0, symName: __ZNK21CRRBinomialTreePricer9GetProbUpEv, symObjAddr: 0x1650, symBinAddr: 0x10001A930, symSize: 0x20 }
  - { offsetInCU: 0xE633, offset: 0x64456, size: 0x8, addend: 0x0, symName: __ZNK21CRRBinomialTreePricer11GetProbDownEv, symObjAddr: 0x1670, symBinAddr: 0x10001A950, symSize: 0x20 }
  - { offsetInCU: 0xE659, offset: 0x6447C, size: 0x8, addend: 0x0, symName: __ZNK22JRRNBinomialTreePricer7GetSpotEii, symObjAddr: 0x1690, symBinAddr: 0x10001A970, symSize: 0x70 }
  - { offsetInCU: 0xE69B, offset: 0x644BE, size: 0x8, addend: 0x0, symName: __ZNK22JRRNBinomialTreePricer9GetProbUpEv, symObjAddr: 0x1700, symBinAddr: 0x10001A9E0, symSize: 0x20 }
  - { offsetInCU: 0xE6C1, offset: 0x644E4, size: 0x8, addend: 0x0, symName: __ZNK22JRRNBinomialTreePricer11GetProbDownEv, symObjAddr: 0x1720, symBinAddr: 0x10001AA00, symSize: 0x20 }
  - { offsetInCU: 0xE723, offset: 0x64546, size: 0x8, addend: 0x0, symName: __ZNSt3__113unordered_mapINS_12basic_stringIcNS_11char_traitsIcEENS_9allocatorIcEEEEdNS_4hashIS6_EENS_8equal_toIS6_EENS4_INS_4pairIKS6_dEEEEEC2ERKSF_, symObjAddr: 0x5990, symBinAddr: 0x10001AA70, symSize: 0xB0 }
  - { offsetInCU: 0xE75E, offset: 0x64581, size: 0x8, addend: 0x0, symName: __ZNSt3__112__hash_tableINS_17__hash_value_typeINS_12basic_stringIcNS_11char_traitsIcEENS_9allocatorIcEEEEdEENS_22__unordered_map_hasherIS7_S8_NS_4hashIS7_EENS_8equal_toIS7_EELb1EEENS_21__unordered_map_equalIS7_S8_SD_SB_Lb1EEENS5_IS8_EEEC1ERKSI_, symObjAddr: 0x5A40, symBinAddr: 0x10001AB20, symSize: 0x30 }
  - { offsetInCU: 0xE799, offset: 0x645BC, size: 0x8, addend: 0x0, symName: __ZNKSt3__113unordered_mapINS_12basic_stringIcNS_11char_traitsIcEENS_9allocatorIcEEEEdNS_4hashIS6_EENS_8equal_toIS6_EENS4_INS_4pairIKS6_dEEEEE12bucket_countB7v160006Ev, symObjAddr: 0x5AB0, symBinAddr: 0x10001AB50, symSize: 0x20 }
  - { offsetInCU: 0xE7BF, offset: 0x645E2, size: 0x8, addend: 0x0, symName: __ZNSt3__113unordered_mapINS_12basic_stringIcNS_11char_traitsIcEENS_9allocatorIcEEEEdNS_4hashIS6_EENS_8equal_toIS6_EENS4_INS_4pairIKS6_dEEEEE6insertINS_25__hash_map_const_iteratorINS_21__hash_const_iteratorIPNS_11__hash_nodeINS_17__hash_value_typeIS6_dEEPvEEEEEEEEvT_SR_, symObjAddr: 0x5AD0, symBinAddr: 0x10001AB70, symSize: 0x70 }
  - { offsetInCU: 0xE80E, offset: 0x64631, size: 0x8, addend: 0x0, symName: __ZNSt3__112__hash_tableINS_17__hash_value_typeINS_12basic_stringIcNS_11char_traitsIcEENS_9allocatorIcEEEEdEENS_22__unordered_map_hasherIS7_S8_NS_4hashIS7_EENS_8equal_toIS7_EELb1EEENS_21__unordered_map_equalIS7_S8_SD_SB_Lb1EEENS5_IS8_EEEC2ERKSI_, symObjAddr: 0x5BA0, symBinAddr: 0x10001ABE0, symSize: 0x100 }
  - { offsetInCU: 0xE853, offset: 0x64676, size: 0x8, addend: 0x0, symName: __ZNSt3__116allocator_traitsINS_9allocatorIPNS_16__hash_node_baseIPNS_11__hash_nodeINS_17__hash_value_typeINS_12basic_stringIcNS_11char_traitsIcEENS1_IcEEEEdEEPvEEEEEEE37select_on_container_copy_constructionB7v160006ISG_vvEESG_RKSG_, symObjAddr: 0x5CA0, symBinAddr: 0x10001ACE0, symSize: 0x10 }
  - { offsetInCU: 0xE882, offset: 0x646A5, size: 0x8, addend: 0x0, symName: __ZNKSt3__125__bucket_list_deallocatorINS_9allocatorIPNS_16__hash_node_baseIPNS_11__hash_nodeINS_17__hash_value_typeINS_12basic_stringIcNS_11char_traitsIcEENS1_IcEEEEdEEPvEEEEEEE7__allocB7v160006Ev, symObjAddr: 0x5CD0, symBinAddr: 0x10001ACF0, symSize: 0x20 }
  - { offsetInCU: 0xE8A8, offset: 0x646CB, size: 0x8, addend: 0x0, symName: __ZNSt3__125__bucket_list_deallocatorINS_9allocatorIPNS_16__hash_node_baseIPNS_11__hash_nodeINS_17__hash_value_typeINS_12basic_stringIcNS_11char_traitsIcEENS1_IcEEEEdEEPvEEEEEEEC1B7v160006ERKSG_m, symObjAddr: 0x5CF0, symBinAddr: 0x10001AD10, symSize: 0x30 }
  - { offsetInCU: 0xE8F0, offset: 0x64713, size: 0x8, addend: 0x0, symName: __ZNSt3__110unique_ptrIA_PNS_16__hash_node_baseIPNS_11__hash_nodeINS_17__hash_value_typeINS_12basic_stringIcNS_11char_traitsIcEENS_9allocatorIcEEEEdEEPvEEEENS_25__bucket_list_deallocatorINS7_ISF_EEEEEC1B7v160006ILb1EvEEDnNS_16__dependent_typeINS_27__unique_ptr_deleter_sfinaeISJ_EEXT_EE20__good_rval_ref_typeE, symObjAddr: 0x5D20, symBinAddr: 0x10001AD40, symSize: 0x30 }
  - { offsetInCU: 0xE949, offset: 0x6476C, size: 0x8, addend: 0x0, symName: __ZNSt3__116allocator_traitsINS_9allocatorINS_11__hash_nodeINS_17__hash_value_typeINS_12basic_stringIcNS_11char_traitsIcEENS1_IcEEEEdEEPvEEEEE37select_on_container_copy_constructionB7v160006ISC_vvEESC_RKSC_, symObjAddr: 0x5D50, symBinAddr: 0x10001AD70, symSize: 0x10 }
  - { offsetInCU: 0xE978, offset: 0x6479B, size: 0x8, addend: 0x0, symName: __ZNKSt3__112__hash_tableINS_17__hash_value_typeINS_12basic_stringIcNS_11char_traitsIcEENS_9allocatorIcEEEEdEENS_22__unordered_map_hasherIS7_S8_NS_4hashIS7_EENS_8equal_toIS7_EELb1EEENS_21__unordered_map_equalIS7_S8_SD_SB_Lb1EEENS5_IS8_EEE12__node_allocB7v160006Ev, symObjAddr: 0x5D60, symBinAddr: 0x10001AD80, symSize: 0x20 }
  - { offsetInCU: 0xE9A3, offset: 0x647C6, size: 0x8, addend: 0x0, symName: __ZNSt3__117__compressed_pairINS_16__hash_node_baseIPNS_11__hash_nodeINS_17__hash_value_typeINS_12basic_stringIcNS_11char_traitsIcEENS_9allocatorIcEEEEdEEPvEEEENS7_ISC_EEEC1B7v160006INS_18__default_init_tagESF_EEOT_OT0_, symObjAddr: 0x5D80, symBinAddr: 0x10001ADA0, symSize: 0x30 }
  - { offsetInCU: 0xE9FB, offset: 0x6481E, size: 0x8, addend: 0x0, symName: __ZNKSt3__112__hash_tableINS_17__hash_value_typeINS_12basic_stringIcNS_11char_traitsIcEENS_9allocatorIcEEEEdEENS_22__unordered_map_hasherIS7_S8_NS_4hashIS7_EENS_8equal_toIS7_EELb1EEENS_21__unordered_map_equalIS7_S8_SD_SB_Lb1EEENS5_IS8_EEE13hash_functionB7v160006Ev, symObjAddr: 0x5DB0, symBinAddr: 0x10001ADD0, symSize: 0x20 }
  - { offsetInCU: 0xEA26, offset: 0x64849, size: 0x8, addend: 0x0, symName: __ZNSt3__117__compressed_pairImNS_22__unordered_map_hasherINS_12basic_stringIcNS_11char_traitsIcEENS_9allocatorIcEEEENS_17__hash_value_typeIS7_dEENS_4hashIS7_EENS_8equal_toIS7_EELb1EEEEC1B7v160006IiRKSE_EEOT_OT0_, symObjAddr: 0x5DD0, symBinAddr: 0x10001ADF0, symSize: 0x30 }
  - { offsetInCU: 0xEA7E, offset: 0x648A1, size: 0x8, addend: 0x0, symName: __ZNKSt3__117__compressed_pairImNS_9allocatorIPNS_16__hash_node_baseIPNS_11__hash_nodeINS_17__hash_value_typeINS_12basic_stringIcNS_11char_traitsIcEENS1_IcEEEEdEEPvEEEEEEE6secondB7v160006Ev, symObjAddr: 0x5E30, symBinAddr: 0x10001AE20, symSize: 0x20 }
  - { offsetInCU: 0xEAA4, offset: 0x648C7, size: 0x8, addend: 0x0, symName: __ZNKSt3__122__compressed_pair_elemINS_9allocatorIPNS_16__hash_node_baseIPNS_11__hash_nodeINS_17__hash_value_typeINS_12basic_stringIcNS_11char_traitsIcEENS1_IcEEEEdEEPvEEEEEELi1ELb1EE5__getB7v160006Ev, symObjAddr: 0x5E50, symBinAddr: 0x10001AE40, symSize: 0x10 }
  - { offsetInCU: 0xEACA, offset: 0x648ED, size: 0x8, addend: 0x0, symName: __ZNSt3__125__bucket_list_deallocatorINS_9allocatorIPNS_16__hash_node_baseIPNS_11__hash_nodeINS_17__hash_value_typeINS_12basic_stringIcNS_11char_traitsIcEENS1_IcEEEEdEEPvEEEEEEEC2B7v160006ERKSG_m, symObjAddr: 0x5E60, symBinAddr: 0x10001AE50, symSize: 0x40 }
  - { offsetInCU: 0xEB12, offset: 0x64935, size: 0x8, addend: 0x0, symName: __ZNSt3__117__compressed_pairImNS_9allocatorIPNS_16__hash_node_baseIPNS_11__hash_nodeINS_17__hash_value_typeINS_12basic_stringIcNS_11char_traitsIcEENS1_IcEEEEdEEPvEEEEEEEC1B7v160006IRmRKSG_EEOT_OT0_, symObjAddr: 0x5EA0, symBinAddr: 0x10001AE90, symSize: 0x30 }
  - { offsetInCU: 0xEB6A, offset: 0x6498D, size: 0x8, addend: 0x0, symName: __ZNSt3__117__compressed_pairImNS_9allocatorIPNS_16__hash_node_baseIPNS_11__hash_nodeINS_17__hash_value_typeINS_12basic_stringIcNS_11char_traitsIcEENS1_IcEEEEdEEPvEEEEEEEC2B7v160006IRmRKSG_EEOT_OT0_, symObjAddr: 0x5ED0, symBinAddr: 0x10001AEC0, symSize: 0x40 }
  - { offsetInCU: 0xEBC2, offset: 0x649E5, size: 0x8, addend: 0x0, symName: __ZNSt3__122__compressed_pair_elemImLi0ELb0EEC2B7v160006IRmvEEOT_, symObjAddr: 0x5F10, symBinAddr: 0x10001AF00, symSize: 0x20 }
  - { offsetInCU: 0xEC04, offset: 0x64A27, size: 0x8, addend: 0x0, symName: __ZNSt3__122__compressed_pair_elemINS_9allocatorIPNS_16__hash_node_baseIPNS_11__hash_nodeINS_17__hash_value_typeINS_12basic_stringIcNS_11char_traitsIcEENS1_IcEEEEdEEPvEEEEEELi1ELb1EEC2B7v160006IRKSG_vEEOT_, symObjAddr: 0x5F30, symBinAddr: 0x10001AF20, symSize: 0x10 }
  - { offsetInCU: 0xEC46, offset: 0x64A69, size: 0x8, addend: 0x0, symName: __ZNSt3__110unique_ptrIA_PNS_16__hash_node_baseIPNS_11__hash_nodeINS_17__hash_value_typeINS_12basic_stringIcNS_11char_traitsIcEENS_9allocatorIcEEEEdEEPvEEEENS_25__bucket_list_deallocatorINS7_ISF_EEEEEC2B7v160006ILb1EvEEDnNS_16__dependent_typeINS_27__unique_ptr_deleter_sfinaeISJ_EEXT_EE20__good_rval_ref_typeE, symObjAddr: 0x5F40, symBinAddr: 0x10001AF30, symSize: 0x40 }
  - { offsetInCU: 0xEC95, offset: 0x64AB8, size: 0x8, addend: 0x0, symName: __ZNSt3__117__compressed_pairIPPNS_16__hash_node_baseIPNS_11__hash_nodeINS_17__hash_value_typeINS_12basic_stringIcNS_11char_traitsIcEENS_9allocatorIcEEEEdEEPvEEEENS_25__bucket_list_deallocatorINS7_ISF_EEEEEC1B7v160006IDnSJ_EEOT_OT0_, symObjAddr: 0x5F80, symBinAddr: 0x10001AF70, symSize: 0x30 }
  - { offsetInCU: 0xECED, offset: 0x64B10, size: 0x8, addend: 0x0, symName: __ZNSt3__117__compressed_pairIPPNS_16__hash_node_baseIPNS_11__hash_nodeINS_17__hash_value_typeINS_12basic_stringIcNS_11char_traitsIcEENS_9allocatorIcEEEEdEEPvEEEENS_25__bucket_list_deallocatorINS7_ISF_EEEEEC2B7v160006IDnSJ_EEOT_OT0_, symObjAddr: 0x5FB0, symBinAddr: 0x10001AFA0, symSize: 0x40 }
  - { offsetInCU: 0xED45, offset: 0x64B68, size: 0x8, addend: 0x0, symName: __ZNSt3__122__compressed_pair_elemIPPNS_16__hash_node_baseIPNS_11__hash_nodeINS_17__hash_value_typeINS_12basic_stringIcNS_11char_traitsIcEENS_9allocatorIcEEEEdEEPvEEEELi0ELb0EEC2B7v160006IDnvEEOT_, symObjAddr: 0x5FF0, symBinAddr: 0x10001AFE0, symSize: 0x20 }
  - { offsetInCU: 0xED87, offset: 0x64BAA, size: 0x8, addend: 0x0, symName: __ZNSt3__122__compressed_pair_elemINS_25__bucket_list_deallocatorINS_9allocatorIPNS_16__hash_node_baseIPNS_11__hash_nodeINS_17__hash_value_typeINS_12basic_stringIcNS_11char_traitsIcEENS2_IcEEEEdEEPvEEEEEEEELi1ELb0EEC2B7v160006ISI_vEEOT_, symObjAddr: 0x6010, symBinAddr: 0x10001B000, symSize: 0x30 }
  - { offsetInCU: 0xEDC9, offset: 0x64BEC, size: 0x8, addend: 0x0, symName: __ZNSt3__125__bucket_list_deallocatorINS_9allocatorIPNS_16__hash_node_baseIPNS_11__hash_nodeINS_17__hash_value_typeINS_12basic_stringIcNS_11char_traitsIcEENS1_IcEEEEdEEPvEEEEEEEC1B7v160006EOSH_, symObjAddr: 0x6040, symBinAddr: 0x10001B030, symSize: 0x30 }
  - { offsetInCU: 0xEE02, offset: 0x64C25, size: 0x8, addend: 0x0, symName: __ZNSt3__125__bucket_list_deallocatorINS_9allocatorIPNS_16__hash_node_baseIPNS_11__hash_nodeINS_17__hash_value_typeINS_12basic_stringIcNS_11char_traitsIcEENS1_IcEEEEdEEPvEEEEEEEC2B7v160006EOSH_, symObjAddr: 0x6070, symBinAddr: 0x10001B060, symSize: 0x40 }
  - { offsetInCU: 0xEE3B, offset: 0x64C5E, size: 0x8, addend: 0x0, symName: __ZNKSt3__117__compressed_pairINS_16__hash_node_baseIPNS_11__hash_nodeINS_17__hash_value_typeINS_12basic_stringIcNS_11char_traitsIcEENS_9allocatorIcEEEEdEEPvEEEENS7_ISC_EEE6secondB7v160006Ev, symObjAddr: 0x60B0, symBinAddr: 0x10001B0A0, symSize: 0x20 }
  - { offsetInCU: 0xEE61, offset: 0x64C84, size: 0x8, addend: 0x0, symName: __ZNKSt3__122__compressed_pair_elemINS_9allocatorINS_11__hash_nodeINS_17__hash_value_typeINS_12basic_stringIcNS_11char_traitsIcEENS1_IcEEEEdEEPvEEEELi1ELb1EE5__getB7v160006Ev, symObjAddr: 0x60D0, symBinAddr: 0x10001B0C0, symSize: 0x10 }
  - { offsetInCU: 0xEE87, offset: 0x64CAA, size: 0x8, addend: 0x0, symName: __ZNSt3__117__compressed_pairINS_16__hash_node_baseIPNS_11__hash_nodeINS_17__hash_value_typeINS_12basic_stringIcNS_11char_traitsIcEENS_9allocatorIcEEEEdEEPvEEEENS7_ISC_EEEC2B7v160006INS_18__default_init_tagESF_EEOT_OT0_, symObjAddr: 0x60E0, symBinAddr: 0x10001B0D0, symSize: 0x40 }
  - { offsetInCU: 0xEEDF, offset: 0x64D02, size: 0x8, addend: 0x0, symName: __ZNSt3__122__compressed_pair_elemINS_16__hash_node_baseIPNS_11__hash_nodeINS_17__hash_value_typeINS_12basic_stringIcNS_11char_traitsIcEENS_9allocatorIcEEEEdEEPvEEEELi0ELb0EEC2B7v160006ENS_18__default_init_tagE, symObjAddr: 0x6120, symBinAddr: 0x10001B110, symSize: 0x20 }
  - { offsetInCU: 0xEF14, offset: 0x64D37, size: 0x8, addend: 0x0, symName: __ZNSt3__122__compressed_pair_elemINS_9allocatorINS_11__hash_nodeINS_17__hash_value_typeINS_12basic_stringIcNS_11char_traitsIcEENS1_IcEEEEdEEPvEEEELi1ELb1EEC2B7v160006ISC_vEEOT_, symObjAddr: 0x6140, symBinAddr: 0x10001B130, symSize: 0x10 }
  - { offsetInCU: 0xEF56, offset: 0x64D79, size: 0x8, addend: 0x0, symName: __ZNKSt3__117__compressed_pairImNS_22__unordered_map_hasherINS_12basic_stringIcNS_11char_traitsIcEENS_9allocatorIcEEEENS_17__hash_value_typeIS7_dEENS_4hashIS7_EENS_8equal_toIS7_EELb1EEEE6secondB7v160006Ev, symObjAddr: 0x6190, symBinAddr: 0x10001B140, symSize: 0x20 }
  - { offsetInCU: 0xEF7C, offset: 0x64D9F, size: 0x8, addend: 0x0, symName: __ZNKSt3__122__compressed_pair_elemINS_22__unordered_map_hasherINS_12basic_stringIcNS_11char_traitsIcEENS_9allocatorIcEEEENS_17__hash_value_typeIS7_dEENS_4hashIS7_EENS_8equal_toIS7_EELb1EEELi1ELb1EE5__getB7v160006Ev, symObjAddr: 0x61B0, symBinAddr: 0x10001B160, symSize: 0x10 }
  - { offsetInCU: 0xEFA2, offset: 0x64DC5, size: 0x8, addend: 0x0, symName: __ZNSt3__117__compressed_pairImNS_22__unordered_map_hasherINS_12basic_stringIcNS_11char_traitsIcEENS_9allocatorIcEEEENS_17__hash_value_typeIS7_dEENS_4hashIS7_EENS_8equal_toIS7_EELb1EEEEC2B7v160006IiRKSE_EEOT_OT0_, symObjAddr: 0x61C0, symBinAddr: 0x10001B170, symSize: 0x40 }
  - { offsetInCU: 0xEFFA, offset: 0x64E1D, size: 0x8, addend: 0x0, symName: __ZNSt3__122__compressed_pair_elemINS_22__unordered_map_hasherINS_12basic_stringIcNS_11char_traitsIcEENS_9allocatorIcEEEENS_17__hash_value_typeIS7_dEENS_4hashIS7_EENS_8equal_toIS7_EELb1EEELi1ELb1EEC2B7v160006IRKSE_vEEOT_, symObjAddr: 0x6220, symBinAddr: 0x10001B1B0, symSize: 0x10 }
  - { offsetInCU: 0xF03C, offset: 0x64E5F, size: 0x8, addend: 0x0, symName: __ZNSt3__112__hash_tableINS_17__hash_value_typeINS_12basic_stringIcNS_11char_traitsIcEENS_9allocatorIcEEEEdEENS_22__unordered_map_hasherIS7_S8_NS_4hashIS7_EENS_8equal_toIS7_EELb1EEENS_21__unordered_map_equalIS7_S8_SD_SB_Lb1EEENS5_IS8_EEE15__insert_uniqueB7v160006ERKNS_4pairIKS7_dEE, symObjAddr: 0x6BE0, symBinAddr: 0x10001B1C0, symSize: 0x50 }
  - { offsetInCU: 0xF071, offset: 0x64E94, size: 0x8, addend: 0x0, symName: __ZNSt3__112__hash_tableINS_17__hash_value_typeINS_12basic_stringIcNS_11char_traitsIcEENS_9allocatorIcEEEEdEENS_22__unordered_map_hasherIS7_S8_NS_4hashIS7_EENS_8equal_toIS7_EELb1EEENS_21__unordered_map_equalIS7_S8_SD_SB_Lb1EEENS5_IS8_EEE25__emplace_unique_key_argsIS7_JRKNS_4pairIKS7_dEEEEENSK_INS_15__hash_iteratorIPNS_11__hash_nodeIS8_PvEEEEbEERKT_DpOT0_, symObjAddr: 0x6CF0, symBinAddr: 0x10001B210, symSize: 0x590 }
  - { offsetInCU: 0xF14F, offset: 0x64F72, size: 0x8, addend: 0x0, symName: __ZNSt3__122__hash_key_value_typesINS_17__hash_value_typeINS_12basic_stringIcNS_11char_traitsIcEENS_9allocatorIcEEEEdEEE9__get_keyB7v160006ERKNS_4pairIKS7_dEE, symObjAddr: 0x7280, symBinAddr: 0x10001B7A0, symSize: 0x10 }
  - { offsetInCU: 0xF172, offset: 0x64F95, size: 0x8, addend: 0x0, symName: __ZNSt3__112__hash_tableINS_17__hash_value_typeINS_12basic_stringIcNS_11char_traitsIcEENS_9allocatorIcEEEEdEENS_22__unordered_map_hasherIS7_S8_NS_4hashIS7_EENS_8equal_toIS7_EELb1EEENS_21__unordered_map_equalIS7_S8_SD_SB_Lb1EEENS5_IS8_EEE21__construct_node_hashIRKNS_4pairIKS7_dEEJEEENS_10unique_ptrINS_11__hash_nodeIS8_PvEENS_22__hash_node_destructorINS5_ISS_EEEEEEmOT_DpOT0_, symObjAddr: 0x7340, symBinAddr: 0x10001B7B0, symSize: 0x140 }
  - { offsetInCU: 0xF1EF, offset: 0x65012, size: 0x8, addend: 0x0, symName: __ZNSt3__116allocator_traitsINS_9allocatorINS_11__hash_nodeINS_17__hash_value_typeINS_12basic_stringIcNS_11char_traitsIcEENS1_IcEEEEdEEPvEEEEE9constructB7v160006INS_4pairIKS8_dEEJRKSH_EvEEvRSC_PT_DpOT0_, symObjAddr: 0x83F0, symBinAddr: 0x10001B8F0, symSize: 0x30 }
  - { offsetInCU: 0xF246, offset: 0x65069, size: 0x8, addend: 0x0, symName: __ZNSt3__19allocatorINS_11__hash_nodeINS_17__hash_value_typeINS_12basic_stringIcNS_11char_traitsIcEENS0_IcEEEEdEEPvEEE9constructB7v160006INS_4pairIKS7_dEEJRKSF_EEEvPT_DpOT0_, symObjAddr: 0x8600, symBinAddr: 0x10001B920, symSize: 0x30 }
  - { offsetInCU: 0xF29C, offset: 0x650BF, size: 0x8, addend: 0x0, symName: __ZNSt3__112__hash_tableINS_17__hash_value_typeINS_12basic_stringIcNS_11char_traitsIcEENS_9allocatorIcEEEEdEENS_22__unordered_map_hasherIS7_S8_NS_4hashIS7_EENS_8equal_toIS7_EELb1EEENS_21__unordered_map_equalIS7_S8_SD_SB_Lb1EEENS5_IS8_EEE4findIS7_EENS_15__hash_iteratorIPNS_11__hash_nodeIS8_PvEEEERKT_, symObjAddr: 0x8A30, symBinAddr: 0x10001B950, symSize: 0x180 }
  - { offsetInCU: 0xF326, offset: 0x65149, size: 0x8, addend: 0x0, symName: __ZNSt3__112__hash_tableINS_17__hash_value_typeINS_12basic_stringIcNS_11char_traitsIcEENS_9allocatorIcEEEEdEENS_22__unordered_map_hasherIS7_S8_NS_4hashIS7_EENS_8equal_toIS7_EELb1EEENS_21__unordered_map_equalIS7_S8_SD_SB_Lb1EEENS5_IS8_EEE3endEv, symObjAddr: 0x8BE0, symBinAddr: 0x10001BAD0, symSize: 0x30 }
  - { offsetInCU: 0xF34E, offset: 0x65171, size: 0x8, addend: 0x0, symName: __ZNKSt3__119__hash_map_iteratorINS_15__hash_iteratorIPNS_11__hash_nodeINS_17__hash_value_typeINS_12basic_stringIcNS_11char_traitsIcEENS_9allocatorIcEEEEdEEPvEEEEEptB7v160006Ev, symObjAddr: 0x8D30, symBinAddr: 0x10001BC00, symSize: 0x30 }
  - { offsetInCU: 0xF374, offset: 0x65197, size: 0x8, addend: 0x0, symName: __ZNSt12out_of_rangeC1B7v160006EPKc, symObjAddr: 0x8D60, symBinAddr: 0x10001BC30, symSize: 0x30 }
  - { offsetInCU: 0xF3AC, offset: 0x651CF, size: 0x8, addend: 0x0, symName: __ZNSt12out_of_rangeC2B7v160006EPKc, symObjAddr: 0x8D90, symBinAddr: 0x10001BC60, symSize: 0x40 }
  - { offsetInCU: 0xF3E4, offset: 0x65207, size: 0x8, addend: 0x0, symName: __ZNSt3__114pointer_traitsIPNS_4pairIKNS_12basic_stringIcNS_11char_traitsIcEENS_9allocatorIcEEEEdEEE10pointer_toB7v160006ERS9_, symObjAddr: 0x8DD0, symBinAddr: 0x10001BCA0, symSize: 0x10 }
  - { offsetInCU: 0xF407, offset: 0x6522A, size: 0x8, addend: 0x0, symName: __ZNKSt3__115__hash_iteratorIPNS_11__hash_nodeINS_17__hash_value_typeINS_12basic_stringIcNS_11char_traitsIcEENS_9allocatorIcEEEEdEEPvEEEptB7v160006Ev, symObjAddr: 0x8DE0, symBinAddr: 0x10001BCB0, symSize: 0x30 }
  - { offsetInCU: 0xF42D, offset: 0x65250, size: 0x8, addend: 0x0, symName: __ZNSt3__114pointer_traitsIPNS_17__hash_value_typeINS_12basic_stringIcNS_11char_traitsIcEENS_9allocatorIcEEEEdEEE10pointer_toB7v160006ERS8_, symObjAddr: 0x8E10, symBinAddr: 0x10001BCE0, symSize: 0x10 }
  - { offsetInCU: 0x18254, offset: 0x7D55C, size: 0x8, addend: 0x0, symName: __ZNSt3__1neB7v160006ERKNS_19__hash_map_iteratorINS_15__hash_iteratorIPNS_11__hash_nodeINS_17__hash_value_typeINS_12basic_stringIcNS_11char_traitsIcEENS_9allocatorIcEEEE14CurveDecoratorEEPvEEEEEESI_, symObjAddr: 0xB50, symBinAddr: 0x10001C7B0, symSize: 0x30 }
  - { offsetInCU: 0x18291, offset: 0x7D599, size: 0x8, addend: 0x0, symName: __ZNSt3__1neB7v160006ERKNS_19__hash_map_iteratorINS_15__hash_iteratorIPNS_11__hash_nodeINS_17__hash_value_typeINS_12basic_stringIcNS_11char_traitsIcEENS_9allocatorIcEEEE12VolDecoratorEEPvEEEEEESI_, symObjAddr: 0xD50, symBinAddr: 0x10001C970, symSize: 0x30 }
  - { offsetInCU: 0x182CE, offset: 0x7D5D6, size: 0x8, addend: 0x0, symName: __ZNSt3__1neB7v160006ERKNS_19__hash_map_iteratorINS_15__hash_iteratorIPNS_11__hash_nodeINS_17__hash_value_typeINS_12basic_stringIcNS_11char_traitsIcEENS_9allocatorIcEEEE14PriceDecoratorEEPvEEEEEESI_, symObjAddr: 0xEB0, symBinAddr: 0x10001CAA0, symSize: 0x30 }
  - { offsetInCU: 0x1830C, offset: 0x7D614, size: 0x8, addend: 0x0, symName: '__ZNSt3__15asyncB7v160006IRZN10RiskEngine11computeRiskENS_12basic_stringIcNS_11char_traitsIcEENS_9allocatorIcEEEENS_10shared_ptrI5TradeEEbE3$_0JRSA_RS7_R6MarketSG_EEENS_6futureINS_11__invoke_ofINS_5decayIT_E4typeEJDpNSJ_IT0_E4typeEEE4typeEEENS_6launchEOSK_DpOSN_', symObjAddr: 0xFE0, symBinAddr: 0x10001CBD0, symSize: 0x3E0 }
  - { offsetInCU: 0x183A9, offset: 0x7D6B1, size: 0x8, addend: 0x0, symName: __ZNSt3__1neB7v160006IPNS_6futureINS_4pairINS_12basic_stringIcNS_11char_traitsIcEENS_9allocatorIcEEEEdEEEEEEbRKNS_11__wrap_iterIT_EESG_, symObjAddr: 0x1440, symBinAddr: 0x10001D030, symSize: 0x30 }
  - { offsetInCU: 0x183EC, offset: 0x7D6F4, size: 0x8, addend: 0x0, symName: __ZNSt3__1eqB7v160006IPNS_6futureINS_4pairINS_12basic_stringIcNS_11char_traitsIcEENS_9allocatorIcEEEEdEEEEEEbRKNS_11__wrap_iterIT_EESG_, symObjAddr: 0x7DD0, symBinAddr: 0x10001D1B0, symSize: 0x40 }
  - { offsetInCU: 0x18461, offset: 0x7D769, size: 0x8, addend: 0x0, symName: __ZNSt3__1neB7v160006ERKNS_15__hash_iteratorIPNS_11__hash_nodeINS_17__hash_value_typeINS_12basic_stringIcNS_11char_traitsIcEENS_9allocatorIcEEEE14CurveDecoratorEEPvEEEESG_, symObjAddr: 0x8310, symBinAddr: 0x10001D6F0, symSize: 0x30 }
  - { offsetInCU: 0x1849E, offset: 0x7D7A6, size: 0x8, addend: 0x0, symName: __ZNSt3__1eqB7v160006ERKNS_15__hash_iteratorIPNS_11__hash_nodeINS_17__hash_value_typeINS_12basic_stringIcNS_11char_traitsIcEENS_9allocatorIcEEEE14CurveDecoratorEEPvEEEESG_, symObjAddr: 0x8340, symBinAddr: 0x10001D720, symSize: 0x30 }
  - { offsetInCU: 0x18541, offset: 0x7D849, size: 0x8, addend: 0x0, symName: __ZNSt3__17launderB7v160006INS_4pairIKNS_12basic_stringIcNS_11char_traitsIcEENS_9allocatorIcEEEE14CurveDecoratorEEEEPT_SC_, symObjAddr: 0x8420, symBinAddr: 0x10001D800, symSize: 0x20 }
  - { offsetInCU: 0x18578, offset: 0x7D880, size: 0x8, addend: 0x0, symName: __ZNSt3__19__launderB7v160006INS_4pairIKNS_12basic_stringIcNS_11char_traitsIcEENS_9allocatorIcEEEE14CurveDecoratorEEEEPT_SC_, symObjAddr: 0x8440, symBinAddr: 0x10001D820, symSize: 0x10 }
  - { offsetInCU: 0x185D3, offset: 0x7D8DB, size: 0x8, addend: 0x0, symName: __ZNSt3__1ltB7v160006IcNS_11char_traitsIcEENS_9allocatorIcEEEEbRKNS_12basic_stringIT_T0_T1_EESB_, symObjAddr: 0x8B30, symBinAddr: 0x10001DF10, symSize: 0x30 }
  - { offsetInCU: 0x1866E, offset: 0x7D976, size: 0x8, addend: 0x0, symName: __ZNSt3__127__tree_balance_after_insertB7v160006IPNS_16__tree_node_baseIPvEEEEvT_S5_, symObjAddr: 0x9210, symBinAddr: 0x10001E560, symSize: 0x320 }
  - { offsetInCU: 0x186EA, offset: 0x7D9F2, size: 0x8, addend: 0x0, symName: __ZNSt3__120__tree_is_left_childB7v160006IPNS_16__tree_node_baseIPvEEEEbT_, symObjAddr: 0x9550, symBinAddr: 0x10001E8A0, symSize: 0x30 }
  - { offsetInCU: 0x1871F, offset: 0x7DA27, size: 0x8, addend: 0x0, symName: __ZNSt3__118__tree_left_rotateB7v160006IPNS_16__tree_node_baseIPvEEEEvT_, symObjAddr: 0x9580, symBinAddr: 0x10001E8D0, symSize: 0xD0 }
  - { offsetInCU: 0x18761, offset: 0x7DA69, size: 0x8, addend: 0x0, symName: __ZNSt3__119__tree_right_rotateB7v160006IPNS_16__tree_node_baseIPvEEEEvT_, symObjAddr: 0x9650, symBinAddr: 0x10001E9A0, symSize: 0xC0 }
  - { offsetInCU: 0x187A2, offset: 0x7DAAA, size: 0x8, addend: 0x0, symName: __ZNSt3__1neB7v160006ERKNS_15__hash_iteratorIPNS_11__hash_nodeINS_17__hash_value_typeINS_12basic_stringIcNS_11char_traitsIcEENS_9allocatorIcEEEE12VolDecoratorEEPvEEEESG_, symObjAddr: 0x9AA0, symBinAddr: 0x10001EDF0, symSize: 0x30 }
  - { offsetInCU: 0x187DF, offset: 0x7DAE7, size: 0x8, addend: 0x0, symName: __ZNSt3__1eqB7v160006ERKNS_15__hash_iteratorIPNS_11__hash_nodeINS_17__hash_value_typeINS_12basic_stringIcNS_11char_traitsIcEENS_9allocatorIcEEEE12VolDecoratorEEPvEEEESG_, symObjAddr: 0x9AD0, symBinAddr: 0x10001EE20, symSize: 0x30 }
  - { offsetInCU: 0x18882, offset: 0x7DB8A, size: 0x8, addend: 0x0, symName: __ZNSt3__17launderB7v160006INS_4pairIKNS_12basic_stringIcNS_11char_traitsIcEENS_9allocatorIcEEEE12VolDecoratorEEEEPT_SC_, symObjAddr: 0x9BB0, symBinAddr: 0x10001EF00, symSize: 0x20 }
  - { offsetInCU: 0x188B9, offset: 0x7DBC1, size: 0x8, addend: 0x0, symName: __ZNSt3__19__launderB7v160006INS_4pairIKNS_12basic_stringIcNS_11char_traitsIcEENS_9allocatorIcEEEE12VolDecoratorEEEEPT_SC_, symObjAddr: 0x9BD0, symBinAddr: 0x10001EF20, symSize: 0x10 }
  - { offsetInCU: 0x188F0, offset: 0x7DBF8, size: 0x8, addend: 0x0, symName: __ZNSt3__1neB7v160006ERKNS_15__hash_iteratorIPNS_11__hash_nodeINS_17__hash_value_typeINS_12basic_stringIcNS_11char_traitsIcEENS_9allocatorIcEEEE14PriceDecoratorEEPvEEEESG_, symObjAddr: 0x9D20, symBinAddr: 0x10001F070, symSize: 0x30 }
  - { offsetInCU: 0x1892D, offset: 0x7DC35, size: 0x8, addend: 0x0, symName: __ZNSt3__1eqB7v160006ERKNS_15__hash_iteratorIPNS_11__hash_nodeINS_17__hash_value_typeINS_12basic_stringIcNS_11char_traitsIcEENS_9allocatorIcEEEE14PriceDecoratorEEPvEEEESG_, symObjAddr: 0x9D50, symBinAddr: 0x10001F0A0, symSize: 0x30 }
  - { offsetInCU: 0x189D0, offset: 0x7DCD8, size: 0x8, addend: 0x0, symName: __ZNSt3__17launderB7v160006INS_4pairIKNS_12basic_stringIcNS_11char_traitsIcEENS_9allocatorIcEEEE14PriceDecoratorEEEEPT_SC_, symObjAddr: 0x9E30, symBinAddr: 0x10001F180, symSize: 0x20 }
  - { offsetInCU: 0x18A07, offset: 0x7DD0F, size: 0x8, addend: 0x0, symName: __ZNSt3__19__launderB7v160006INS_4pairIKNS_12basic_stringIcNS_11char_traitsIcEENS_9allocatorIcEEEE14PriceDecoratorEEEEPT_SC_, symObjAddr: 0x9E50, symBinAddr: 0x10001F1A0, symSize: 0x10 }
  - { offsetInCU: 0x18A3F, offset: 0x7DD47, size: 0x8, addend: 0x0, symName: __ZNSt3__119__debug_db_insert_cB7v160006INS_6vectorINS_6futureINS_4pairINS_12basic_stringIcNS_11char_traitsIcEENS_9allocatorIcEEEEdEEEENS7_ISB_EEEEEEvPT_, symObjAddr: 0x9EF0, symBinAddr: 0x10001F240, symSize: 0x10 }
  - { offsetInCU: 0x18A70, offset: 0x7DD78, size: 0x8, addend: 0x0, symName: __ZNSt3__118__debug_db_erase_cB7v160006INS_6vectorINS_6futureINS_4pairINS_12basic_stringIcNS_11char_traitsIcEENS_9allocatorIcEEEEdEEEENS7_ISB_EEEEEEvPT_, symObjAddr: 0xA180, symBinAddr: 0x10001F4D0, symSize: 0x10 }
  - { offsetInCU: 0x18AA1, offset: 0x7DDA9, size: 0x8, addend: 0x0, symName: __ZNSt3__112__to_addressB7v160006INS_6futureINS_4pairINS_12basic_stringIcNS_11char_traitsIcEENS_9allocatorIcEEEEdEEEEEEPT_SC_, symObjAddr: 0xA290, symBinAddr: 0x10001F5E0, symSize: 0x10 }
  - { offsetInCU: 0x18AD5, offset: 0x7DDDD, size: 0x8, addend: 0x0, symName: __ZNSt3__121__does_policy_containB7v160006ENS_6launchES0_, symObjAddr: 0xA430, symBinAddr: 0x10001F780, symSize: 0x20 }
  - { offsetInCU: 0x18B13, offset: 0x7DE1B, size: 0x8, addend: 0x0, symName: '__ZNSt3__124__make_async_assoc_stateB7v160006INS_4pairINS_12basic_stringIcNS_11char_traitsIcEENS_9allocatorIcEEEEdEENS_12__async_funcIZN10RiskEngine11computeRiskES7_NS_10shared_ptrI5TradeEEbE3$_0JSD_S7_6MarketSF_EEEEENS_6futureIT_EEOT0_', symObjAddr: 0xA450, symBinAddr: 0x10001F7A0, symSize: 0x120 }
  - { offsetInCU: 0x18B63, offset: 0x7DE6B, size: 0x8, addend: 0x0, symName: '__ZNSt3__127__make_deferred_assoc_stateB7v160006INS_4pairINS_12basic_stringIcNS_11char_traitsIcEENS_9allocatorIcEEEEdEENS_12__async_funcIZN10RiskEngine11computeRiskES7_NS_10shared_ptrI5TradeEEbE3$_0JSD_S7_6MarketSF_EEEEENS_6futureIT_EEOT0_', symObjAddr: 0xA630, symBinAddr: 0x10001F980, symSize: 0xC0 }
  - { offsetInCU: 0x1919C, offset: 0x7E4A4, size: 0x8, addend: 0x0, symName: __ZNSt3__120__throw_future_errorB7v160006ENS_11future_errcE, symObjAddr: 0xB320, symBinAddr: 0x100020560, symSize: 0x80 }
  - { offsetInCU: 0x191C6, offset: 0x7E4CE, size: 0x8, addend: 0x0, symName: __ZNSt3__115make_error_codeB7v160006ENS_11future_errcE, symObjAddr: 0xB4D0, symBinAddr: 0x100020710, symSize: 0x40 }
  - { offsetInCU: 0x19219, offset: 0x7E521, size: 0x8, addend: 0x0, symName: '__ZNSt3__18__invokeB7v160006IZN10RiskEngine11computeRiskENS_12basic_stringIcNS_11char_traitsIcEENS_9allocatorIcEEEENS_10shared_ptrI5TradeEEbE3$_0JSA_S7_6MarketSC_EEEDTclclsr3stdE7declvalIT_EEspclsr3stdE7declvalIT0_EEEEOSD_DpOSE_', symObjAddr: 0xB670, symBinAddr: 0x1000208B0, symSize: 0xD0 }
  - { offsetInCU: 0x192A7, offset: 0x7E5AF, size: 0x8, addend: 0x0, symName: '__ZNSt3__13getB7v160006ILm0EJZN10RiskEngine11computeRiskENS_12basic_stringIcNS_11char_traitsIcEENS_9allocatorIcEEEENS_10shared_ptrI5TradeEEbE3$_0SA_S7_6MarketSC_EEERNS_13tuple_elementIXT_ENS_5tupleIJDpT0_EEEE4typeERSH_', symObjAddr: 0xB740, symBinAddr: 0x100020980, symSize: 0x20 }
  - { offsetInCU: 0x192FF, offset: 0x7E607, size: 0x8, addend: 0x0, symName: '__ZNSt3__13getB7v160006ILm1EJZN10RiskEngine11computeRiskENS_12basic_stringIcNS_11char_traitsIcEENS_9allocatorIcEEEENS_10shared_ptrI5TradeEEbE3$_0SA_S7_6MarketSC_EEERNS_13tuple_elementIXT_ENS_5tupleIJDpT0_EEEE4typeERSH_', symObjAddr: 0xB760, symBinAddr: 0x1000209A0, symSize: 0x20 }
  - { offsetInCU: 0x19357, offset: 0x7E65F, size: 0x8, addend: 0x0, symName: '__ZNSt3__13getB7v160006ILm2EJZN10RiskEngine11computeRiskENS_12basic_stringIcNS_11char_traitsIcEENS_9allocatorIcEEEENS_10shared_ptrI5TradeEEbE3$_0SA_S7_6MarketSC_EEERNS_13tuple_elementIXT_ENS_5tupleIJDpT0_EEEE4typeERSH_', symObjAddr: 0xB780, symBinAddr: 0x1000209C0, symSize: 0x20 }
  - { offsetInCU: 0x193AF, offset: 0x7E6B7, size: 0x8, addend: 0x0, symName: '__ZNSt3__13getB7v160006ILm3EJZN10RiskEngine11computeRiskENS_12basic_stringIcNS_11char_traitsIcEENS_9allocatorIcEEEENS_10shared_ptrI5TradeEEbE3$_0SA_S7_6MarketSC_EEERNS_13tuple_elementIXT_ENS_5tupleIJDpT0_EEEE4typeERSH_', symObjAddr: 0xB7A0, symBinAddr: 0x1000209E0, symSize: 0x20 }
  - { offsetInCU: 0x19407, offset: 0x7E70F, size: 0x8, addend: 0x0, symName: '__ZNSt3__13getB7v160006ILm4EJZN10RiskEngine11computeRiskENS_12basic_stringIcNS_11char_traitsIcEENS_9allocatorIcEEEENS_10shared_ptrI5TradeEEbE3$_0SA_S7_6MarketSC_EEERNS_13tuple_elementIXT_ENS_5tupleIJDpT0_EEEE4typeERSH_', symObjAddr: 0xB7C0, symBinAddr: 0x100020A00, symSize: 0x30 }
  - { offsetInCU: 0x1945E, offset: 0x7E766, size: 0x8, addend: 0x0, symName: __ZNSt3__19make_pairB7v160006IRNS_12basic_stringIcNS_11char_traitsIcEENS_9allocatorIcEEEERdEENS_4pairINS_18__unwrap_ref_decayIT_E4typeENSA_IT0_E4typeEEEOSB_OSE_, symObjAddr: 0xB8A0, symBinAddr: 0x100020AE0, symSize: 0x40 }
  - { offsetInCU: 0x198CC, offset: 0x7EBD4, size: 0x8, addend: 0x0, symName: __ZNSt3__122__libcpp_thread_createB7v160006EPP17_opaque_pthread_tPFPvS3_ES3_, symObjAddr: 0xBCA0, symBinAddr: 0x100020EE0, symSize: 0x30 }
  - { offsetInCU: 0x19919, offset: 0x7EC21, size: 0x8, addend: 0x0, symName: '__ZNSt3__114__thread_proxyB7v160006INS_5tupleIJNS_10unique_ptrINS_15__thread_structENS_14default_deleteIS3_EEEEMNS_19__async_assoc_stateINS_4pairINS_12basic_stringIcNS_11char_traitsIcEENS_9allocatorIcEEEEdEENS_12__async_funcIZN10RiskEngine11computeRiskESE_NS_10shared_ptrI5TradeEEbE3$_0JSK_SE_6MarketSM_EEEEEFvvEPSO_EEEEEPvST_', symObjAddr: 0xBCD0, symBinAddr: 0x100020F10, symSize: 0xA0 }
  - { offsetInCU: 0x19A66, offset: 0x7ED6E, size: 0x8, addend: 0x0, symName: '__ZNSt3__13getB7v160006ILm0EJNS_10unique_ptrINS_15__thread_structENS_14default_deleteIS2_EEEEMNS_19__async_assoc_stateINS_4pairINS_12basic_stringIcNS_11char_traitsIcEENS_9allocatorIcEEEEdEENS_12__async_funcIZN10RiskEngine11computeRiskESD_NS_10shared_ptrI5TradeEEbE3$_0JSJ_SD_6MarketSL_EEEEEFvvEPSN_EEERNS_13tuple_elementIXT_ENS_5tupleIJDpT0_EEEE4typeERSV_', symObjAddr: 0xC350, symBinAddr: 0x100021590, symSize: 0x20 }
  - { offsetInCU: 0x19AB4, offset: 0x7EDBC, size: 0x8, addend: 0x0, symName: '__ZNSt3__116__thread_executeB7v160006INS_10unique_ptrINS_15__thread_structENS_14default_deleteIS2_EEEEMNS_19__async_assoc_stateINS_4pairINS_12basic_stringIcNS_11char_traitsIcEENS_9allocatorIcEEEEdEENS_12__async_funcIZN10RiskEngine11computeRiskESD_NS_10shared_ptrI5TradeEEbE3$_0JSJ_SD_6MarketSL_EEEEEFvvEJPSN_EJLm2EEEEvRNS_5tupleIJT_T0_DpT1_EEENS_15__tuple_indicesIJXspT2_EEEE', symObjAddr: 0xC370, symBinAddr: 0x1000215B0, symSize: 0x40 }
  - { offsetInCU: 0x19B12, offset: 0x7EE1A, size: 0x8, addend: 0x0, symName: __ZNSt3__116__libcpp_tls_setB7v160006EmPv, symObjAddr: 0xC3B0, symBinAddr: 0x1000215F0, symSize: 0x30 }
  - { offsetInCU: 0x19B50, offset: 0x7EE58, size: 0x8, addend: 0x0, symName: '__ZNSt3__18__invokeB7v160006IMNS_19__async_assoc_stateINS_4pairINS_12basic_stringIcNS_11char_traitsIcEENS_9allocatorIcEEEEdEENS_12__async_funcIZN10RiskEngine11computeRiskES8_NS_10shared_ptrI5TradeEEbE3$_0JSE_S8_6MarketSG_EEEEEFvvEPSI_JEvEEDTcldsdeclsr3stdE7declvalIT0_EEclsr3stdE7declvalIT_EEspclsr3stdE7declvalIT1_EEEEOSN_OSM_DpOSO_', symObjAddr: 0xC3F0, symBinAddr: 0x100021630, symSize: 0x70 }
  - { offsetInCU: 0x19BA2, offset: 0x7EEAA, size: 0x8, addend: 0x0, symName: '__ZNSt3__13getB7v160006ILm1EJNS_10unique_ptrINS_15__thread_structENS_14default_deleteIS2_EEEEMNS_19__async_assoc_stateINS_4pairINS_12basic_stringIcNS_11char_traitsIcEENS_9allocatorIcEEEEdEENS_12__async_funcIZN10RiskEngine11computeRiskESD_NS_10shared_ptrI5TradeEEbE3$_0JSJ_SD_6MarketSL_EEEEEFvvEPSN_EEERNS_13tuple_elementIXT_ENS_5tupleIJDpT0_EEEE4typeERSV_', symObjAddr: 0xC460, symBinAddr: 0x1000216A0, symSize: 0x20 }
  - { offsetInCU: 0x19BF0, offset: 0x7EEF8, size: 0x8, addend: 0x0, symName: '__ZNSt3__13getB7v160006ILm2EJNS_10unique_ptrINS_15__thread_structENS_14default_deleteIS2_EEEEMNS_19__async_assoc_stateINS_4pairINS_12basic_stringIcNS_11char_traitsIcEENS_9allocatorIcEEEEdEENS_12__async_funcIZN10RiskEngine11computeRiskESD_NS_10shared_ptrI5TradeEEbE3$_0JSJ_SD_6MarketSL_EEEEEFvvEPSN_EEERNS_13tuple_elementIXT_ENS_5tupleIJDpT0_EEEE4typeERSV_', symObjAddr: 0xC480, symBinAddr: 0x1000216C0, symSize: 0x20 }
  - { offsetInCU: 0x19CCE, offset: 0x7EFD6, size: 0x8, addend: 0x0, symName: __ZNSt3__134__libcpp_atomic_refcount_incrementB7v160006IlEET_RS1_, symObjAddr: 0xC910, symBinAddr: 0x100021B50, symSize: 0x30 }
  - { offsetInCU: 0x19D03, offset: 0x7F00B, size: 0x8, addend: 0x0, symName: __ZNSt3__134__libcpp_atomic_refcount_decrementB7v160006IlEET_RS1_, symObjAddr: 0xCAD0, symBinAddr: 0x100021D10, symSize: 0x30 }
  - { offsetInCU: 0x1A121, offset: 0x7F429, size: 0x8, addend: 0x0, symName: __ZNSt3__119__allocate_at_leastB7v160006INS_9allocatorINS_6futureINS_4pairINS_12basic_stringIcNS_11char_traitsIcEENS1_IcEEEEdEEEEEEEENS_19__allocation_resultINS_16allocator_traitsIT_E7pointerEEERSE_m, symObjAddr: 0xDC90, symBinAddr: 0x100022E50, symSize: 0x40 }
  - { offsetInCU: 0x1A163, offset: 0x7F46B, size: 0x8, addend: 0x0, symName: __ZNSt3__142__uninitialized_allocator_move_if_noexceptB7v160006INS_9allocatorINS_6futureINS_4pairINS_12basic_stringIcNS_11char_traitsIcEENS1_IcEEEEdEEEEEENS_16reverse_iteratorIPSA_EESE_SE_EET2_RT_T0_T1_SF_, symObjAddr: 0xDE20, symBinAddr: 0x100022FE0, symSize: 0x180 }
  - { offsetInCU: 0x1A203, offset: 0x7F50B, size: 0x8, addend: 0x0, symName: __ZNSt3__14swapB7v160006IPNS_6futureINS_4pairINS_12basic_stringIcNS_11char_traitsIcEENS_9allocatorIcEEEEdEEEEEENS_9enable_ifIXaasr21is_move_constructibleIT_EE5valuesr18is_move_assignableISD_EE5valueEvE4typeERSD_SG_, symObjAddr: 0xDFF0, symBinAddr: 0x1000231B0, symSize: 0x40 }
  - { offsetInCU: 0x1A254, offset: 0x7F55C, size: 0x8, addend: 0x0, symName: __ZNSt3__125__debug_db_invalidate_allB7v160006INS_6vectorINS_6futureINS_4pairINS_12basic_stringIcNS_11char_traitsIcEENS_9allocatorIcEEEEdEEEENS7_ISB_EEEEEEvPT_, symObjAddr: 0xE0E0, symBinAddr: 0x1000232A0, symSize: 0x10 }
  - { offsetInCU: 0x1A285, offset: 0x7F58D, size: 0x8, addend: 0x0, symName: __ZNSt3__122__make_exception_guardB7v160006INS_29_AllocatorDestroyRangeReverseINS_9allocatorINS_6futureINS_4pairINS_12basic_stringIcNS_11char_traitsIcEENS2_IcEEEEdEEEEEENS_16reverse_iteratorIPSB_EEEEEENS_28__exception_guard_exceptionsIT_EESI_, symObjAddr: 0xE0F0, symBinAddr: 0x1000232B0, symSize: 0x60 }
  - { offsetInCU: 0x1A2BA, offset: 0x7F5C2, size: 0x8, addend: 0x0, symName: __ZNSt3__1neB7v160006IPNS_6futureINS_4pairINS_12basic_stringIcNS_11char_traitsIcEENS_9allocatorIcEEEEdEEEESB_EEbRKNS_16reverse_iteratorIT_EERKNSC_IT0_EE, symObjAddr: 0xE190, symBinAddr: 0x100023350, symSize: 0x40 }
  - { offsetInCU: 0x1A306, offset: 0x7F60E, size: 0x8, addend: 0x0, symName: __ZNSt3__112__to_addressB7v160006INS_16reverse_iteratorIPNS_6futureINS_4pairINS_12basic_stringIcNS_11char_traitsIcEENS_9allocatorIcEEEEdEEEEEEvEENS_5decayIDTclsr19__to_address_helperIT_EE6__callclsr3stdE7declvalIRKSF_EEEEE4typeESH_, symObjAddr: 0xE1D0, symBinAddr: 0x100023390, symSize: 0x20 }
  - { offsetInCU: 0x1A365, offset: 0x7F66D, size: 0x8, addend: 0x0, symName: __ZNSt3__119__allocator_destroyB7v160006INS_9allocatorINS_6futureINS_4pairINS_12basic_stringIcNS_11char_traitsIcEENS1_IcEEEEdEEEEEENS_16reverse_iteratorINSC_IPSA_EEEESF_EEvRT_T0_T1_, symObjAddr: 0xE4C0, symBinAddr: 0x100023680, symSize: 0x70 }
  - { offsetInCU: 0x1A3C8, offset: 0x7F6D0, size: 0x8, addend: 0x0, symName: __ZNSt3__1neB7v160006INS_16reverse_iteratorIPNS_6futureINS_4pairINS_12basic_stringIcNS_11char_traitsIcEENS_9allocatorIcEEEEdEEEEEESD_EEbRKNS1_IT_EERKNS1_IT0_EE, symObjAddr: 0xE560, symBinAddr: 0x100023720, symSize: 0x50 }
  - { offsetInCU: 0x1A414, offset: 0x7F71C, size: 0x8, addend: 0x0, symName: __ZNSt3__112__to_addressB7v160006INS_16reverse_iteratorINS1_IPNS_6futureINS_4pairINS_12basic_stringIcNS_11char_traitsIcEENS_9allocatorIcEEEEdEEEEEEEEvEENS_5decayIDTclsr19__to_address_helperIT_EE6__callclsr3stdE7declvalIRKSG_EEEEE4typeESI_, symObjAddr: 0xE5B0, symBinAddr: 0x100023770, symSize: 0x20 }
  - { offsetInCU: 0x1A7A3, offset: 0x7FAAB, size: 0x8, addend: 0x0, symName: __ZNSt3__13getB7v160006ILm0ENS_12basic_stringIcNS_11char_traitsIcEENS_9allocatorIcEEEEdEERNS_13tuple_elementIXT_ENS_4pairIT0_T1_EEE4typeERSB_, symObjAddr: 0xEFE0, symBinAddr: 0x1000241A0, symSize: 0x20 }
  - { offsetInCU: 0x1A7EC, offset: 0x7FAF4, size: 0x8, addend: 0x0, symName: __ZNSt3__13getB7v160006ILm1ENS_12basic_stringIcNS_11char_traitsIcEENS_9allocatorIcEEEEdEERNS_13tuple_elementIXT_ENS_4pairIT0_T1_EEE4typeERSB_, symObjAddr: 0xF000, symBinAddr: 0x1000241C0, symSize: 0x20 }
  - { offsetInCU: 0x1A9A1, offset: 0x7FCA9, size: 0x8, addend: 0x0, symName: __ZStneB7v160006RKSt13exception_ptrS1_, symObjAddr: 0xB420, symBinAddr: 0x100020660, symSize: 0x30 }
  - { offsetInCU: 0x1A9DB, offset: 0x7FCE3, size: 0x8, addend: 0x0, symName: __ZSteqB7v160006RKSt13exception_ptrS1_, symObjAddr: 0xB480, symBinAddr: 0x1000206C0, symSize: 0x30 }
  - { offsetInCU: 0x1CEAE, offset: 0x821B6, size: 0x8, addend: 0x0, symName: __ZN10RiskEngine11computeRiskENSt3__112basic_stringIcNS0_11char_traitsIcEENS0_9allocatorIcEEEENS0_10shared_ptrI5TradeEEb, symObjAddr: 0x0, symBinAddr: 0x10001BCF0, symSize: 0xA40 }
  - { offsetInCU: 0x1D4E8, offset: 0x827F0, size: 0x8, addend: 0x0, symName: __ZNSt3__16vectorINS_6futureINS_4pairINS_12basic_stringIcNS_11char_traitsIcEENS_9allocatorIcEEEEdEEEENS6_ISA_EEE26__swap_out_circular_bufferERNS_14__split_bufferISA_RSB_EE, symObjAddr: 0xD8B0, symBinAddr: 0x100022AF0, symSize: 0x130 }
  - { offsetInCU: 0x1F3FA, offset: 0x84702, size: 0x8, addend: 0x0, symName: __ZNSt3__13mapINS_12basic_stringIcNS_11char_traitsIcEENS_9allocatorIcEEEEdNS_4lessIS6_EENS4_INS_4pairIKS6_dEEEEE5clearB7v160006Ev, symObjAddr: 0xA40, symBinAddr: 0x10001C730, symSize: 0x20 }
  - { offsetInCU: 0x1F420, offset: 0x84728, size: 0x8, addend: 0x0, symName: __ZNSt3__113unordered_mapINS_12basic_stringIcNS_11char_traitsIcEENS_9allocatorIcEEEE14CurveDecoratorNS_4hashIS6_EENS_8equal_toIS6_EENS4_INS_4pairIKS6_S7_EEEEE5beginB7v160006Ev, symObjAddr: 0xAF0, symBinAddr: 0x10001C750, symSize: 0x30 }
  - { offsetInCU: 0x1F446, offset: 0x8474E, size: 0x8, addend: 0x0, symName: __ZNSt3__113unordered_mapINS_12basic_stringIcNS_11char_traitsIcEENS_9allocatorIcEEEE14CurveDecoratorNS_4hashIS6_EENS_8equal_toIS6_EENS4_INS_4pairIKS6_S7_EEEEE3endB7v160006Ev, symObjAddr: 0xB20, symBinAddr: 0x10001C780, symSize: 0x30 }
  - { offsetInCU: 0x1F46C, offset: 0x84774, size: 0x8, addend: 0x0, symName: __ZNKSt3__119__hash_map_iteratorINS_15__hash_iteratorIPNS_11__hash_nodeINS_17__hash_value_typeINS_12basic_stringIcNS_11char_traitsIcEENS_9allocatorIcEEEE14CurveDecoratorEEPvEEEEEdeB7v160006Ev, symObjAddr: 0xB80, symBinAddr: 0x10001C7E0, symSize: 0x30 }
  - { offsetInCU: 0x1F492, offset: 0x8479A, size: 0x8, addend: 0x0, symName: __ZNK14CurveDecorator11getMarketUpEv, symObjAddr: 0xBB0, symBinAddr: 0x10001C810, symSize: 0x40 }
  - { offsetInCU: 0x1F4B8, offset: 0x847C0, size: 0x8, addend: 0x0, symName: __ZNK14CurveDecorator13getMarketDownEv, symObjAddr: 0xBF0, symBinAddr: 0x10001C850, symSize: 0x40 }
  - { offsetInCU: 0x1F4DE, offset: 0x847E6, size: 0x8, addend: 0x0, symName: __ZNSt3__13mapINS_12basic_stringIcNS_11char_traitsIcEENS_9allocatorIcEEEEdNS_4lessIS6_EENS4_INS_4pairIKS6_dEEEEE7emplaceB7v160006IJRS6_RdEEENS9_INS_14__map_iteratorINS_15__tree_iteratorINS_12__value_typeIS6_dEEPNS_11__tree_nodeISK_PvEElEEEEbEEDpOT_, symObjAddr: 0xC50, symBinAddr: 0x10001C890, symSize: 0x50 }
  - { offsetInCU: 0x1F532, offset: 0x8483A, size: 0x8, addend: 0x0, symName: __ZNSt3__119__hash_map_iteratorINS_15__hash_iteratorIPNS_11__hash_nodeINS_17__hash_value_typeINS_12basic_stringIcNS_11char_traitsIcEENS_9allocatorIcEEEE14CurveDecoratorEEPvEEEEEppB7v160006Ev, symObjAddr: 0xCC0, symBinAddr: 0x10001C8E0, symSize: 0x30 }
  - { offsetInCU: 0x1F558, offset: 0x84860, size: 0x8, addend: 0x0, symName: __ZNSt3__113unordered_mapINS_12basic_stringIcNS_11char_traitsIcEENS_9allocatorIcEEEE12VolDecoratorNS_4hashIS6_EENS_8equal_toIS6_EENS4_INS_4pairIKS6_S7_EEEEE5beginB7v160006Ev, symObjAddr: 0xCF0, symBinAddr: 0x10001C910, symSize: 0x30 }
  - { offsetInCU: 0x1F57E, offset: 0x84886, size: 0x8, addend: 0x0, symName: __ZNSt3__113unordered_mapINS_12basic_stringIcNS_11char_traitsIcEENS_9allocatorIcEEEE12VolDecoratorNS_4hashIS6_EENS_8equal_toIS6_EENS4_INS_4pairIKS6_S7_EEEEE3endB7v160006Ev, symObjAddr: 0xD20, symBinAddr: 0x10001C940, symSize: 0x30 }
  - { offsetInCU: 0x1F5A4, offset: 0x848AC, size: 0x8, addend: 0x0, symName: __ZNKSt3__119__hash_map_iteratorINS_15__hash_iteratorIPNS_11__hash_nodeINS_17__hash_value_typeINS_12basic_stringIcNS_11char_traitsIcEENS_9allocatorIcEEEE12VolDecoratorEEPvEEEEEdeB7v160006Ev, symObjAddr: 0xD80, symBinAddr: 0x10001C9A0, symSize: 0x30 }
  - { offsetInCU: 0x1F5CA, offset: 0x848D2, size: 0x8, addend: 0x0, symName: __ZNK12VolDecorator14getVolMarketUpEv, symObjAddr: 0xDB0, symBinAddr: 0x10001C9D0, symSize: 0x20 }
  - { offsetInCU: 0x1F5F0, offset: 0x848F8, size: 0x8, addend: 0x0, symName: __ZNK12VolDecorator16getVolMarketDownEv, symObjAddr: 0xE00, symBinAddr: 0x10001C9F0, symSize: 0x20 }
  - { offsetInCU: 0x1F616, offset: 0x8491E, size: 0x8, addend: 0x0, symName: __ZNSt3__119__hash_map_iteratorINS_15__hash_iteratorIPNS_11__hash_nodeINS_17__hash_value_typeINS_12basic_stringIcNS_11char_traitsIcEENS_9allocatorIcEEEE12VolDecoratorEEPvEEEEEppB7v160006Ev, symObjAddr: 0xE20, symBinAddr: 0x10001CA10, symSize: 0x30 }
  - { offsetInCU: 0x1F63C, offset: 0x84944, size: 0x8, addend: 0x0, symName: __ZNSt3__113unordered_mapINS_12basic_stringIcNS_11char_traitsIcEENS_9allocatorIcEEEE14PriceDecoratorNS_4hashIS6_EENS_8equal_toIS6_EENS4_INS_4pairIKS6_S7_EEEEE5beginB7v160006Ev, symObjAddr: 0xE50, symBinAddr: 0x10001CA40, symSize: 0x30 }
  - { offsetInCU: 0x1F662, offset: 0x8496A, size: 0x8, addend: 0x0, symName: __ZNSt3__113unordered_mapINS_12basic_stringIcNS_11char_traitsIcEENS_9allocatorIcEEEE14PriceDecoratorNS_4hashIS6_EENS_8equal_toIS6_EENS4_INS_4pairIKS6_S7_EEEEE3endB7v160006Ev, symObjAddr: 0xE80, symBinAddr: 0x10001CA70, symSize: 0x30 }
  - { offsetInCU: 0x1F688, offset: 0x84990, size: 0x8, addend: 0x0, symName: __ZNKSt3__119__hash_map_iteratorINS_15__hash_iteratorIPNS_11__hash_nodeINS_17__hash_value_typeINS_12basic_stringIcNS_11char_traitsIcEENS_9allocatorIcEEEE14PriceDecoratorEEPvEEEEEdeB7v160006Ev, symObjAddr: 0xEE0, symBinAddr: 0x10001CAD0, symSize: 0x30 }
  - { offsetInCU: 0x1F6AE, offset: 0x849B6, size: 0x8, addend: 0x0, symName: __ZNK14PriceDecorator9getMarketEv, symObjAddr: 0xF10, symBinAddr: 0x10001CB00, symSize: 0x20 }
  - { offsetInCU: 0x1F6D4, offset: 0x849DC, size: 0x8, addend: 0x0, symName: __ZNSt3__119__hash_map_iteratorINS_15__hash_iteratorIPNS_11__hash_nodeINS_17__hash_value_typeINS_12basic_stringIcNS_11char_traitsIcEENS_9allocatorIcEEEE14PriceDecoratorEEPvEEEEEppB7v160006Ev, symObjAddr: 0xF30, symBinAddr: 0x10001CB20, symSize: 0x30 }
  - { offsetInCU: 0x1F6FA, offset: 0x84A02, size: 0x8, addend: 0x0, symName: __ZNSt3__16vectorINS_6futureINS_4pairINS_12basic_stringIcNS_11char_traitsIcEENS_9allocatorIcEEEEdEEEENS6_ISA_EEEC1B7v160006Ev, symObjAddr: 0xF60, symBinAddr: 0x10001CB50, symSize: 0x20 }
  - { offsetInCU: 0x1F724, offset: 0x84A2C, size: 0x8, addend: 0x0, symName: __ZNSt3__16vectorINS_6futureINS_4pairINS_12basic_stringIcNS_11char_traitsIcEENS_9allocatorIcEEEEdEEEENS6_ISA_EEE9push_backB7v160006EOSA_, symObjAddr: 0xF80, symBinAddr: 0x10001CB70, symSize: 0x60 }
  - { offsetInCU: 0x1F75B, offset: 0x84A63, size: 0x8, addend: 0x0, symName: __ZNSt3__16futureINS_4pairINS_12basic_stringIcNS_11char_traitsIcEENS_9allocatorIcEEEEdEEED1Ev, symObjAddr: 0x13C0, symBinAddr: 0x10001CFB0, symSize: 0x20 }
  - { offsetInCU: 0x1F787, offset: 0x84A8F, size: 0x8, addend: 0x0, symName: __ZNSt3__16vectorINS_6futureINS_4pairINS_12basic_stringIcNS_11char_traitsIcEENS_9allocatorIcEEEEdEEEENS6_ISA_EEE5beginB7v160006Ev, symObjAddr: 0x13E0, symBinAddr: 0x10001CFD0, symSize: 0x30 }
  - { offsetInCU: 0x1F7AF, offset: 0x84AB7, size: 0x8, addend: 0x0, symName: __ZNSt3__16vectorINS_6futureINS_4pairINS_12basic_stringIcNS_11char_traitsIcEENS_9allocatorIcEEEEdEEEENS6_ISA_EEE3endB7v160006Ev, symObjAddr: 0x1410, symBinAddr: 0x10001D000, symSize: 0x30 }
  - { offsetInCU: 0x1F7D7, offset: 0x84ADF, size: 0x8, addend: 0x0, symName: __ZNKSt3__111__wrap_iterIPNS_6futureINS_4pairINS_12basic_stringIcNS_11char_traitsIcEENS_9allocatorIcEEEEdEEEEEdeB7v160006Ev, symObjAddr: 0x1470, symBinAddr: 0x10001D060, symSize: 0x20 }
  - { offsetInCU: 0x1F7FD, offset: 0x84B05, size: 0x8, addend: 0x0, symName: __ZNSt3__16futureINS_4pairINS_12basic_stringIcNS_11char_traitsIcEENS_9allocatorIcEEEEdEEE3getEv, symObjAddr: 0x1490, symBinAddr: 0x10001D080, symSize: 0x90 }
  - { offsetInCU: 0x1F843, offset: 0x84B4B, size: 0x8, addend: 0x0, symName: __ZNSt3__13mapINS_12basic_stringIcNS_11char_traitsIcEENS_9allocatorIcEEEEdNS_4lessIS6_EENS4_INS_4pairIKS6_dEEEEE7emplaceB7v160006IJRNS9_IS6_dEEEEENS9_INS_14__map_iteratorINS_15__tree_iteratorINS_12__value_typeIS6_dEEPNS_11__tree_nodeISK_PvEElEEEEbEEDpOT_, symObjAddr: 0x1520, symBinAddr: 0x10001D110, symSize: 0x40 }
  - { offsetInCU: 0x1F883, offset: 0x84B8B, size: 0x8, addend: 0x0, symName: __ZNSt3__14pairINS_12basic_stringIcNS_11char_traitsIcEENS_9allocatorIcEEEEdED1Ev, symObjAddr: 0x1560, symBinAddr: 0x10001D150, symSize: 0x20 }
  - { offsetInCU: 0x1F8AF, offset: 0x84BB7, size: 0x8, addend: 0x0, symName: __ZNSt3__111__wrap_iterIPNS_6futureINS_4pairINS_12basic_stringIcNS_11char_traitsIcEENS_9allocatorIcEEEEdEEEEEppB7v160006Ev, symObjAddr: 0x1580, symBinAddr: 0x10001D170, symSize: 0x20 }
  - { offsetInCU: 0x1F8D5, offset: 0x84BDD, size: 0x8, addend: 0x0, symName: __ZNSt3__16vectorINS_6futureINS_4pairINS_12basic_stringIcNS_11char_traitsIcEENS_9allocatorIcEEEEdEEEENS6_ISA_EEED1B7v160006Ev, symObjAddr: 0x15A0, symBinAddr: 0x10001D190, symSize: 0x20 }
  - { offsetInCU: 0x1F940, offset: 0x84C48, size: 0x8, addend: 0x0, symName: __ZNKSt3__111__wrap_iterIPNS_6futureINS_4pairINS_12basic_stringIcNS_11char_traitsIcEENS_9allocatorIcEEEEdEEEEE4baseB7v160006Ev, symObjAddr: 0x7E10, symBinAddr: 0x10001D1F0, symSize: 0x20 }
  - { offsetInCU: 0x1F966, offset: 0x84C6E, size: 0x8, addend: 0x0, symName: __ZNSt3__14pairINS_12basic_stringIcNS_11char_traitsIcEENS_9allocatorIcEEEEdED2Ev, symObjAddr: 0x7E30, symBinAddr: 0x10001D210, symSize: 0x20 }
  - { offsetInCU: 0x1F992, offset: 0x84C9A, size: 0x8, addend: 0x0, symName: __ZNSt3__16__treeINS_12__value_typeINS_12basic_stringIcNS_11char_traitsIcEENS_9allocatorIcEEEEdEENS_19__map_value_compareIS7_S8_NS_4lessIS7_EELb1EEENS5_IS8_EEE5clearEv, symObjAddr: 0x7E50, symBinAddr: 0x10001D230, symSize: 0x70 }
  - { offsetInCU: 0x1F9BA, offset: 0x84CC2, size: 0x8, addend: 0x0, symName: __ZNSt3__16__treeINS_12__value_typeINS_12basic_stringIcNS_11char_traitsIcEENS_9allocatorIcEEEEdEENS_19__map_value_compareIS7_S8_NS_4lessIS7_EELb1EEENS5_IS8_EEE7destroyEPNS_11__tree_nodeIS8_PvEE, symObjAddr: 0x7EC0, symBinAddr: 0x10001D2A0, symSize: 0xB0 }
  - { offsetInCU: 0x1FA06, offset: 0x84D0E, size: 0x8, addend: 0x0, symName: __ZNKSt3__16__treeINS_12__value_typeINS_12basic_stringIcNS_11char_traitsIcEENS_9allocatorIcEEEEdEENS_19__map_value_compareIS7_S8_NS_4lessIS7_EELb1EEENS5_IS8_EEE6__rootB7v160006Ev, symObjAddr: 0x7F70, symBinAddr: 0x10001D350, symSize: 0x20 }
  - { offsetInCU: 0x1FA2C, offset: 0x84D34, size: 0x8, addend: 0x0, symName: __ZNSt3__16__treeINS_12__value_typeINS_12basic_stringIcNS_11char_traitsIcEENS_9allocatorIcEEEEdEENS_19__map_value_compareIS7_S8_NS_4lessIS7_EELb1EEENS5_IS8_EEE4sizeB7v160006Ev, symObjAddr: 0x7F90, symBinAddr: 0x10001D370, symSize: 0x20 }
  - { offsetInCU: 0x1FA52, offset: 0x84D5A, size: 0x8, addend: 0x0, symName: __ZNSt3__16__treeINS_12__value_typeINS_12basic_stringIcNS_11char_traitsIcEENS_9allocatorIcEEEEdEENS_19__map_value_compareIS7_S8_NS_4lessIS7_EELb1EEENS5_IS8_EEE10__end_nodeB7v160006Ev, symObjAddr: 0x7FB0, symBinAddr: 0x10001D390, symSize: 0x30 }
  - { offsetInCU: 0x1FA78, offset: 0x84D80, size: 0x8, addend: 0x0, symName: __ZNSt3__16__treeINS_12__value_typeINS_12basic_stringIcNS_11char_traitsIcEENS_9allocatorIcEEEEdEENS_19__map_value_compareIS7_S8_NS_4lessIS7_EELb1EEENS5_IS8_EEE12__begin_nodeB7v160006Ev, symObjAddr: 0x7FE0, symBinAddr: 0x10001D3C0, symSize: 0x10 }
  - { offsetInCU: 0x1FA9E, offset: 0x84DA6, size: 0x8, addend: 0x0, symName: __ZNSt3__16__treeINS_12__value_typeINS_12basic_stringIcNS_11char_traitsIcEENS_9allocatorIcEEEEdEENS_19__map_value_compareIS7_S8_NS_4lessIS7_EELb1EEENS5_IS8_EEE12__node_allocB7v160006Ev, symObjAddr: 0x7FF0, symBinAddr: 0x10001D3D0, symSize: 0x20 }
  - { offsetInCU: 0x1FAC4, offset: 0x84DCC, size: 0x8, addend: 0x0, symName: __ZNSt3__116allocator_traitsINS_9allocatorINS_11__tree_nodeINS_12__value_typeINS_12basic_stringIcNS_11char_traitsIcEENS1_IcEEEEdEEPvEEEEE7destroyB7v160006INS_4pairIKS8_dEEvvEEvRSC_PT_, symObjAddr: 0x8010, symBinAddr: 0x10001D3F0, symSize: 0x20 }
  - { offsetInCU: 0x1FAFE, offset: 0x84E06, size: 0x8, addend: 0x0, symName: __ZNSt3__122__tree_key_value_typesINS_12__value_typeINS_12basic_stringIcNS_11char_traitsIcEENS_9allocatorIcEEEEdEEE9__get_ptrB7v160006ERS8_, symObjAddr: 0x8030, symBinAddr: 0x10001D410, symSize: 0x20 }
  - { offsetInCU: 0x1FB22, offset: 0x84E2A, size: 0x8, addend: 0x0, symName: __ZNSt3__116allocator_traitsINS_9allocatorINS_11__tree_nodeINS_12__value_typeINS_12basic_stringIcNS_11char_traitsIcEENS1_IcEEEEdEEPvEEEEE10deallocateB7v160006ERSC_PSB_m, symObjAddr: 0x8050, symBinAddr: 0x10001D430, symSize: 0x30 }
  - { offsetInCU: 0x1FB64, offset: 0x84E6C, size: 0x8, addend: 0x0, symName: __ZNSt3__117__compressed_pairINS_15__tree_end_nodeIPNS_16__tree_node_baseIPvEEEENS_9allocatorINS_11__tree_nodeINS_12__value_typeINS_12basic_stringIcNS_11char_traitsIcEENS7_IcEEEEdEES3_EEEEE6secondB7v160006Ev, symObjAddr: 0x8080, symBinAddr: 0x10001D460, symSize: 0x20 }
  - { offsetInCU: 0x1FB8A, offset: 0x84E92, size: 0x8, addend: 0x0, symName: __ZNSt3__122__compressed_pair_elemINS_9allocatorINS_11__tree_nodeINS_12__value_typeINS_12basic_stringIcNS_11char_traitsIcEENS1_IcEEEEdEEPvEEEELi1ELb1EE5__getB7v160006Ev, symObjAddr: 0x80A0, symBinAddr: 0x10001D480, symSize: 0x10 }
  - { offsetInCU: 0x1FBB0, offset: 0x84EB8, size: 0x8, addend: 0x0, symName: __ZNSt3__112__value_typeINS_12basic_stringIcNS_11char_traitsIcEENS_9allocatorIcEEEEdE11__get_valueB7v160006Ev, symObjAddr: 0x80B0, symBinAddr: 0x10001D490, symSize: 0x20 }
  - { offsetInCU: 0x1FBD6, offset: 0x84EDE, size: 0x8, addend: 0x0, symName: __ZNSt3__19allocatorINS_11__tree_nodeINS_12__value_typeINS_12basic_stringIcNS_11char_traitsIcEENS0_IcEEEEdEEPvEEE10deallocateB7v160006EPSA_m, symObjAddr: 0x80D0, symBinAddr: 0x10001D4B0, symSize: 0x40 }
  - { offsetInCU: 0x1FC18, offset: 0x84F20, size: 0x8, addend: 0x0, symName: __ZNKSt3__16__treeINS_12__value_typeINS_12basic_stringIcNS_11char_traitsIcEENS_9allocatorIcEEEEdEENS_19__map_value_compareIS7_S8_NS_4lessIS7_EELb1EEENS5_IS8_EEE10__end_nodeB7v160006Ev, symObjAddr: 0x8110, symBinAddr: 0x10001D4F0, symSize: 0x30 }
  - { offsetInCU: 0x1FC3E, offset: 0x84F46, size: 0x8, addend: 0x0, symName: __ZNSt3__114pointer_traitsIPNS_15__tree_end_nodeIPNS_16__tree_node_baseIPvEEEEE10pointer_toB7v160006ERS6_, symObjAddr: 0x8140, symBinAddr: 0x10001D520, symSize: 0x10 }
  - { offsetInCU: 0x1FC61, offset: 0x84F69, size: 0x8, addend: 0x0, symName: __ZNKSt3__117__compressed_pairINS_15__tree_end_nodeIPNS_16__tree_node_baseIPvEEEENS_9allocatorINS_11__tree_nodeINS_12__value_typeINS_12basic_stringIcNS_11char_traitsIcEENS7_IcEEEEdEES3_EEEEE5firstB7v160006Ev, symObjAddr: 0x8150, symBinAddr: 0x10001D530, symSize: 0x20 }
  - { offsetInCU: 0x1FC87, offset: 0x84F8F, size: 0x8, addend: 0x0, symName: __ZNKSt3__122__compressed_pair_elemINS_15__tree_end_nodeIPNS_16__tree_node_baseIPvEEEELi0ELb0EE5__getB7v160006Ev, symObjAddr: 0x8170, symBinAddr: 0x10001D550, symSize: 0x10 }
  - { offsetInCU: 0x1FCAD, offset: 0x84FB5, size: 0x8, addend: 0x0, symName: __ZNSt3__117__compressed_pairImNS_19__map_value_compareINS_12basic_stringIcNS_11char_traitsIcEENS_9allocatorIcEEEENS_12__value_typeIS7_dEENS_4lessIS7_EELb1EEEE5firstB7v160006Ev, symObjAddr: 0x8180, symBinAddr: 0x10001D560, symSize: 0x20 }
  - { offsetInCU: 0x1FCD3, offset: 0x84FDB, size: 0x8, addend: 0x0, symName: __ZNSt3__117__compressed_pairINS_15__tree_end_nodeIPNS_16__tree_node_baseIPvEEEENS_9allocatorINS_11__tree_nodeINS_12__value_typeINS_12basic_stringIcNS_11char_traitsIcEENS7_IcEEEEdEES3_EEEEE5firstB7v160006Ev, symObjAddr: 0x81A0, symBinAddr: 0x10001D580, symSize: 0x20 }
  - { offsetInCU: 0x1FCF9, offset: 0x85001, size: 0x8, addend: 0x0, symName: __ZNSt3__122__compressed_pair_elemINS_15__tree_end_nodeIPNS_16__tree_node_baseIPvEEEELi0ELb0EE5__getB7v160006Ev, symObjAddr: 0x81C0, symBinAddr: 0x10001D5A0, symSize: 0x10 }
  - { offsetInCU: 0x1FD1F, offset: 0x85027, size: 0x8, addend: 0x0, symName: __ZNSt3__112__hash_tableINS_17__hash_value_typeINS_12basic_stringIcNS_11char_traitsIcEENS_9allocatorIcEEEE14CurveDecoratorEENS_22__unordered_map_hasherIS7_S9_NS_4hashIS7_EENS_8equal_toIS7_EELb1EEENS_21__unordered_map_equalIS7_S9_SE_SC_Lb1EEENS5_IS9_EEE5beginEv, symObjAddr: 0x81D0, symBinAddr: 0x10001D5B0, symSize: 0x40 }
  - { offsetInCU: 0x1FD47, offset: 0x8504F, size: 0x8, addend: 0x0, symName: __ZNSt3__119__hash_map_iteratorINS_15__hash_iteratorIPNS_11__hash_nodeINS_17__hash_value_typeINS_12basic_stringIcNS_11char_traitsIcEENS_9allocatorIcEEEE14CurveDecoratorEEPvEEEEEC1B7v160006ESF_, symObjAddr: 0x8210, symBinAddr: 0x10001D5F0, symSize: 0x30 }
  - { offsetInCU: 0x1FD80, offset: 0x85088, size: 0x8, addend: 0x0, symName: __ZNSt3__117__compressed_pairINS_16__hash_node_baseIPNS_11__hash_nodeINS_17__hash_value_typeINS_12basic_stringIcNS_11char_traitsIcEENS_9allocatorIcEEEE14CurveDecoratorEEPvEEEENS7_ISD_EEE5firstB7v160006Ev, symObjAddr: 0x8240, symBinAddr: 0x10001D620, symSize: 0x20 }
  - { offsetInCU: 0x1FDA6, offset: 0x850AE, size: 0x8, addend: 0x0, symName: __ZNSt3__115__hash_iteratorIPNS_11__hash_nodeINS_17__hash_value_typeINS_12basic_stringIcNS_11char_traitsIcEENS_9allocatorIcEEEE14CurveDecoratorEEPvEEEC1B7v160006EPNS_16__hash_node_baseISD_EEPKv, symObjAddr: 0x8260, symBinAddr: 0x10001D640, symSize: 0x30 }
  - { offsetInCU: 0x1FDEE, offset: 0x850F6, size: 0x8, addend: 0x0, symName: __ZNSt3__122__compressed_pair_elemINS_16__hash_node_baseIPNS_11__hash_nodeINS_17__hash_value_typeINS_12basic_stringIcNS_11char_traitsIcEENS_9allocatorIcEEEE14CurveDecoratorEEPvEEEELi0ELb0EE5__getB7v160006Ev, symObjAddr: 0x8290, symBinAddr: 0x10001D670, symSize: 0x10 }
  - { offsetInCU: 0x1FE14, offset: 0x8511C, size: 0x8, addend: 0x0, symName: __ZNSt3__115__hash_iteratorIPNS_11__hash_nodeINS_17__hash_value_typeINS_12basic_stringIcNS_11char_traitsIcEENS_9allocatorIcEEEE14CurveDecoratorEEPvEEEC2B7v160006EPNS_16__hash_node_baseISD_EEPKv, symObjAddr: 0x82A0, symBinAddr: 0x10001D680, symSize: 0x20 }
  - { offsetInCU: 0x1FE5C, offset: 0x85164, size: 0x8, addend: 0x0, symName: __ZNSt3__119__hash_map_iteratorINS_15__hash_iteratorIPNS_11__hash_nodeINS_17__hash_value_typeINS_12basic_stringIcNS_11char_traitsIcEENS_9allocatorIcEEEE14CurveDecoratorEEPvEEEEEC2B7v160006ESF_, symObjAddr: 0x82C0, symBinAddr: 0x10001D6A0, symSize: 0x20 }
  - { offsetInCU: 0x1FE95, offset: 0x8519D, size: 0x8, addend: 0x0, symName: __ZNSt3__112__hash_tableINS_17__hash_value_typeINS_12basic_stringIcNS_11char_traitsIcEENS_9allocatorIcEEEE14CurveDecoratorEENS_22__unordered_map_hasherIS7_S9_NS_4hashIS7_EENS_8equal_toIS7_EELb1EEENS_21__unordered_map_equalIS7_S9_SE_SC_Lb1EEENS5_IS9_EEE3endEv, symObjAddr: 0x82E0, symBinAddr: 0x10001D6C0, symSize: 0x30 }
  - { offsetInCU: 0x1FEBD, offset: 0x851C5, size: 0x8, addend: 0x0, symName: __ZNSt3__115__hash_iteratorIPNS_11__hash_nodeINS_17__hash_value_typeINS_12basic_stringIcNS_11char_traitsIcEENS_9allocatorIcEEEE14CurveDecoratorEEPvEEEppB7v160006Ev, symObjAddr: 0x8370, symBinAddr: 0x10001D750, symSize: 0x20 }
  - { offsetInCU: 0x1FEE3, offset: 0x851EB, size: 0x8, addend: 0x0, symName: __ZNKSt3__115__hash_iteratorIPNS_11__hash_nodeINS_17__hash_value_typeINS_12basic_stringIcNS_11char_traitsIcEENS_9allocatorIcEEEE14CurveDecoratorEEPvEEEptB7v160006Ev, symObjAddr: 0x8390, symBinAddr: 0x10001D770, symSize: 0x30 }
  - { offsetInCU: 0x1FF09, offset: 0x85211, size: 0x8, addend: 0x0, symName: __ZNSt3__117__hash_value_typeINS_12basic_stringIcNS_11char_traitsIcEENS_9allocatorIcEEEE14CurveDecoratorE11__get_valueB7v160006Ev, symObjAddr: 0x83C0, symBinAddr: 0x10001D7A0, symSize: 0x20 }
  - { offsetInCU: 0x1FF2F, offset: 0x85237, size: 0x8, addend: 0x0, symName: __ZNSt3__114pointer_traitsIPNS_17__hash_value_typeINS_12basic_stringIcNS_11char_traitsIcEENS_9allocatorIcEEEE14CurveDecoratorEEE10pointer_toB7v160006ERS9_, symObjAddr: 0x83E0, symBinAddr: 0x10001D7C0, symSize: 0x10 }
  - { offsetInCU: 0x1FF52, offset: 0x8525A, size: 0x8, addend: 0x0, symName: __ZNSt3__116__hash_node_baseIPNS_11__hash_nodeINS_17__hash_value_typeINS_12basic_stringIcNS_11char_traitsIcEENS_9allocatorIcEEEE14CurveDecoratorEEPvEEE8__upcastB7v160006Ev, symObjAddr: 0x83F0, symBinAddr: 0x10001D7D0, symSize: 0x20 }
  - { offsetInCU: 0x1FF78, offset: 0x85280, size: 0x8, addend: 0x0, symName: __ZNSt3__114pointer_traitsIPNS_16__hash_node_baseIPNS_11__hash_nodeINS_17__hash_value_typeINS_12basic_stringIcNS_11char_traitsIcEENS_9allocatorIcEEEE14CurveDecoratorEEPvEEEEE10pointer_toB7v160006ERSF_, symObjAddr: 0x8410, symBinAddr: 0x10001D7F0, symSize: 0x10 }
  - { offsetInCU: 0x1FF9B, offset: 0x852A3, size: 0x8, addend: 0x0, symName: __ZNSt3__16__treeINS_12__value_typeINS_12basic_stringIcNS_11char_traitsIcEENS_9allocatorIcEEEEdEENS_19__map_value_compareIS7_S8_NS_4lessIS7_EELb1EEENS5_IS8_EEE16__emplace_uniqueB7v160006IRS7_RdEENS_9enable_ifIXsr21__can_extract_map_keyIT_S7_NS_4pairIKS7_dEEEE5valueENSK_INS_15__tree_iteratorIS8_PNS_11__tree_nodeIS8_PvEElEEbEEE4typeEOSJ_OT0_, symObjAddr: 0x8450, symBinAddr: 0x10001D830, symSize: 0x40 }
  - { offsetInCU: 0x1FFF1, offset: 0x852F9, size: 0x8, addend: 0x0, symName: __ZNSt3__14pairINS_14__map_iteratorINS_15__tree_iteratorINS_12__value_typeINS_12basic_stringIcNS_11char_traitsIcEENS_9allocatorIcEEEEdEEPNS_11__tree_nodeISA_PvEElEEEEbEC1B7v160006ISF_bLSC_0EEEONS0_IT_T0_EE, symObjAddr: 0x8490, symBinAddr: 0x10001D870, symSize: 0x30 }
  - { offsetInCU: 0x20042, offset: 0x8534A, size: 0x8, addend: 0x0, symName: __ZNSt3__16__treeINS_12__value_typeINS_12basic_stringIcNS_11char_traitsIcEENS_9allocatorIcEEEEdEENS_19__map_value_compareIS7_S8_NS_4lessIS7_EELb1EEENS5_IS8_EEE25__emplace_unique_key_argsIS7_JRS7_RdEEENS_4pairINS_15__tree_iteratorIS8_PNS_11__tree_nodeIS8_PvEElEEbEERKT_DpOT0_, symObjAddr: 0x84C0, symBinAddr: 0x10001D8A0, symSize: 0xF0 }
  - { offsetInCU: 0x2010C, offset: 0x85414, size: 0x8, addend: 0x0, symName: __ZNSt3__16__treeINS_12__value_typeINS_12basic_stringIcNS_11char_traitsIcEENS_9allocatorIcEEEEdEENS_19__map_value_compareIS7_S8_NS_4lessIS7_EELb1EEENS5_IS8_EEE12__find_equalIS7_EERPNS_16__tree_node_baseIPvEERPNS_15__tree_end_nodeISJ_EERKT_, symObjAddr: 0x85B0, symBinAddr: 0x10001D990, symSize: 0x180 }
  - { offsetInCU: 0x20179, offset: 0x85481, size: 0x8, addend: 0x0, symName: __ZNSt3__16__treeINS_12__value_typeINS_12basic_stringIcNS_11char_traitsIcEENS_9allocatorIcEEEEdEENS_19__map_value_compareIS7_S8_NS_4lessIS7_EELb1EEENS5_IS8_EEE16__construct_nodeIJRS7_RdEEENS_10unique_ptrINS_11__tree_nodeIS8_PvEENS_22__tree_node_destructorINS5_ISL_EEEEEEDpOT_, symObjAddr: 0x8730, symBinAddr: 0x10001DB10, symSize: 0x110 }
  - { offsetInCU: 0x201EE, offset: 0x854F6, size: 0x8, addend: 0x0, symName: __ZNSt3__16__treeINS_12__value_typeINS_12basic_stringIcNS_11char_traitsIcEENS_9allocatorIcEEEEdEENS_19__map_value_compareIS7_S8_NS_4lessIS7_EELb1EEENS5_IS8_EEE16__insert_node_atEPNS_15__tree_end_nodeIPNS_16__tree_node_baseIPvEEEERSJ_SJ_, symObjAddr: 0x8840, symBinAddr: 0x10001DC20, symSize: 0xC0 }
  - { offsetInCU: 0x20243, offset: 0x8554B, size: 0x8, addend: 0x0, symName: __ZNKSt3__110unique_ptrINS_11__tree_nodeINS_12__value_typeINS_12basic_stringIcNS_11char_traitsIcEENS_9allocatorIcEEEEdEEPvEENS_22__tree_node_destructorINS6_ISB_EEEEE3getB7v160006Ev, symObjAddr: 0x8900, symBinAddr: 0x10001DCE0, symSize: 0x20 }
  - { offsetInCU: 0x20269, offset: 0x85571, size: 0x8, addend: 0x0, symName: __ZNSt3__110unique_ptrINS_11__tree_nodeINS_12__value_typeINS_12basic_stringIcNS_11char_traitsIcEENS_9allocatorIcEEEEdEEPvEENS_22__tree_node_destructorINS6_ISB_EEEEE7releaseB7v160006Ev, symObjAddr: 0x8920, symBinAddr: 0x10001DD00, symSize: 0x40 }
  - { offsetInCU: 0x2029E, offset: 0x855A6, size: 0x8, addend: 0x0, symName: __ZNSt3__110unique_ptrINS_11__tree_nodeINS_12__value_typeINS_12basic_stringIcNS_11char_traitsIcEENS_9allocatorIcEEEEdEEPvEENS_22__tree_node_destructorINS6_ISB_EEEEED1B7v160006Ev, symObjAddr: 0x8960, symBinAddr: 0x10001DD40, symSize: 0x20 }
  - { offsetInCU: 0x202C8, offset: 0x855D0, size: 0x8, addend: 0x0, symName: __ZNSt3__115__tree_iteratorINS_12__value_typeINS_12basic_stringIcNS_11char_traitsIcEENS_9allocatorIcEEEEdEEPNS_11__tree_nodeIS8_PvEElEC1B7v160006ESC_, symObjAddr: 0x8980, symBinAddr: 0x10001DD60, symSize: 0x30 }
  - { offsetInCU: 0x2030B, offset: 0x85613, size: 0x8, addend: 0x0, symName: __ZNSt3__14pairINS_15__tree_iteratorINS_12__value_typeINS_12basic_stringIcNS_11char_traitsIcEENS_9allocatorIcEEEEdEEPNS_11__tree_nodeIS9_PvEElEEbEC1B7v160006ISE_RbLSB_0EEEOT_OT0_, symObjAddr: 0x89B0, symBinAddr: 0x10001DD90, symSize: 0x30 }
  - { offsetInCU: 0x20369, offset: 0x85671, size: 0x8, addend: 0x0, symName: __ZNKSt3__16__treeINS_12__value_typeINS_12basic_stringIcNS_11char_traitsIcEENS_9allocatorIcEEEEdEENS_19__map_value_compareIS7_S8_NS_4lessIS7_EELb1EEENS5_IS8_EEE10__root_ptrEv, symObjAddr: 0x89E0, symBinAddr: 0x10001DDC0, symSize: 0x20 }
  - { offsetInCU: 0x2038F, offset: 0x85697, size: 0x8, addend: 0x0, symName: __ZNSt3__16__treeINS_12__value_typeINS_12basic_stringIcNS_11char_traitsIcEENS_9allocatorIcEEEEdEENS_19__map_value_compareIS7_S8_NS_4lessIS7_EELb1EEENS5_IS8_EEE10value_compB7v160006Ev, symObjAddr: 0x8A00, symBinAddr: 0x10001DDE0, symSize: 0x20 }
  - { offsetInCU: 0x203B5, offset: 0x856BD, size: 0x8, addend: 0x0, symName: __ZNKSt3__119__map_value_compareINS_12basic_stringIcNS_11char_traitsIcEENS_9allocatorIcEEEENS_12__value_typeIS6_dEENS_4lessIS6_EELb1EEclB7v160006ERKS6_RKS8_, symObjAddr: 0x8A20, symBinAddr: 0x10001DE00, symSize: 0x50 }
  - { offsetInCU: 0x203F9, offset: 0x85701, size: 0x8, addend: 0x0, symName: __ZNKSt3__119__map_value_compareINS_12basic_stringIcNS_11char_traitsIcEENS_9allocatorIcEEEENS_12__value_typeIS6_dEENS_4lessIS6_EELb1EEclB7v160006ERKS8_RKS6_, symObjAddr: 0x8A70, symBinAddr: 0x10001DE50, symSize: 0x40 }
  - { offsetInCU: 0x2043D, offset: 0x85745, size: 0x8, addend: 0x0, symName: __ZNSt3__117__compressed_pairImNS_19__map_value_compareINS_12basic_stringIcNS_11char_traitsIcEENS_9allocatorIcEEEENS_12__value_typeIS7_dEENS_4lessIS7_EELb1EEEE6secondB7v160006Ev, symObjAddr: 0x8AB0, symBinAddr: 0x10001DE90, symSize: 0x20 }
  - { offsetInCU: 0x20463, offset: 0x8576B, size: 0x8, addend: 0x0, symName: __ZNSt3__122__compressed_pair_elemINS_19__map_value_compareINS_12basic_stringIcNS_11char_traitsIcEENS_9allocatorIcEEEENS_12__value_typeIS7_dEENS_4lessIS7_EELb1EEELi1ELb1EE5__getB7v160006Ev, symObjAddr: 0x8AD0, symBinAddr: 0x10001DEB0, symSize: 0x10 }
  - { offsetInCU: 0x20489, offset: 0x85791, size: 0x8, addend: 0x0, symName: __ZNKSt3__14lessINS_12basic_stringIcNS_11char_traitsIcEENS_9allocatorIcEEEEEclB7v160006ERKS6_S9_, symObjAddr: 0x8AE0, symBinAddr: 0x10001DEC0, symSize: 0x30 }
  - { offsetInCU: 0x204CD, offset: 0x857D5, size: 0x8, addend: 0x0, symName: __ZNKSt3__112__value_typeINS_12basic_stringIcNS_11char_traitsIcEENS_9allocatorIcEEEEdE11__get_valueB7v160006Ev, symObjAddr: 0x8B10, symBinAddr: 0x10001DEF0, symSize: 0x20 }
  - { offsetInCU: 0x204F3, offset: 0x857FB, size: 0x8, addend: 0x0, symName: __ZNKSt3__112basic_stringIcNS_11char_traitsIcEENS_9allocatorIcEEE7compareB7v160006ERKS5_, symObjAddr: 0x8B60, symBinAddr: 0x10001DF40, symSize: 0x40 }
  - { offsetInCU: 0x2052A, offset: 0x85832, size: 0x8, addend: 0x0, symName: __ZNKSt3__112basic_stringIcNS_11char_traitsIcEENS_9allocatorIcEEE7compareINS_17basic_string_viewIcS2_EEEENS_9enable_ifIXsr33__can_be_converted_to_string_viewIcS2_T_EE5valueEiE4typeERKSA_, symObjAddr: 0x8BA0, symBinAddr: 0x10001DF80, symSize: 0xF0 }
  - { offsetInCU: 0x205A7, offset: 0x858AF, size: 0x8, addend: 0x0, symName: __ZNKSt3__112basic_stringIcNS_11char_traitsIcEENS_9allocatorIcEEEcvNS_17basic_string_viewIcS2_EEB7v160006Ev, symObjAddr: 0x8C90, symBinAddr: 0x10001E070, symSize: 0x50 }
  - { offsetInCU: 0x205CD, offset: 0x858D5, size: 0x8, addend: 0x0, symName: __ZNKSt3__117basic_string_viewIcNS_11char_traitsIcEEE4sizeB7v160006Ev, symObjAddr: 0x8CE0, symBinAddr: 0x10001E0C0, symSize: 0x20 }
  - { offsetInCU: 0x205F3, offset: 0x858FB, size: 0x8, addend: 0x0, symName: __ZNKSt3__117basic_string_viewIcNS_11char_traitsIcEEE4dataB7v160006Ev, symObjAddr: 0x8D60, symBinAddr: 0x10001E0E0, symSize: 0x20 }
  - { offsetInCU: 0x20619, offset: 0x85921, size: 0x8, addend: 0x0, symName: __ZNSt3__117basic_string_viewIcNS_11char_traitsIcEEEC1B7v160006EPKcm, symObjAddr: 0x8DB0, symBinAddr: 0x10001E100, symSize: 0x30 }
  - { offsetInCU: 0x20661, offset: 0x85969, size: 0x8, addend: 0x0, symName: __ZNSt3__117basic_string_viewIcNS_11char_traitsIcEEEC2B7v160006EPKcm, symObjAddr: 0x8DE0, symBinAddr: 0x10001E130, symSize: 0x50 }
  - { offsetInCU: 0x206A9, offset: 0x859B1, size: 0x8, addend: 0x0, symName: __ZNSt3__116allocator_traitsINS_9allocatorINS_11__tree_nodeINS_12__value_typeINS_12basic_stringIcNS_11char_traitsIcEENS1_IcEEEEdEEPvEEEEE8allocateB7v160006ERSC_m, symObjAddr: 0x8E30, symBinAddr: 0x10001E180, symSize: 0x30 }
  - { offsetInCU: 0x206DC, offset: 0x859E4, size: 0x8, addend: 0x0, symName: __ZNSt3__122__tree_node_destructorINS_9allocatorINS_11__tree_nodeINS_12__value_typeINS_12basic_stringIcNS_11char_traitsIcEENS1_IcEEEEdEEPvEEEEEC1B7v160006ERSC_b, symObjAddr: 0x8E60, symBinAddr: 0x10001E1B0, symSize: 0x40 }
  - { offsetInCU: 0x20729, offset: 0x85A31, size: 0x8, addend: 0x0, symName: __ZNSt3__110unique_ptrINS_11__tree_nodeINS_12__value_typeINS_12basic_stringIcNS_11char_traitsIcEENS_9allocatorIcEEEEdEEPvEENS_22__tree_node_destructorINS6_ISB_EEEEEC1B7v160006ILb1EvEEPSB_NS_16__dependent_typeINS_27__unique_ptr_deleter_sfinaeISE_EEXT_EE20__good_rval_ref_typeE, symObjAddr: 0x8EA0, symBinAddr: 0x10001E1F0, symSize: 0x30 }
  - { offsetInCU: 0x2077A, offset: 0x85A82, size: 0x8, addend: 0x0, symName: __ZNSt3__116allocator_traitsINS_9allocatorINS_11__tree_nodeINS_12__value_typeINS_12basic_stringIcNS_11char_traitsIcEENS1_IcEEEEdEEPvEEEEE9constructB7v160006INS_4pairIKS8_dEEJRS8_RdEvEEvRSC_PT_DpOT0_, symObjAddr: 0x8ED0, symBinAddr: 0x10001E220, symSize: 0x40 }
  - { offsetInCU: 0x207E5, offset: 0x85AED, size: 0x8, addend: 0x0, symName: __ZNKSt3__110unique_ptrINS_11__tree_nodeINS_12__value_typeINS_12basic_stringIcNS_11char_traitsIcEENS_9allocatorIcEEEEdEEPvEENS_22__tree_node_destructorINS6_ISB_EEEEEptB7v160006Ev, symObjAddr: 0x8F10, symBinAddr: 0x10001E260, symSize: 0x20 }
  - { offsetInCU: 0x2080B, offset: 0x85B13, size: 0x8, addend: 0x0, symName: __ZNSt3__110unique_ptrINS_11__tree_nodeINS_12__value_typeINS_12basic_stringIcNS_11char_traitsIcEENS_9allocatorIcEEEEdEEPvEENS_22__tree_node_destructorINS6_ISB_EEEEE11get_deleterB7v160006Ev, symObjAddr: 0x8F30, symBinAddr: 0x10001E280, symSize: 0x20 }
  - { offsetInCU: 0x20831, offset: 0x85B39, size: 0x8, addend: 0x0, symName: __ZNSt3__19allocatorINS_11__tree_nodeINS_12__value_typeINS_12basic_stringIcNS_11char_traitsIcEENS0_IcEEEEdEEPvEEE8allocateB7v160006Em, symObjAddr: 0x8F50, symBinAddr: 0x10001E2A0, symSize: 0x50 }
  - { offsetInCU: 0x2086F, offset: 0x85B77, size: 0x8, addend: 0x0, symName: __ZNSt3__116allocator_traitsINS_9allocatorINS_11__tree_nodeINS_12__value_typeINS_12basic_stringIcNS_11char_traitsIcEENS1_IcEEEEdEEPvEEEEE8max_sizeB7v160006ISC_vEEmRKSC_, symObjAddr: 0x8FA0, symBinAddr: 0x10001E2F0, symSize: 0x20 }
  - { offsetInCU: 0x2089D, offset: 0x85BA5, size: 0x8, addend: 0x0, symName: __ZNKSt3__19allocatorINS_11__tree_nodeINS_12__value_typeINS_12basic_stringIcNS_11char_traitsIcEENS0_IcEEEEdEEPvEEE8max_sizeB7v160006Ev, symObjAddr: 0x8FC0, symBinAddr: 0x10001E310, symSize: 0x20 }
  - { offsetInCU: 0x208C3, offset: 0x85BCB, size: 0x8, addend: 0x0, symName: __ZNSt3__122__tree_node_destructorINS_9allocatorINS_11__tree_nodeINS_12__value_typeINS_12basic_stringIcNS_11char_traitsIcEENS1_IcEEEEdEEPvEEEEEC2B7v160006ERSC_b, symObjAddr: 0x8FE0, symBinAddr: 0x10001E330, symSize: 0x30 }
  - { offsetInCU: 0x2090B, offset: 0x85C13, size: 0x8, addend: 0x0, symName: __ZNSt3__110unique_ptrINS_11__tree_nodeINS_12__value_typeINS_12basic_stringIcNS_11char_traitsIcEENS_9allocatorIcEEEEdEEPvEENS_22__tree_node_destructorINS6_ISB_EEEEEC2B7v160006ILb1EvEEPSB_NS_16__dependent_typeINS_27__unique_ptr_deleter_sfinaeISE_EEXT_EE20__good_rval_ref_typeE, symObjAddr: 0x9010, symBinAddr: 0x10001E360, symSize: 0x40 }
  - { offsetInCU: 0x2095C, offset: 0x85C64, size: 0x8, addend: 0x0, symName: __ZNSt3__117__compressed_pairIPNS_11__tree_nodeINS_12__value_typeINS_12basic_stringIcNS_11char_traitsIcEENS_9allocatorIcEEEEdEEPvEENS_22__tree_node_destructorINS6_ISB_EEEEEC1B7v160006IRSC_SF_EEOT_OT0_, symObjAddr: 0x9050, symBinAddr: 0x10001E3A0, symSize: 0x30 }
  - { offsetInCU: 0x209B4, offset: 0x85CBC, size: 0x8, addend: 0x0, symName: __ZNSt3__117__compressed_pairIPNS_11__tree_nodeINS_12__value_typeINS_12basic_stringIcNS_11char_traitsIcEENS_9allocatorIcEEEEdEEPvEENS_22__tree_node_destructorINS6_ISB_EEEEEC2B7v160006IRSC_SF_EEOT_OT0_, symObjAddr: 0x9080, symBinAddr: 0x10001E3D0, symSize: 0x40 }
  - { offsetInCU: 0x20A0C, offset: 0x85D14, size: 0x8, addend: 0x0, symName: __ZNSt3__122__compressed_pair_elemIPNS_11__tree_nodeINS_12__value_typeINS_12basic_stringIcNS_11char_traitsIcEENS_9allocatorIcEEEEdEEPvEELi0ELb0EEC2B7v160006IRSC_vEEOT_, symObjAddr: 0x90C0, symBinAddr: 0x10001E410, symSize: 0x20 }
  - { offsetInCU: 0x20A4E, offset: 0x85D56, size: 0x8, addend: 0x0, symName: __ZNSt3__122__compressed_pair_elemINS_22__tree_node_destructorINS_9allocatorINS_11__tree_nodeINS_12__value_typeINS_12basic_stringIcNS_11char_traitsIcEENS2_IcEEEEdEEPvEEEEEELi1ELb0EEC2B7v160006ISE_vEEOT_, symObjAddr: 0x90E0, symBinAddr: 0x10001E430, symSize: 0x30 }
  - { offsetInCU: 0x20A90, offset: 0x85D98, size: 0x8, addend: 0x0, symName: __ZNSt3__19allocatorINS_11__tree_nodeINS_12__value_typeINS_12basic_stringIcNS_11char_traitsIcEENS0_IcEEEEdEEPvEEE9constructB7v160006INS_4pairIKS7_dEEJRS7_RdEEEvPT_DpOT0_, symObjAddr: 0x9110, symBinAddr: 0x10001E460, symSize: 0x30 }
  - { offsetInCU: 0x20AF9, offset: 0x85E01, size: 0x8, addend: 0x0, symName: __ZNSt3__14pairIKNS_12basic_stringIcNS_11char_traitsIcEENS_9allocatorIcEEEEdEC1B7v160006IRS6_RdLPv0EEEOT_OT0_, symObjAddr: 0x9140, symBinAddr: 0x10001E490, symSize: 0x30 }
  - { offsetInCU: 0x20B57, offset: 0x85E5F, size: 0x8, addend: 0x0, symName: __ZNSt3__14pairIKNS_12basic_stringIcNS_11char_traitsIcEENS_9allocatorIcEEEEdEC2B7v160006IRS6_RdLPv0EEEOT_OT0_, symObjAddr: 0x9170, symBinAddr: 0x10001E4C0, symSize: 0x40 }
  - { offsetInCU: 0x20BB5, offset: 0x85EBD, size: 0x8, addend: 0x0, symName: __ZNKSt3__117__compressed_pairIPNS_11__tree_nodeINS_12__value_typeINS_12basic_stringIcNS_11char_traitsIcEENS_9allocatorIcEEEEdEEPvEENS_22__tree_node_destructorINS6_ISB_EEEEE5firstB7v160006Ev, symObjAddr: 0x91B0, symBinAddr: 0x10001E500, symSize: 0x20 }
  - { offsetInCU: 0x20BDB, offset: 0x85EE3, size: 0x8, addend: 0x0, symName: __ZNKSt3__122__compressed_pair_elemIPNS_11__tree_nodeINS_12__value_typeINS_12basic_stringIcNS_11char_traitsIcEENS_9allocatorIcEEEEdEEPvEELi0ELb0EE5__getB7v160006Ev, symObjAddr: 0x91D0, symBinAddr: 0x10001E520, symSize: 0x10 }
  - { offsetInCU: 0x20C01, offset: 0x85F09, size: 0x8, addend: 0x0, symName: __ZNSt3__117__compressed_pairIPNS_11__tree_nodeINS_12__value_typeINS_12basic_stringIcNS_11char_traitsIcEENS_9allocatorIcEEEEdEEPvEENS_22__tree_node_destructorINS6_ISB_EEEEE6secondB7v160006Ev, symObjAddr: 0x91E0, symBinAddr: 0x10001E530, symSize: 0x20 }
  - { offsetInCU: 0x20C27, offset: 0x85F2F, size: 0x8, addend: 0x0, symName: __ZNSt3__122__compressed_pair_elemINS_22__tree_node_destructorINS_9allocatorINS_11__tree_nodeINS_12__value_typeINS_12basic_stringIcNS_11char_traitsIcEENS2_IcEEEEdEEPvEEEEEELi1ELb0EE5__getB7v160006Ev, symObjAddr: 0x9200, symBinAddr: 0x10001E550, symSize: 0x10 }
  - { offsetInCU: 0x20C4D, offset: 0x85F55, size: 0x8, addend: 0x0, symName: __ZNKSt3__116__tree_node_baseIPvE15__parent_unsafeB7v160006Ev, symObjAddr: 0x9530, symBinAddr: 0x10001E880, symSize: 0x20 }
  - { offsetInCU: 0x20C73, offset: 0x85F7B, size: 0x8, addend: 0x0, symName: __ZNSt3__116__tree_node_baseIPvE12__set_parentB7v160006EPS2_, symObjAddr: 0x9710, symBinAddr: 0x10001EA60, symSize: 0x20 }
  - { offsetInCU: 0x20CA8, offset: 0x85FB0, size: 0x8, addend: 0x0, symName: __ZNSt3__117__compressed_pairIPNS_11__tree_nodeINS_12__value_typeINS_12basic_stringIcNS_11char_traitsIcEENS_9allocatorIcEEEEdEEPvEENS_22__tree_node_destructorINS6_ISB_EEEEE5firstB7v160006Ev, symObjAddr: 0x9730, symBinAddr: 0x10001EA80, symSize: 0x20 }
  - { offsetInCU: 0x20CCE, offset: 0x85FD6, size: 0x8, addend: 0x0, symName: __ZNSt3__122__compressed_pair_elemIPNS_11__tree_nodeINS_12__value_typeINS_12basic_stringIcNS_11char_traitsIcEENS_9allocatorIcEEEEdEEPvEELi0ELb0EE5__getB7v160006Ev, symObjAddr: 0x9750, symBinAddr: 0x10001EAA0, symSize: 0x10 }
  - { offsetInCU: 0x20CF4, offset: 0x85FFC, size: 0x8, addend: 0x0, symName: __ZNSt3__110unique_ptrINS_11__tree_nodeINS_12__value_typeINS_12basic_stringIcNS_11char_traitsIcEENS_9allocatorIcEEEEdEEPvEENS_22__tree_node_destructorINS6_ISB_EEEEED2B7v160006Ev, symObjAddr: 0x9760, symBinAddr: 0x10001EAB0, symSize: 0x20 }
  - { offsetInCU: 0x20D1E, offset: 0x86026, size: 0x8, addend: 0x0, symName: __ZNSt3__110unique_ptrINS_11__tree_nodeINS_12__value_typeINS_12basic_stringIcNS_11char_traitsIcEENS_9allocatorIcEEEEdEEPvEENS_22__tree_node_destructorINS6_ISB_EEEEE5resetB7v160006EPSB_, symObjAddr: 0x9780, symBinAddr: 0x10001EAD0, symSize: 0x70 }
  - { offsetInCU: 0x20D62, offset: 0x8606A, size: 0x8, addend: 0x0, symName: __ZNSt3__122__tree_node_destructorINS_9allocatorINS_11__tree_nodeINS_12__value_typeINS_12basic_stringIcNS_11char_traitsIcEENS1_IcEEEEdEEPvEEEEEclB7v160006EPSB_, symObjAddr: 0x97F0, symBinAddr: 0x10001EB40, symSize: 0x80 }
  - { offsetInCU: 0x20D97, offset: 0x8609F, size: 0x8, addend: 0x0, symName: __ZNSt3__115__tree_iteratorINS_12__value_typeINS_12basic_stringIcNS_11char_traitsIcEENS_9allocatorIcEEEEdEEPNS_11__tree_nodeIS8_PvEElEC2B7v160006ESC_, symObjAddr: 0x9870, symBinAddr: 0x10001EBC0, symSize: 0x20 }
  - { offsetInCU: 0x20DD0, offset: 0x860D8, size: 0x8, addend: 0x0, symName: __ZNSt3__14pairINS_15__tree_iteratorINS_12__value_typeINS_12basic_stringIcNS_11char_traitsIcEENS_9allocatorIcEEEEdEEPNS_11__tree_nodeIS9_PvEElEEbEC2B7v160006ISE_RbLSB_0EEEOT_OT0_, symObjAddr: 0x9890, symBinAddr: 0x10001EBE0, symSize: 0x30 }
  - { offsetInCU: 0x20E2E, offset: 0x86136, size: 0x8, addend: 0x0, symName: __ZNSt3__14pairINS_14__map_iteratorINS_15__tree_iteratorINS_12__value_typeINS_12basic_stringIcNS_11char_traitsIcEENS_9allocatorIcEEEEdEEPNS_11__tree_nodeISA_PvEElEEEEbEC2B7v160006ISF_bLSC_0EEEONS0_IT_T0_EE, symObjAddr: 0x98C0, symBinAddr: 0x10001EC10, symSize: 0x50 }
  - { offsetInCU: 0x20E7F, offset: 0x86187, size: 0x8, addend: 0x0, symName: __ZNSt3__114__map_iteratorINS_15__tree_iteratorINS_12__value_typeINS_12basic_stringIcNS_11char_traitsIcEENS_9allocatorIcEEEEdEEPNS_11__tree_nodeIS9_PvEElEEEC1B7v160006ESE_, symObjAddr: 0x9910, symBinAddr: 0x10001EC60, symSize: 0x30 }
  - { offsetInCU: 0x20EB8, offset: 0x861C0, size: 0x8, addend: 0x0, symName: __ZNSt3__114__map_iteratorINS_15__tree_iteratorINS_12__value_typeINS_12basic_stringIcNS_11char_traitsIcEENS_9allocatorIcEEEEdEEPNS_11__tree_nodeIS9_PvEElEEEC2B7v160006ESE_, symObjAddr: 0x9940, symBinAddr: 0x10001EC90, symSize: 0x20 }
  - { offsetInCU: 0x20EF1, offset: 0x861F9, size: 0x8, addend: 0x0, symName: __ZNSt3__112__hash_tableINS_17__hash_value_typeINS_12basic_stringIcNS_11char_traitsIcEENS_9allocatorIcEEEE12VolDecoratorEENS_22__unordered_map_hasherIS7_S9_NS_4hashIS7_EENS_8equal_toIS7_EELb1EEENS_21__unordered_map_equalIS7_S9_SE_SC_Lb1EEENS5_IS9_EEE5beginEv, symObjAddr: 0x9960, symBinAddr: 0x10001ECB0, symSize: 0x40 }
  - { offsetInCU: 0x20F19, offset: 0x86221, size: 0x8, addend: 0x0, symName: __ZNSt3__119__hash_map_iteratorINS_15__hash_iteratorIPNS_11__hash_nodeINS_17__hash_value_typeINS_12basic_stringIcNS_11char_traitsIcEENS_9allocatorIcEEEE12VolDecoratorEEPvEEEEEC1B7v160006ESF_, symObjAddr: 0x99A0, symBinAddr: 0x10001ECF0, symSize: 0x30 }
  - { offsetInCU: 0x20F52, offset: 0x8625A, size: 0x8, addend: 0x0, symName: __ZNSt3__117__compressed_pairINS_16__hash_node_baseIPNS_11__hash_nodeINS_17__hash_value_typeINS_12basic_stringIcNS_11char_traitsIcEENS_9allocatorIcEEEE12VolDecoratorEEPvEEEENS7_ISD_EEE5firstB7v160006Ev, symObjAddr: 0x99D0, symBinAddr: 0x10001ED20, symSize: 0x20 }
  - { offsetInCU: 0x20F78, offset: 0x86280, size: 0x8, addend: 0x0, symName: __ZNSt3__115__hash_iteratorIPNS_11__hash_nodeINS_17__hash_value_typeINS_12basic_stringIcNS_11char_traitsIcEENS_9allocatorIcEEEE12VolDecoratorEEPvEEEC1B7v160006EPNS_16__hash_node_baseISD_EEPKv, symObjAddr: 0x99F0, symBinAddr: 0x10001ED40, symSize: 0x30 }
  - { offsetInCU: 0x20FC0, offset: 0x862C8, size: 0x8, addend: 0x0, symName: __ZNSt3__122__compressed_pair_elemINS_16__hash_node_baseIPNS_11__hash_nodeINS_17__hash_value_typeINS_12basic_stringIcNS_11char_traitsIcEENS_9allocatorIcEEEE12VolDecoratorEEPvEEEELi0ELb0EE5__getB7v160006Ev, symObjAddr: 0x9A20, symBinAddr: 0x10001ED70, symSize: 0x10 }
  - { offsetInCU: 0x20FE6, offset: 0x862EE, size: 0x8, addend: 0x0, symName: __ZNSt3__115__hash_iteratorIPNS_11__hash_nodeINS_17__hash_value_typeINS_12basic_stringIcNS_11char_traitsIcEENS_9allocatorIcEEEE12VolDecoratorEEPvEEEC2B7v160006EPNS_16__hash_node_baseISD_EEPKv, symObjAddr: 0x9A30, symBinAddr: 0x10001ED80, symSize: 0x20 }
  - { offsetInCU: 0x2102E, offset: 0x86336, size: 0x8, addend: 0x0, symName: __ZNSt3__119__hash_map_iteratorINS_15__hash_iteratorIPNS_11__hash_nodeINS_17__hash_value_typeINS_12basic_stringIcNS_11char_traitsIcEENS_9allocatorIcEEEE12VolDecoratorEEPvEEEEEC2B7v160006ESF_, symObjAddr: 0x9A50, symBinAddr: 0x10001EDA0, symSize: 0x20 }
  - { offsetInCU: 0x21067, offset: 0x8636F, size: 0x8, addend: 0x0, symName: __ZNSt3__112__hash_tableINS_17__hash_value_typeINS_12basic_stringIcNS_11char_traitsIcEENS_9allocatorIcEEEE12VolDecoratorEENS_22__unordered_map_hasherIS7_S9_NS_4hashIS7_EENS_8equal_toIS7_EELb1EEENS_21__unordered_map_equalIS7_S9_SE_SC_Lb1EEENS5_IS9_EEE3endEv, symObjAddr: 0x9A70, symBinAddr: 0x10001EDC0, symSize: 0x30 }
  - { offsetInCU: 0x2108F, offset: 0x86397, size: 0x8, addend: 0x0, symName: __ZNSt3__115__hash_iteratorIPNS_11__hash_nodeINS_17__hash_value_typeINS_12basic_stringIcNS_11char_traitsIcEENS_9allocatorIcEEEE12VolDecoratorEEPvEEEppB7v160006Ev, symObjAddr: 0x9B00, symBinAddr: 0x10001EE50, symSize: 0x20 }
  - { offsetInCU: 0x210B5, offset: 0x863BD, size: 0x8, addend: 0x0, symName: __ZNKSt3__115__hash_iteratorIPNS_11__hash_nodeINS_17__hash_value_typeINS_12basic_stringIcNS_11char_traitsIcEENS_9allocatorIcEEEE12VolDecoratorEEPvEEEptB7v160006Ev, symObjAddr: 0x9B20, symBinAddr: 0x10001EE70, symSize: 0x30 }
  - { offsetInCU: 0x210DB, offset: 0x863E3, size: 0x8, addend: 0x0, symName: __ZNSt3__117__hash_value_typeINS_12basic_stringIcNS_11char_traitsIcEENS_9allocatorIcEEEE12VolDecoratorE11__get_valueB7v160006Ev, symObjAddr: 0x9B50, symBinAddr: 0x10001EEA0, symSize: 0x20 }
  - { offsetInCU: 0x21101, offset: 0x86409, size: 0x8, addend: 0x0, symName: __ZNSt3__114pointer_traitsIPNS_17__hash_value_typeINS_12basic_stringIcNS_11char_traitsIcEENS_9allocatorIcEEEE12VolDecoratorEEE10pointer_toB7v160006ERS9_, symObjAddr: 0x9B70, symBinAddr: 0x10001EEC0, symSize: 0x10 }
  - { offsetInCU: 0x21124, offset: 0x8642C, size: 0x8, addend: 0x0, symName: __ZNSt3__116__hash_node_baseIPNS_11__hash_nodeINS_17__hash_value_typeINS_12basic_stringIcNS_11char_traitsIcEENS_9allocatorIcEEEE12VolDecoratorEEPvEEE8__upcastB7v160006Ev, symObjAddr: 0x9B80, symBinAddr: 0x10001EED0, symSize: 0x20 }
  - { offsetInCU: 0x2114A, offset: 0x86452, size: 0x8, addend: 0x0, symName: __ZNSt3__114pointer_traitsIPNS_16__hash_node_baseIPNS_11__hash_nodeINS_17__hash_value_typeINS_12basic_stringIcNS_11char_traitsIcEENS_9allocatorIcEEEE12VolDecoratorEEPvEEEEE10pointer_toB7v160006ERSF_, symObjAddr: 0x9BA0, symBinAddr: 0x10001EEF0, symSize: 0x10 }
  - { offsetInCU: 0x2116D, offset: 0x86475, size: 0x8, addend: 0x0, symName: __ZNSt3__112__hash_tableINS_17__hash_value_typeINS_12basic_stringIcNS_11char_traitsIcEENS_9allocatorIcEEEE14PriceDecoratorEENS_22__unordered_map_hasherIS7_S9_NS_4hashIS7_EENS_8equal_toIS7_EELb1EEENS_21__unordered_map_equalIS7_S9_SE_SC_Lb1EEENS5_IS9_EEE5beginEv, symObjAddr: 0x9BE0, symBinAddr: 0x10001EF30, symSize: 0x40 }
  - { offsetInCU: 0x21195, offset: 0x8649D, size: 0x8, addend: 0x0, symName: __ZNSt3__119__hash_map_iteratorINS_15__hash_iteratorIPNS_11__hash_nodeINS_17__hash_value_typeINS_12basic_stringIcNS_11char_traitsIcEENS_9allocatorIcEEEE14PriceDecoratorEEPvEEEEEC1B7v160006ESF_, symObjAddr: 0x9C20, symBinAddr: 0x10001EF70, symSize: 0x30 }
  - { offsetInCU: 0x211CE, offset: 0x864D6, size: 0x8, addend: 0x0, symName: __ZNSt3__117__compressed_pairINS_16__hash_node_baseIPNS_11__hash_nodeINS_17__hash_value_typeINS_12basic_stringIcNS_11char_traitsIcEENS_9allocatorIcEEEE14PriceDecoratorEEPvEEEENS7_ISD_EEE5firstB7v160006Ev, symObjAddr: 0x9C50, symBinAddr: 0x10001EFA0, symSize: 0x20 }
  - { offsetInCU: 0x211F4, offset: 0x864FC, size: 0x8, addend: 0x0, symName: __ZNSt3__115__hash_iteratorIPNS_11__hash_nodeINS_17__hash_value_typeINS_12basic_stringIcNS_11char_traitsIcEENS_9allocatorIcEEEE14PriceDecoratorEEPvEEEC1B7v160006EPNS_16__hash_node_baseISD_EEPKv, symObjAddr: 0x9C70, symBinAddr: 0x10001EFC0, symSize: 0x30 }
  - { offsetInCU: 0x2123C, offset: 0x86544, size: 0x8, addend: 0x0, symName: __ZNSt3__122__compressed_pair_elemINS_16__hash_node_baseIPNS_11__hash_nodeINS_17__hash_value_typeINS_12basic_stringIcNS_11char_traitsIcEENS_9allocatorIcEEEE14PriceDecoratorEEPvEEEELi0ELb0EE5__getB7v160006Ev, symObjAddr: 0x9CA0, symBinAddr: 0x10001EFF0, symSize: 0x10 }
  - { offsetInCU: 0x21262, offset: 0x8656A, size: 0x8, addend: 0x0, symName: __ZNSt3__115__hash_iteratorIPNS_11__hash_nodeINS_17__hash_value_typeINS_12basic_stringIcNS_11char_traitsIcEENS_9allocatorIcEEEE14PriceDecoratorEEPvEEEC2B7v160006EPNS_16__hash_node_baseISD_EEPKv, symObjAddr: 0x9CB0, symBinAddr: 0x10001F000, symSize: 0x20 }
  - { offsetInCU: 0x212AA, offset: 0x865B2, size: 0x8, addend: 0x0, symName: __ZNSt3__119__hash_map_iteratorINS_15__hash_iteratorIPNS_11__hash_nodeINS_17__hash_value_typeINS_12basic_stringIcNS_11char_traitsIcEENS_9allocatorIcEEEE14PriceDecoratorEEPvEEEEEC2B7v160006ESF_, symObjAddr: 0x9CD0, symBinAddr: 0x10001F020, symSize: 0x20 }
  - { offsetInCU: 0x212E3, offset: 0x865EB, size: 0x8, addend: 0x0, symName: __ZNSt3__112__hash_tableINS_17__hash_value_typeINS_12basic_stringIcNS_11char_traitsIcEENS_9allocatorIcEEEE14PriceDecoratorEENS_22__unordered_map_hasherIS7_S9_NS_4hashIS7_EENS_8equal_toIS7_EELb1EEENS_21__unordered_map_equalIS7_S9_SE_SC_Lb1EEENS5_IS9_EEE3endEv, symObjAddr: 0x9CF0, symBinAddr: 0x10001F040, symSize: 0x30 }
  - { offsetInCU: 0x2130B, offset: 0x86613, size: 0x8, addend: 0x0, symName: __ZNSt3__115__hash_iteratorIPNS_11__hash_nodeINS_17__hash_value_typeINS_12basic_stringIcNS_11char_traitsIcEENS_9allocatorIcEEEE14PriceDecoratorEEPvEEEppB7v160006Ev, symObjAddr: 0x9D80, symBinAddr: 0x10001F0D0, symSize: 0x20 }
  - { offsetInCU: 0x21331, offset: 0x86639, size: 0x8, addend: 0x0, symName: __ZNKSt3__115__hash_iteratorIPNS_11__hash_nodeINS_17__hash_value_typeINS_12basic_stringIcNS_11char_traitsIcEENS_9allocatorIcEEEE14PriceDecoratorEEPvEEEptB7v160006Ev, symObjAddr: 0x9DA0, symBinAddr: 0x10001F0F0, symSize: 0x30 }
  - { offsetInCU: 0x21357, offset: 0x8665F, size: 0x8, addend: 0x0, symName: __ZNSt3__117__hash_value_typeINS_12basic_stringIcNS_11char_traitsIcEENS_9allocatorIcEEEE14PriceDecoratorE11__get_valueB7v160006Ev, symObjAddr: 0x9DD0, symBinAddr: 0x10001F120, symSize: 0x20 }
  - { offsetInCU: 0x2137D, offset: 0x86685, size: 0x8, addend: 0x0, symName: __ZNSt3__114pointer_traitsIPNS_17__hash_value_typeINS_12basic_stringIcNS_11char_traitsIcEENS_9allocatorIcEEEE14PriceDecoratorEEE10pointer_toB7v160006ERS9_, symObjAddr: 0x9DF0, symBinAddr: 0x10001F140, symSize: 0x10 }
  - { offsetInCU: 0x213A0, offset: 0x866A8, size: 0x8, addend: 0x0, symName: __ZNSt3__116__hash_node_baseIPNS_11__hash_nodeINS_17__hash_value_typeINS_12basic_stringIcNS_11char_traitsIcEENS_9allocatorIcEEEE14PriceDecoratorEEPvEEE8__upcastB7v160006Ev, symObjAddr: 0x9E00, symBinAddr: 0x10001F150, symSize: 0x20 }
  - { offsetInCU: 0x213C6, offset: 0x866CE, size: 0x8, addend: 0x0, symName: __ZNSt3__114pointer_traitsIPNS_16__hash_node_baseIPNS_11__hash_nodeINS_17__hash_value_typeINS_12basic_stringIcNS_11char_traitsIcEENS_9allocatorIcEEEE14PriceDecoratorEEPvEEEEE10pointer_toB7v160006ERSF_, symObjAddr: 0x9E20, symBinAddr: 0x10001F170, symSize: 0x10 }
  - { offsetInCU: 0x213E9, offset: 0x866F1, size: 0x8, addend: 0x0, symName: __ZNSt3__16vectorINS_6futureINS_4pairINS_12basic_stringIcNS_11char_traitsIcEENS_9allocatorIcEEEEdEEEENS6_ISA_EEEC2B7v160006Ev, symObjAddr: 0x9E60, symBinAddr: 0x10001F1B0, symSize: 0x60 }
  - { offsetInCU: 0x21413, offset: 0x8671B, size: 0x8, addend: 0x0, symName: __ZNSt3__117__compressed_pairIPNS_6futureINS_4pairINS_12basic_stringIcNS_11char_traitsIcEENS_9allocatorIcEEEEdEEEENS6_ISA_EEEC1B7v160006IDnNS_18__default_init_tagEEEOT_OT0_, symObjAddr: 0x9EC0, symBinAddr: 0x10001F210, symSize: 0x30 }
  - { offsetInCU: 0x2146B, offset: 0x86773, size: 0x8, addend: 0x0, symName: __ZNSt3__117__compressed_pairIPNS_6futureINS_4pairINS_12basic_stringIcNS_11char_traitsIcEENS_9allocatorIcEEEEdEEEENS6_ISA_EEEC2B7v160006IDnNS_18__default_init_tagEEEOT_OT0_, symObjAddr: 0x9F00, symBinAddr: 0x10001F250, symSize: 0x40 }
  - { offsetInCU: 0x214C3, offset: 0x867CB, size: 0x8, addend: 0x0, symName: __ZNSt3__122__compressed_pair_elemIPNS_6futureINS_4pairINS_12basic_stringIcNS_11char_traitsIcEENS_9allocatorIcEEEEdEEEELi0ELb0EEC2B7v160006IDnvEEOT_, symObjAddr: 0x9F40, symBinAddr: 0x10001F290, symSize: 0x20 }
  - { offsetInCU: 0x21505, offset: 0x8680D, size: 0x8, addend: 0x0, symName: __ZNSt3__122__compressed_pair_elemINS_9allocatorINS_6futureINS_4pairINS_12basic_stringIcNS_11char_traitsIcEENS1_IcEEEEdEEEEEELi1ELb1EEC2B7v160006ENS_18__default_init_tagE, symObjAddr: 0x9F60, symBinAddr: 0x10001F2B0, symSize: 0x20 }
  - { offsetInCU: 0x2153A, offset: 0x86842, size: 0x8, addend: 0x0, symName: __ZNSt3__19allocatorINS_6futureINS_4pairINS_12basic_stringIcNS_11char_traitsIcEENS0_IcEEEEdEEEEEC2B7v160006Ev, symObjAddr: 0x9F80, symBinAddr: 0x10001F2D0, symSize: 0x20 }
  - { offsetInCU: 0x21564, offset: 0x8686C, size: 0x8, addend: 0x0, symName: __ZNSt3__116__non_trivial_ifILb1ENS_9allocatorINS_6futureINS_4pairINS_12basic_stringIcNS_11char_traitsIcEENS1_IcEEEEdEEEEEEEC2B7v160006Ev, symObjAddr: 0x9FA0, symBinAddr: 0x10001F2F0, symSize: 0x10 }
  - { offsetInCU: 0x2158E, offset: 0x86896, size: 0x8, addend: 0x0, symName: __ZNSt3__16vectorINS_6futureINS_4pairINS_12basic_stringIcNS_11char_traitsIcEENS_9allocatorIcEEEEdEEEENS6_ISA_EEED2B7v160006Ev, symObjAddr: 0x9FB0, symBinAddr: 0x10001F300, symSize: 0x40 }
  - { offsetInCU: 0x215B8, offset: 0x868C0, size: 0x8, addend: 0x0, symName: __ZNSt3__16vectorINS_6futureINS_4pairINS_12basic_stringIcNS_11char_traitsIcEENS_9allocatorIcEEEEdEEEENS6_ISA_EEE16__destroy_vectorC1ERSC_, symObjAddr: 0x9FF0, symBinAddr: 0x10001F340, symSize: 0x30 }
  - { offsetInCU: 0x215F1, offset: 0x868F9, size: 0x8, addend: 0x0, symName: __ZNSt3__16vectorINS_6futureINS_4pairINS_12basic_stringIcNS_11char_traitsIcEENS_9allocatorIcEEEEdEEEENS6_ISA_EEE16__destroy_vectorclB7v160006Ev, symObjAddr: 0xA020, symBinAddr: 0x10001F370, symSize: 0x90 }
  - { offsetInCU: 0x21617, offset: 0x8691F, size: 0x8, addend: 0x0, symName: __ZNSt3__16vectorINS_6futureINS_4pairINS_12basic_stringIcNS_11char_traitsIcEENS_9allocatorIcEEEEdEEEENS6_ISA_EEE16__destroy_vectorC2ERSC_, symObjAddr: 0xA0B0, symBinAddr: 0x10001F400, symSize: 0x20 }
  - { offsetInCU: 0x21650, offset: 0x86958, size: 0x8, addend: 0x0, symName: __ZNKSt3__16vectorINS_6futureINS_4pairINS_12basic_stringIcNS_11char_traitsIcEENS_9allocatorIcEEEEdEEEENS6_ISA_EEE17__annotate_deleteB7v160006Ev, symObjAddr: 0xA0D0, symBinAddr: 0x10001F420, symSize: 0xB0 }
  - { offsetInCU: 0x21676, offset: 0x8697E, size: 0x8, addend: 0x0, symName: __ZNSt3__16vectorINS_6futureINS_4pairINS_12basic_stringIcNS_11char_traitsIcEENS_9allocatorIcEEEEdEEEENS6_ISA_EEE7__clearB7v160006Ev, symObjAddr: 0xA190, symBinAddr: 0x10001F4E0, symSize: 0x20 }
  - { offsetInCU: 0x2169C, offset: 0x869A4, size: 0x8, addend: 0x0, symName: __ZNSt3__116allocator_traitsINS_9allocatorINS_6futureINS_4pairINS_12basic_stringIcNS_11char_traitsIcEENS1_IcEEEEdEEEEEEE10deallocateB7v160006ERSB_PSA_m, symObjAddr: 0xA1B0, symBinAddr: 0x10001F500, symSize: 0x30 }
  - { offsetInCU: 0x216DE, offset: 0x869E6, size: 0x8, addend: 0x0, symName: __ZNSt3__16vectorINS_6futureINS_4pairINS_12basic_stringIcNS_11char_traitsIcEENS_9allocatorIcEEEEdEEEENS6_ISA_EEE7__allocB7v160006Ev, symObjAddr: 0xA1E0, symBinAddr: 0x10001F530, symSize: 0x20 }
  - { offsetInCU: 0x21704, offset: 0x86A0C, size: 0x8, addend: 0x0, symName: __ZNKSt3__16vectorINS_6futureINS_4pairINS_12basic_stringIcNS_11char_traitsIcEENS_9allocatorIcEEEEdEEEENS6_ISA_EEE8capacityB7v160006Ev, symObjAddr: 0xA200, symBinAddr: 0x10001F550, symSize: 0x30 }
  - { offsetInCU: 0x2172A, offset: 0x86A32, size: 0x8, addend: 0x0, symName: __ZNKSt3__16vectorINS_6futureINS_4pairINS_12basic_stringIcNS_11char_traitsIcEENS_9allocatorIcEEEEdEEEENS6_ISA_EEE31__annotate_contiguous_containerB7v160006EPKvSE_SE_SE_, symObjAddr: 0xA230, symBinAddr: 0x10001F580, symSize: 0x20 }
  - { offsetInCU: 0x2177C, offset: 0x86A84, size: 0x8, addend: 0x0, symName: __ZNKSt3__16vectorINS_6futureINS_4pairINS_12basic_stringIcNS_11char_traitsIcEENS_9allocatorIcEEEEdEEEENS6_ISA_EEE4dataB7v160006Ev, symObjAddr: 0xA250, symBinAddr: 0x10001F5A0, symSize: 0x20 }
  - { offsetInCU: 0x217A2, offset: 0x86AAA, size: 0x8, addend: 0x0, symName: __ZNKSt3__16vectorINS_6futureINS_4pairINS_12basic_stringIcNS_11char_traitsIcEENS_9allocatorIcEEEEdEEEENS6_ISA_EEE4sizeB7v160006Ev, symObjAddr: 0xA270, symBinAddr: 0x10001F5C0, symSize: 0x20 }
  - { offsetInCU: 0x217C8, offset: 0x86AD0, size: 0x8, addend: 0x0, symName: __ZNSt3__16vectorINS_6futureINS_4pairINS_12basic_stringIcNS_11char_traitsIcEENS_9allocatorIcEEEEdEEEENS6_ISA_EEE22__base_destruct_at_endB7v160006EPSA_, symObjAddr: 0xA2A0, symBinAddr: 0x10001F5F0, symSize: 0x80 }
  - { offsetInCU: 0x2180C, offset: 0x86B14, size: 0x8, addend: 0x0, symName: __ZNSt3__116allocator_traitsINS_9allocatorINS_6futureINS_4pairINS_12basic_stringIcNS_11char_traitsIcEENS1_IcEEEEdEEEEEEE7destroyB7v160006ISA_vEEvRSB_PT_, symObjAddr: 0xA320, symBinAddr: 0x10001F670, symSize: 0x30 }
  - { offsetInCU: 0x21849, offset: 0x86B51, size: 0x8, addend: 0x0, symName: __ZNSt3__19allocatorINS_6futureINS_4pairINS_12basic_stringIcNS_11char_traitsIcEENS0_IcEEEEdEEEEE7destroyB7v160006EPS9_, symObjAddr: 0xA350, symBinAddr: 0x10001F6A0, symSize: 0x20 }
  - { offsetInCU: 0x2187D, offset: 0x86B85, size: 0x8, addend: 0x0, symName: __ZNSt3__19allocatorINS_6futureINS_4pairINS_12basic_stringIcNS_11char_traitsIcEENS0_IcEEEEdEEEEE10deallocateB7v160006EPS9_m, symObjAddr: 0xA370, symBinAddr: 0x10001F6C0, symSize: 0x40 }
  - { offsetInCU: 0x218BF, offset: 0x86BC7, size: 0x8, addend: 0x0, symName: __ZNSt3__117__compressed_pairIPNS_6futureINS_4pairINS_12basic_stringIcNS_11char_traitsIcEENS_9allocatorIcEEEEdEEEENS6_ISA_EEE6secondB7v160006Ev, symObjAddr: 0xA3B0, symBinAddr: 0x10001F700, symSize: 0x20 }
  - { offsetInCU: 0x218E5, offset: 0x86BED, size: 0x8, addend: 0x0, symName: __ZNSt3__122__compressed_pair_elemINS_9allocatorINS_6futureINS_4pairINS_12basic_stringIcNS_11char_traitsIcEENS1_IcEEEEdEEEEEELi1ELb1EE5__getB7v160006Ev, symObjAddr: 0xA3D0, symBinAddr: 0x10001F720, symSize: 0x10 }
  - { offsetInCU: 0x2190B, offset: 0x86C13, size: 0x8, addend: 0x0, symName: __ZNKSt3__16vectorINS_6futureINS_4pairINS_12basic_stringIcNS_11char_traitsIcEENS_9allocatorIcEEEEdEEEENS6_ISA_EEE9__end_capB7v160006Ev, symObjAddr: 0xA3E0, symBinAddr: 0x10001F730, symSize: 0x20 }
  - { offsetInCU: 0x21931, offset: 0x86C39, size: 0x8, addend: 0x0, symName: __ZNKSt3__117__compressed_pairIPNS_6futureINS_4pairINS_12basic_stringIcNS_11char_traitsIcEENS_9allocatorIcEEEEdEEEENS6_ISA_EEE5firstB7v160006Ev, symObjAddr: 0xA400, symBinAddr: 0x10001F750, symSize: 0x20 }
  - { offsetInCU: 0x21957, offset: 0x86C5F, size: 0x8, addend: 0x0, symName: __ZNKSt3__122__compressed_pair_elemIPNS_6futureINS_4pairINS_12basic_stringIcNS_11char_traitsIcEENS_9allocatorIcEEEEdEEEELi0ELb0EE5__getB7v160006Ev, symObjAddr: 0xA420, symBinAddr: 0x10001F770, symSize: 0x10 }
  - { offsetInCU: 0x2197D, offset: 0x86C85, size: 0x8, addend: 0x0, symName: __ZNSt3__110shared_ptrI5TradeEC1B7v160006ERKS2_, symObjAddr: 0xA570, symBinAddr: 0x10001F8C0, symSize: 0x30 }
  - { offsetInCU: 0x219B6, offset: 0x86CBE, size: 0x8, addend: 0x0, symName: '__ZNSt3__112__async_funcIZN10RiskEngine11computeRiskENS_12basic_stringIcNS_11char_traitsIcEENS_9allocatorIcEEEENS_10shared_ptrI5TradeEEbE3$_0JSA_S7_6MarketSC_EEC1B7v160006EOSB_OSA_OS7_OSC_SH_', symObjAddr: 0xA5A0, symBinAddr: 0x10001F8F0, symSize: 0x50 }
  - { offsetInCU: 0x21A2B, offset: 0x86D33, size: 0x8, addend: 0x0, symName: '__ZNSt3__112__async_funcIZN10RiskEngine11computeRiskENS_12basic_stringIcNS_11char_traitsIcEENS_9allocatorIcEEEENS_10shared_ptrI5TradeEEbE3$_0JSA_S7_6MarketSC_EED1Ev', symObjAddr: 0xA5F0, symBinAddr: 0x10001F940, symSize: 0x20 }
  - { offsetInCU: 0x21A58, offset: 0x86D60, size: 0x8, addend: 0x0, symName: __ZNSt3__110shared_ptrI5TradeED1B7v160006Ev, symObjAddr: 0xA610, symBinAddr: 0x10001F960, symSize: 0x20 }
  - { offsetInCU: 0x21A82, offset: 0x86D8A, size: 0x8, addend: 0x0, symName: __ZNSt3__16futureINS_4pairINS_12basic_stringIcNS_11char_traitsIcEENS_9allocatorIcEEEEdEEEC1B7v160006Ev, symObjAddr: 0xA6F0, symBinAddr: 0x10001FA40, symSize: 0x20 }
  - { offsetInCU: 0x21AAC, offset: 0x86DB4, size: 0x8, addend: 0x0, symName: '__ZNSt3__119__async_assoc_stateINS_4pairINS_12basic_stringIcNS_11char_traitsIcEENS_9allocatorIcEEEEdEENS_12__async_funcIZN10RiskEngine11computeRiskES7_NS_10shared_ptrI5TradeEEbE3$_0JSD_S7_6MarketSF_EEEEC1EOSG_', symObjAddr: 0xA710, symBinAddr: 0x10001FA60, symSize: 0x30 }
  - { offsetInCU: 0x21B6E, offset: 0x86E76, size: 0x8, addend: 0x0, symName: '__ZNSt3__110unique_ptrINS_19__async_assoc_stateINS_4pairINS_12basic_stringIcNS_11char_traitsIcEENS_9allocatorIcEEEEdEENS_12__async_funcIZN10RiskEngine11computeRiskES8_NS_10shared_ptrI5TradeEEbE3$_0JSE_S8_6MarketSG_EEEEENS_22__release_shared_countEEC1B7v160006ILb1EvEEPSI_', symObjAddr: 0xA740, symBinAddr: 0x10001FA90, symSize: 0x30 }
  - { offsetInCU: 0x21BB1, offset: 0x86EB9, size: 0x8, addend: 0x0, symName: '__ZNKSt3__110unique_ptrINS_19__async_assoc_stateINS_4pairINS_12basic_stringIcNS_11char_traitsIcEENS_9allocatorIcEEEEdEENS_12__async_funcIZN10RiskEngine11computeRiskES8_NS_10shared_ptrI5TradeEEbE3$_0JSE_S8_6MarketSG_EEEEENS_22__release_shared_countEE3getB7v160006Ev', symObjAddr: 0xA770, symBinAddr: 0x10001FAC0, symSize: 0x20 }
  - { offsetInCU: 0x21C9C, offset: 0x86FA4, size: 0x8, addend: 0x0, symName: '__ZNSt3__16threadC1IMNS_19__async_assoc_stateINS_4pairINS_12basic_stringIcNS_11char_traitsIcEENS_9allocatorIcEEEEdEENS_12__async_funcIZN10RiskEngine11computeRiskES9_NS_10shared_ptrI5TradeEEbE3$_0JSF_S9_6MarketSH_EEEEEFvvEJPSJ_EvEEOT_DpOT0_', symObjAddr: 0xA790, symBinAddr: 0x10001FAE0, symSize: 0x30 }
  - { offsetInCU: 0x21CF9, offset: 0x87001, size: 0x8, addend: 0x0, symName: __ZNSt3__16futureINS_4pairINS_12basic_stringIcNS_11char_traitsIcEENS_9allocatorIcEEEEdEEEC1EPNS_13__assoc_stateIS8_EE, symObjAddr: 0xA7C0, symBinAddr: 0x10001FB10, symSize: 0x30 }
  - { offsetInCU: 0x21D34, offset: 0x8703C, size: 0x8, addend: 0x0, symName: '__ZNSt3__110unique_ptrINS_19__async_assoc_stateINS_4pairINS_12basic_stringIcNS_11char_traitsIcEENS_9allocatorIcEEEEdEENS_12__async_funcIZN10RiskEngine11computeRiskES8_NS_10shared_ptrI5TradeEEbE3$_0JSE_S8_6MarketSG_EEEEENS_22__release_shared_countEED1B7v160006Ev', symObjAddr: 0xA7F0, symBinAddr: 0x10001FB40, symSize: 0x20 }
  - { offsetInCU: 0x21D5E, offset: 0x87066, size: 0x8, addend: 0x0, symName: '__ZNSt3__119__async_assoc_stateINS_4pairINS_12basic_stringIcNS_11char_traitsIcEENS_9allocatorIcEEEEdEENS_12__async_funcIZN10RiskEngine11computeRiskES7_NS_10shared_ptrI5TradeEEbE3$_0JSD_S7_6MarketSF_EEEEC2EOSG_', symObjAddr: 0xA810, symBinAddr: 0x10001FB60, symSize: 0x70 }
  - { offsetInCU: 0x21D99, offset: 0x870A1, size: 0x8, addend: 0x0, symName: __ZNSt3__113__assoc_stateINS_4pairINS_12basic_stringIcNS_11char_traitsIcEENS_9allocatorIcEEEEdEEEC2Ev, symObjAddr: 0xA880, symBinAddr: 0x10001FBD0, symSize: 0x40 }
  - { offsetInCU: 0x21DC6, offset: 0x870CE, size: 0x8, addend: 0x0, symName: '__ZNSt3__112__async_funcIZN10RiskEngine11computeRiskENS_12basic_stringIcNS_11char_traitsIcEENS_9allocatorIcEEEENS_10shared_ptrI5TradeEEbE3$_0JSA_S7_6MarketSC_EEC1B7v160006EOSD_', symObjAddr: 0xA8C0, symBinAddr: 0x10001FC10, symSize: 0x30 }
  - { offsetInCU: 0x21DFF, offset: 0x87107, size: 0x8, addend: 0x0, symName: __ZNSt3__113__assoc_stateINS_4pairINS_12basic_stringIcNS_11char_traitsIcEENS_9allocatorIcEEEEdEEED2Ev, symObjAddr: 0xA8F0, symBinAddr: 0x10001FC40, symSize: 0x20 }
  - { offsetInCU: 0x21E2C, offset: 0x87134, size: 0x8, addend: 0x0, symName: '__ZNSt3__119__async_assoc_stateINS_4pairINS_12basic_stringIcNS_11char_traitsIcEENS_9allocatorIcEEEEdEENS_12__async_funcIZN10RiskEngine11computeRiskES7_NS_10shared_ptrI5TradeEEbE3$_0JSD_S7_6MarketSF_EEEED1Ev', symObjAddr: 0xA910, symBinAddr: 0x10001FC60, symSize: 0x20 }
  - { offsetInCU: 0x21E59, offset: 0x87161, size: 0x8, addend: 0x0, symName: '__ZNSt3__119__async_assoc_stateINS_4pairINS_12basic_stringIcNS_11char_traitsIcEENS_9allocatorIcEEEEdEENS_12__async_funcIZN10RiskEngine11computeRiskES7_NS_10shared_ptrI5TradeEEbE3$_0JSD_S7_6MarketSF_EEEED0Ev', symObjAddr: 0xA930, symBinAddr: 0x10001FC80, symSize: 0x30 }
  - { offsetInCU: 0x21E86, offset: 0x8718E, size: 0x8, addend: 0x0, symName: '__ZNSt3__119__async_assoc_stateINS_4pairINS_12basic_stringIcNS_11char_traitsIcEENS_9allocatorIcEEEEdEENS_12__async_funcIZN10RiskEngine11computeRiskES7_NS_10shared_ptrI5TradeEEbE3$_0JSD_S7_6MarketSF_EEEE16__on_zero_sharedEv', symObjAddr: 0xA960, symBinAddr: 0x10001FCB0, symSize: 0x40 }
  - { offsetInCU: 0x21EAE, offset: 0x871B6, size: 0x8, addend: 0x0, symName: '__ZNSt3__119__async_assoc_stateINS_4pairINS_12basic_stringIcNS_11char_traitsIcEENS_9allocatorIcEEEEdEENS_12__async_funcIZN10RiskEngine11computeRiskES7_NS_10shared_ptrI5TradeEEbE3$_0JSD_S7_6MarketSF_EEEE9__executeEv', symObjAddr: 0xA9A0, symBinAddr: 0x10001FCF0, symSize: 0xE0 }
  - { offsetInCU: 0x21ED6, offset: 0x871DE, size: 0x8, addend: 0x0, symName: __ZNSt3__117__assoc_sub_stateC2B7v160006Ev, symObjAddr: 0xAA80, symBinAddr: 0x10001FDD0, symSize: 0x70 }
  - { offsetInCU: 0x21F00, offset: 0x87208, size: 0x8, addend: 0x0, symName: __ZNSt3__113__assoc_stateINS_4pairINS_12basic_stringIcNS_11char_traitsIcEENS_9allocatorIcEEEEdEEED1Ev, symObjAddr: 0xAAF0, symBinAddr: 0x10001FE40, symSize: 0x20 }
  - { offsetInCU: 0x21F2D, offset: 0x87235, size: 0x8, addend: 0x0, symName: __ZNSt3__113__assoc_stateINS_4pairINS_12basic_stringIcNS_11char_traitsIcEENS_9allocatorIcEEEEdEEED0Ev, symObjAddr: 0xAB10, symBinAddr: 0x10001FE60, symSize: 0x30 }
  - { offsetInCU: 0x21F5A, offset: 0x87262, size: 0x8, addend: 0x0, symName: __ZNSt3__113__assoc_stateINS_4pairINS_12basic_stringIcNS_11char_traitsIcEENS_9allocatorIcEEEEdEEE16__on_zero_sharedEv, symObjAddr: 0xAB40, symBinAddr: 0x10001FE90, symSize: 0x60 }
  - { offsetInCU: 0x21F82, offset: 0x8728A, size: 0x8, addend: 0x0, symName: __ZNSt3__114__shared_countC2B7v160006El, symObjAddr: 0xABA0, symBinAddr: 0x10001FEF0, symSize: 0x30 }
  - { offsetInCU: 0x21FBA, offset: 0x872C2, size: 0x8, addend: 0x0, symName: __ZNSt13exception_ptrC1B7v160006Ev, symObjAddr: 0xABD0, symBinAddr: 0x10001FF20, symSize: 0x20 }
  - { offsetInCU: 0x21FE4, offset: 0x872EC, size: 0x8, addend: 0x0, symName: __ZNSt3__15mutexC1B7v160006Ev, symObjAddr: 0xABF0, symBinAddr: 0x10001FF40, symSize: 0x20 }
  - { offsetInCU: 0x2200E, offset: 0x87316, size: 0x8, addend: 0x0, symName: __ZNSt3__118condition_variableC1B7v160006Ev, symObjAddr: 0xAC10, symBinAddr: 0x10001FF60, symSize: 0x20 }
  - { offsetInCU: 0x22038, offset: 0x87340, size: 0x8, addend: 0x0, symName: __ZNSt13exception_ptrC2B7v160006Ev, symObjAddr: 0xAC30, symBinAddr: 0x10001FF80, symSize: 0x20 }
  - { offsetInCU: 0x22062, offset: 0x8736A, size: 0x8, addend: 0x0, symName: __ZNSt3__15mutexC2B7v160006Ev, symObjAddr: 0xAC50, symBinAddr: 0x10001FFA0, symSize: 0x30 }
  - { offsetInCU: 0x2208C, offset: 0x87394, size: 0x8, addend: 0x0, symName: __ZNSt3__118condition_variableC2B7v160006Ev, symObjAddr: 0xAC80, symBinAddr: 0x10001FFD0, symSize: 0x30 }
  - { offsetInCU: 0x220B6, offset: 0x873BE, size: 0x8, addend: 0x0, symName: '__ZNSt3__112__async_funcIZN10RiskEngine11computeRiskENS_12basic_stringIcNS_11char_traitsIcEENS_9allocatorIcEEEENS_10shared_ptrI5TradeEEbE3$_0JSA_S7_6MarketSC_EEC2B7v160006EOSD_', symObjAddr: 0xACB0, symBinAddr: 0x100020000, symSize: 0x30 }
  - { offsetInCU: 0x220EF, offset: 0x873F7, size: 0x8, addend: 0x0, symName: '__ZNSt3__15tupleIJZN10RiskEngine11computeRiskENS_12basic_stringIcNS_11char_traitsIcEENS_9allocatorIcEEEENS_10shared_ptrI5TradeEEbE3$_0SA_S7_6MarketSC_EEC1EOSD_', symObjAddr: 0xACE0, symBinAddr: 0x100020030, symSize: 0x30 }
  - { offsetInCU: 0x22124, offset: 0x8742C, size: 0x8, addend: 0x0, symName: '__ZNSt3__15tupleIJZN10RiskEngine11computeRiskENS_12basic_stringIcNS_11char_traitsIcEENS_9allocatorIcEEEENS_10shared_ptrI5TradeEEbE3$_0SA_S7_6MarketSC_EEC2EOSD_', symObjAddr: 0xAD10, symBinAddr: 0x100020060, symSize: 0x30 }
  - { offsetInCU: 0x22159, offset: 0x87461, size: 0x8, addend: 0x0, symName: '__ZNSt3__112__tuple_implINS_15__tuple_indicesIJLm0ELm1ELm2ELm3ELm4EEEEJZN10RiskEngine11computeRiskENS_12basic_stringIcNS_11char_traitsIcEENS_9allocatorIcEEEENS_10shared_ptrI5TradeEEbE3$_0SC_S9_6MarketSE_EEC1EOSF_', symObjAddr: 0xAD40, symBinAddr: 0x100020090, symSize: 0x30 }
  - { offsetInCU: 0x2218E, offset: 0x87496, size: 0x8, addend: 0x0, symName: '__ZNSt3__112__tuple_implINS_15__tuple_indicesIJLm0ELm1ELm2ELm3ELm4EEEEJZN10RiskEngine11computeRiskENS_12basic_stringIcNS_11char_traitsIcEENS_9allocatorIcEEEENS_10shared_ptrI5TradeEEbE3$_0SC_S9_6MarketSE_EEC2EOSF_', symObjAddr: 0xAD70, symBinAddr: 0x1000200C0, symSize: 0xC0 }
  - { offsetInCU: 0x221C3, offset: 0x874CB, size: 0x8, addend: 0x0, symName: __ZNSt3__112__tuple_leafILm1ENS_10shared_ptrI5TradeEELb0EEC2EOS4_, symObjAddr: 0xAE30, symBinAddr: 0x100020180, symSize: 0x30 }
  - { offsetInCU: 0x221FC, offset: 0x87504, size: 0x8, addend: 0x0, symName: __ZNSt3__112__tuple_leafILm2ENS_12basic_stringIcNS_11char_traitsIcEENS_9allocatorIcEEEELb0EEC2EOS7_, symObjAddr: 0xAE60, symBinAddr: 0x1000201B0, symSize: 0x30 }
  - { offsetInCU: 0x22235, offset: 0x8753D, size: 0x8, addend: 0x0, symName: __ZNSt3__112__tuple_leafILm3E6MarketLb0EEC2EOS2_, symObjAddr: 0xAE90, symBinAddr: 0x1000201E0, symSize: 0x30 }
  - { offsetInCU: 0x2226E, offset: 0x87576, size: 0x8, addend: 0x0, symName: __ZNSt3__112__tuple_leafILm4E6MarketLb0EEC2EOS2_, symObjAddr: 0xAEC0, symBinAddr: 0x100020210, symSize: 0x30 }
  - { offsetInCU: 0x222A7, offset: 0x875AF, size: 0x8, addend: 0x0, symName: __ZNSt3__112__tuple_leafILm3E6MarketLb0EED2Ev, symObjAddr: 0xAEF0, symBinAddr: 0x100020240, symSize: 0x20 }
  - { offsetInCU: 0x222D4, offset: 0x875DC, size: 0x8, addend: 0x0, symName: __ZNSt3__112__tuple_leafILm2ENS_12basic_stringIcNS_11char_traitsIcEENS_9allocatorIcEEEELb0EED2Ev, symObjAddr: 0xAF10, symBinAddr: 0x100020260, symSize: 0x20 }
  - { offsetInCU: 0x22301, offset: 0x87609, size: 0x8, addend: 0x0, symName: __ZNSt3__112__tuple_leafILm1ENS_10shared_ptrI5TradeEELb0EED2Ev, symObjAddr: 0xAF30, symBinAddr: 0x100020280, symSize: 0x20 }
  - { offsetInCU: 0x2232E, offset: 0x87636, size: 0x8, addend: 0x0, symName: __ZNSt3__110shared_ptrI5TradeEC1B7v160006EOS2_, symObjAddr: 0xAF50, symBinAddr: 0x1000202A0, symSize: 0x30 }
  - { offsetInCU: 0x22367, offset: 0x8766F, size: 0x8, addend: 0x0, symName: __ZNSt3__110shared_ptrI5TradeEC2B7v160006EOS2_, symObjAddr: 0xAF80, symBinAddr: 0x1000202D0, symSize: 0x40 }
  - { offsetInCU: 0x223A0, offset: 0x876A8, size: 0x8, addend: 0x0, symName: __ZNSt3__117__assoc_sub_stateD2Ev, symObjAddr: 0xB0D0, symBinAddr: 0x100020310, symSize: 0x60 }
  - { offsetInCU: 0x223CD, offset: 0x876D5, size: 0x8, addend: 0x0, symName: '__ZNSt3__119__async_assoc_stateINS_4pairINS_12basic_stringIcNS_11char_traitsIcEENS_9allocatorIcEEEEdEENS_12__async_funcIZN10RiskEngine11computeRiskES7_NS_10shared_ptrI5TradeEEbE3$_0JSD_S7_6MarketSF_EEEED2Ev', symObjAddr: 0xB130, symBinAddr: 0x100020370, symSize: 0x40 }
  - { offsetInCU: 0x223FA, offset: 0x87702, size: 0x8, addend: 0x0, symName: __ZNSt3__113__assoc_stateINS_4pairINS_12basic_stringIcNS_11char_traitsIcEENS_9allocatorIcEEEEdEEE9set_valueIS8_EEvOT_, symObjAddr: 0xB170, symBinAddr: 0x1000203B0, symSize: 0xC0 }
  - { offsetInCU: 0x22449, offset: 0x87751, size: 0x8, addend: 0x0, symName: '__ZNSt3__112__async_funcIZN10RiskEngine11computeRiskENS_12basic_stringIcNS_11char_traitsIcEENS_9allocatorIcEEEENS_10shared_ptrI5TradeEEbE3$_0JSA_S7_6MarketSC_EEclEv', symObjAddr: 0xB230, symBinAddr: 0x100020470, symSize: 0x30 }
  - { offsetInCU: 0x2246F, offset: 0x87777, size: 0x8, addend: 0x0, symName: __ZNSt3__111unique_lockINS_5mutexEEC1B7v160006ERS1_, symObjAddr: 0xB260, symBinAddr: 0x1000204A0, symSize: 0x30 }
  - { offsetInCU: 0x224A7, offset: 0x877AF, size: 0x8, addend: 0x0, symName: __ZNKSt3__117__assoc_sub_state11__has_valueB7v160006Ev, symObjAddr: 0xB290, symBinAddr: 0x1000204D0, symSize: 0x90 }
  - { offsetInCU: 0x224CD, offset: 0x877D5, size: 0x8, addend: 0x0, symName: __ZNSt3__14pairINS_12basic_stringIcNS_11char_traitsIcEENS_9allocatorIcEEEEdEC1EOS7_, symObjAddr: 0xB3A0, symBinAddr: 0x1000205E0, symSize: 0x30 }
  - { offsetInCU: 0x22502, offset: 0x8780A, size: 0x8, addend: 0x0, symName: __ZNSt3__111unique_lockINS_5mutexEED1B7v160006Ev, symObjAddr: 0xB3D0, symBinAddr: 0x100020610, symSize: 0x20 }
  - { offsetInCU: 0x2252C, offset: 0x87834, size: 0x8, addend: 0x0, symName: __ZNSt3__111unique_lockINS_5mutexEEC2B7v160006ERS1_, symObjAddr: 0xB3F0, symBinAddr: 0x100020630, symSize: 0x30 }
  - { offsetInCU: 0x22564, offset: 0x8786C, size: 0x8, addend: 0x0, symName: __ZNSt13exception_ptrC1B7v160006EDn, symObjAddr: 0xB450, symBinAddr: 0x100020690, symSize: 0x30 }
  - { offsetInCU: 0x22599, offset: 0x878A1, size: 0x8, addend: 0x0, symName: __ZNSt13exception_ptrC2B7v160006EDn, symObjAddr: 0xB4B0, symBinAddr: 0x1000206F0, symSize: 0x20 }
  - { offsetInCU: 0x225CE, offset: 0x878D6, size: 0x8, addend: 0x0, symName: __ZNSt3__110error_codeC1B7v160006EiRKNS_14error_categoryE, symObjAddr: 0xB510, symBinAddr: 0x100020750, symSize: 0x30 }
  - { offsetInCU: 0x22616, offset: 0x8791E, size: 0x8, addend: 0x0, symName: __ZNSt3__110error_codeC2B7v160006EiRKNS_14error_categoryE, symObjAddr: 0xB540, symBinAddr: 0x100020780, symSize: 0x30 }
  - { offsetInCU: 0x2265E, offset: 0x87966, size: 0x8, addend: 0x0, symName: __ZNSt3__14pairINS_12basic_stringIcNS_11char_traitsIcEENS_9allocatorIcEEEEdEC2EOS7_, symObjAddr: 0xB570, symBinAddr: 0x1000207B0, symSize: 0x40 }
  - { offsetInCU: 0x22693, offset: 0x8799B, size: 0x8, addend: 0x0, symName: __ZNSt3__111unique_lockINS_5mutexEED2B7v160006Ev, symObjAddr: 0xB5B0, symBinAddr: 0x1000207F0, symSize: 0x30 }
  - { offsetInCU: 0x226BD, offset: 0x879C5, size: 0x8, addend: 0x0, symName: '__ZNSt3__112__async_funcIZN10RiskEngine11computeRiskENS_12basic_stringIcNS_11char_traitsIcEENS_9allocatorIcEEEENS_10shared_ptrI5TradeEEbE3$_0JSA_S7_6MarketSC_EE9__executeIJLm1ELm2ELm3ELm4EEEENS_4pairIS7_dEENS_15__tuple_indicesIJXspT_EEEE', symObjAddr: 0xB5E0, symBinAddr: 0x100020820, symSize: 0x90 }
  - { offsetInCU: 0x22711, offset: 0x87A19, size: 0x8, addend: 0x0, symName: '__ZZN10RiskEngine11computeRiskENSt3__112basic_stringIcNS0_11char_traitsIcEENS0_9allocatorIcEEEENS0_10shared_ptrI5TradeEEbENK3$_0clES9_S6_RK6MarketSD_', symObjAddr: 0xB7F0, symBinAddr: 0x100020A30, symSize: 0xB0 }
  - { offsetInCU: 0x227A0, offset: 0x87AA8, size: 0x8, addend: 0x0, symName: __ZNSt3__14pairINS_12basic_stringIcNS_11char_traitsIcEENS_9allocatorIcEEEEdEC1B7v160006IRS6_RdLPv0EEEOT_OT0_, symObjAddr: 0xB8E0, symBinAddr: 0x100020B20, symSize: 0x30 }
  - { offsetInCU: 0x227FE, offset: 0x87B06, size: 0x8, addend: 0x0, symName: __ZNSt3__14pairINS_12basic_stringIcNS_11char_traitsIcEENS_9allocatorIcEEEEdEC2B7v160006IRS6_RdLPv0EEEOT_OT0_, symObjAddr: 0xB910, symBinAddr: 0x100020B50, symSize: 0x40 }
  - { offsetInCU: 0x2285C, offset: 0x87B64, size: 0x8, addend: 0x0, symName: '__ZNSt3__112__tuple_leafILm0EZN10RiskEngine11computeRiskENS_12basic_stringIcNS_11char_traitsIcEENS_9allocatorIcEEEENS_10shared_ptrI5TradeEEbE3$_0Lb1EE3getB7v160006Ev', symObjAddr: 0xB950, symBinAddr: 0x100020B90, symSize: 0x10 }
  - { offsetInCU: 0x22882, offset: 0x87B8A, size: 0x8, addend: 0x0, symName: __ZNSt3__112__tuple_leafILm1ENS_10shared_ptrI5TradeEELb0EE3getB7v160006Ev, symObjAddr: 0xB960, symBinAddr: 0x100020BA0, symSize: 0x10 }
  - { offsetInCU: 0x228A8, offset: 0x87BB0, size: 0x8, addend: 0x0, symName: __ZNSt3__112__tuple_leafILm2ENS_12basic_stringIcNS_11char_traitsIcEENS_9allocatorIcEEEELb0EE3getB7v160006Ev, symObjAddr: 0xB970, symBinAddr: 0x100020BB0, symSize: 0x10 }
  - { offsetInCU: 0x228CE, offset: 0x87BD6, size: 0x8, addend: 0x0, symName: __ZNSt3__112__tuple_leafILm3E6MarketLb0EE3getB7v160006Ev, symObjAddr: 0xB980, symBinAddr: 0x100020BC0, symSize: 0x10 }
  - { offsetInCU: 0x228F4, offset: 0x87BFC, size: 0x8, addend: 0x0, symName: __ZNSt3__112__tuple_leafILm4E6MarketLb0EE3getB7v160006Ev, symObjAddr: 0xB990, symBinAddr: 0x100020BD0, symSize: 0x10 }
  - { offsetInCU: 0x2291A, offset: 0x87C22, size: 0x8, addend: 0x0, symName: '__ZNSt3__110unique_ptrINS_19__async_assoc_stateINS_4pairINS_12basic_stringIcNS_11char_traitsIcEENS_9allocatorIcEEEEdEENS_12__async_funcIZN10RiskEngine11computeRiskES8_NS_10shared_ptrI5TradeEEbE3$_0JSE_S8_6MarketSG_EEEEENS_22__release_shared_countEEC2B7v160006ILb1EvEEPSI_', symObjAddr: 0xB9A0, symBinAddr: 0x100020BE0, symSize: 0x40 }
  - { offsetInCU: 0x2295D, offset: 0x87C65, size: 0x8, addend: 0x0, symName: '__ZNSt3__117__compressed_pairIPNS_19__async_assoc_stateINS_4pairINS_12basic_stringIcNS_11char_traitsIcEENS_9allocatorIcEEEEdEENS_12__async_funcIZN10RiskEngine11computeRiskES8_NS_10shared_ptrI5TradeEEbE3$_0JSE_S8_6MarketSG_EEEEENS_22__release_shared_countEEC1B7v160006IRSJ_NS_16__value_init_tagEEEOT_OT0_', symObjAddr: 0xB9E0, symBinAddr: 0x100020C20, symSize: 0x30 }
  - { offsetInCU: 0x229B5, offset: 0x87CBD, size: 0x8, addend: 0x0, symName: '__ZNSt3__117__compressed_pairIPNS_19__async_assoc_stateINS_4pairINS_12basic_stringIcNS_11char_traitsIcEENS_9allocatorIcEEEEdEENS_12__async_funcIZN10RiskEngine11computeRiskES8_NS_10shared_ptrI5TradeEEbE3$_0JSE_S8_6MarketSG_EEEEENS_22__release_shared_countEEC2B7v160006IRSJ_NS_16__value_init_tagEEEOT_OT0_', symObjAddr: 0xBA10, symBinAddr: 0x100020C50, symSize: 0x40 }
  - { offsetInCU: 0x22A0D, offset: 0x87D15, size: 0x8, addend: 0x0, symName: '__ZNSt3__122__compressed_pair_elemIPNS_19__async_assoc_stateINS_4pairINS_12basic_stringIcNS_11char_traitsIcEENS_9allocatorIcEEEEdEENS_12__async_funcIZN10RiskEngine11computeRiskES8_NS_10shared_ptrI5TradeEEbE3$_0JSE_S8_6MarketSG_EEEEELi0ELb0EEC2B7v160006IRSJ_vEEOT_', symObjAddr: 0xBA50, symBinAddr: 0x100020C90, symSize: 0x20 }
  - { offsetInCU: 0x22A4F, offset: 0x87D57, size: 0x8, addend: 0x0, symName: __ZNSt3__122__compressed_pair_elemINS_22__release_shared_countELi1ELb1EEC2B7v160006ENS_16__value_init_tagE, symObjAddr: 0xBA70, symBinAddr: 0x100020CB0, symSize: 0x10 }
  - { offsetInCU: 0x22A84, offset: 0x87D8C, size: 0x8, addend: 0x0, symName: '__ZNKSt3__117__compressed_pairIPNS_19__async_assoc_stateINS_4pairINS_12basic_stringIcNS_11char_traitsIcEENS_9allocatorIcEEEEdEENS_12__async_funcIZN10RiskEngine11computeRiskES8_NS_10shared_ptrI5TradeEEbE3$_0JSE_S8_6MarketSG_EEEEENS_22__release_shared_countEE5firstB7v160006Ev', symObjAddr: 0xBA80, symBinAddr: 0x100020CC0, symSize: 0x20 }
  - { offsetInCU: 0x22AAA, offset: 0x87DB2, size: 0x8, addend: 0x0, symName: '__ZNKSt3__122__compressed_pair_elemIPNS_19__async_assoc_stateINS_4pairINS_12basic_stringIcNS_11char_traitsIcEENS_9allocatorIcEEEEdEENS_12__async_funcIZN10RiskEngine11computeRiskES8_NS_10shared_ptrI5TradeEEbE3$_0JSE_S8_6MarketSG_EEEEELi0ELb0EE5__getB7v160006Ev', symObjAddr: 0xBAA0, symBinAddr: 0x100020CE0, symSize: 0x10 }
  - { offsetInCU: 0x22AD0, offset: 0x87DD8, size: 0x8, addend: 0x0, symName: '__ZNSt3__16threadC2IMNS_19__async_assoc_stateINS_4pairINS_12basic_stringIcNS_11char_traitsIcEENS_9allocatorIcEEEEdEENS_12__async_funcIZN10RiskEngine11computeRiskES9_NS_10shared_ptrI5TradeEEbE3$_0JSF_S9_6MarketSH_EEEEEFvvEJPSJ_EvEEOT_DpOT0_', symObjAddr: 0xBAB0, symBinAddr: 0x100020CF0, symSize: 0x150 }
  - { offsetInCU: 0x22B60, offset: 0x87E68, size: 0x8, addend: 0x0, symName: __ZNSt3__110unique_ptrINS_15__thread_structENS_14default_deleteIS1_EEEC1B7v160006ILb1EvEEPS1_, symObjAddr: 0xBC00, symBinAddr: 0x100020E40, symSize: 0x30 }
  - { offsetInCU: 0x22BA3, offset: 0x87EAB, size: 0x8, addend: 0x0, symName: '__ZNSt3__15tupleIJNS_10unique_ptrINS_15__thread_structENS_14default_deleteIS2_EEEEMNS_19__async_assoc_stateINS_4pairINS_12basic_stringIcNS_11char_traitsIcEENS_9allocatorIcEEEEdEENS_12__async_funcIZN10RiskEngine11computeRiskESD_NS_10shared_ptrI5TradeEEbE3$_0JSJ_SD_6MarketSL_EEEEEFvvEPSN_EEC1B7v160006IJS5_SP_SQ_ELi0EEEDpOT_', symObjAddr: 0xBC30, symBinAddr: 0x100020E70, symSize: 0x40 }
  - { offsetInCU: 0x22CA6, offset: 0x87FAE, size: 0x8, addend: 0x0, symName: '__ZNSt3__110unique_ptrINS_5tupleIJNS0_INS_15__thread_structENS_14default_deleteIS2_EEEEMNS_19__async_assoc_stateINS_4pairINS_12basic_stringIcNS_11char_traitsIcEENS_9allocatorIcEEEEdEENS_12__async_funcIZN10RiskEngine11computeRiskESD_NS_10shared_ptrI5TradeEEbE3$_0JSJ_SD_6MarketSL_EEEEEFvvEPSN_EEENS3_ISR_EEEC1B7v160006ILb1EvEEPSR_', symObjAddr: 0xBC70, symBinAddr: 0x100020EB0, symSize: 0x30 }
  - { offsetInCU: 0x22CE9, offset: 0x87FF1, size: 0x8, addend: 0x0, symName: '__ZNKSt3__110unique_ptrINS_5tupleIJNS0_INS_15__thread_structENS_14default_deleteIS2_EEEEMNS_19__async_assoc_stateINS_4pairINS_12basic_stringIcNS_11char_traitsIcEENS_9allocatorIcEEEEdEENS_12__async_funcIZN10RiskEngine11computeRiskESD_NS_10shared_ptrI5TradeEEbE3$_0JSJ_SD_6MarketSL_EEEEEFvvEPSN_EEENS3_ISR_EEE3getB7v160006Ev', symObjAddr: 0xBD70, symBinAddr: 0x100020FB0, symSize: 0x20 }
  - { offsetInCU: 0x22D0F, offset: 0x88017, size: 0x8, addend: 0x0, symName: '__ZNSt3__110unique_ptrINS_5tupleIJNS0_INS_15__thread_structENS_14default_deleteIS2_EEEEMNS_19__async_assoc_stateINS_4pairINS_12basic_stringIcNS_11char_traitsIcEENS_9allocatorIcEEEEdEENS_12__async_funcIZN10RiskEngine11computeRiskESD_NS_10shared_ptrI5TradeEEbE3$_0JSJ_SD_6MarketSL_EEEEEFvvEPSN_EEENS3_ISR_EEE7releaseB7v160006Ev', symObjAddr: 0xBD90, symBinAddr: 0x100020FD0, symSize: 0x40 }
  - { offsetInCU: 0x22D44, offset: 0x8804C, size: 0x8, addend: 0x0, symName: '__ZNSt3__110unique_ptrINS_5tupleIJNS0_INS_15__thread_structENS_14default_deleteIS2_EEEEMNS_19__async_assoc_stateINS_4pairINS_12basic_stringIcNS_11char_traitsIcEENS_9allocatorIcEEEEdEENS_12__async_funcIZN10RiskEngine11computeRiskESD_NS_10shared_ptrI5TradeEEbE3$_0JSJ_SD_6MarketSL_EEEEEFvvEPSN_EEENS3_ISR_EEED1B7v160006Ev', symObjAddr: 0xBDD0, symBinAddr: 0x100021010, symSize: 0x20 }
  - { offsetInCU: 0x22D6E, offset: 0x88076, size: 0x8, addend: 0x0, symName: __ZNSt3__110unique_ptrINS_15__thread_structENS_14default_deleteIS1_EEED1B7v160006Ev, symObjAddr: 0xBDF0, symBinAddr: 0x100021030, symSize: 0x20 }
  - { offsetInCU: 0x22D98, offset: 0x880A0, size: 0x8, addend: 0x0, symName: __ZNSt3__110unique_ptrINS_15__thread_structENS_14default_deleteIS1_EEEC2B7v160006ILb1EvEEPS1_, symObjAddr: 0xBE10, symBinAddr: 0x100021050, symSize: 0x40 }
  - { offsetInCU: 0x22DDB, offset: 0x880E3, size: 0x8, addend: 0x0, symName: __ZNSt3__117__compressed_pairIPNS_15__thread_structENS_14default_deleteIS1_EEEC1B7v160006IRS2_NS_16__value_init_tagEEEOT_OT0_, symObjAddr: 0xBE50, symBinAddr: 0x100021090, symSize: 0x30 }
  - { offsetInCU: 0x22E33, offset: 0x8813B, size: 0x8, addend: 0x0, symName: __ZNSt3__117__compressed_pairIPNS_15__thread_structENS_14default_deleteIS1_EEEC2B7v160006IRS2_NS_16__value_init_tagEEEOT_OT0_, symObjAddr: 0xBE80, symBinAddr: 0x1000210C0, symSize: 0x40 }
  - { offsetInCU: 0x22E8B, offset: 0x88193, size: 0x8, addend: 0x0, symName: __ZNSt3__122__compressed_pair_elemIPNS_15__thread_structELi0ELb0EEC2B7v160006IRS2_vEEOT_, symObjAddr: 0xBEC0, symBinAddr: 0x100021100, symSize: 0x20 }
  - { offsetInCU: 0x22ECD, offset: 0x881D5, size: 0x8, addend: 0x0, symName: __ZNSt3__122__compressed_pair_elemINS_14default_deleteINS_15__thread_structEEELi1ELb1EEC2B7v160006ENS_16__value_init_tagE, symObjAddr: 0xBEE0, symBinAddr: 0x100021120, symSize: 0x10 }
  - { offsetInCU: 0x22F02, offset: 0x8820A, size: 0x8, addend: 0x0, symName: '__ZNSt3__15tupleIJNS_10unique_ptrINS_15__thread_structENS_14default_deleteIS2_EEEEMNS_19__async_assoc_stateINS_4pairINS_12basic_stringIcNS_11char_traitsIcEENS_9allocatorIcEEEEdEENS_12__async_funcIZN10RiskEngine11computeRiskESD_NS_10shared_ptrI5TradeEEbE3$_0JSJ_SD_6MarketSL_EEEEEFvvEPSN_EEC2B7v160006IJS5_SP_SQ_ELi0EEEDpOT_', symObjAddr: 0xBEF0, symBinAddr: 0x100021130, symSize: 0x40 }
  - { offsetInCU: 0x22F74, offset: 0x8827C, size: 0x8, addend: 0x0, symName: '__ZNSt3__112__tuple_implINS_15__tuple_indicesIJLm0ELm1ELm2EEEEJNS_10unique_ptrINS_15__thread_structENS_14default_deleteIS4_EEEEMNS_19__async_assoc_stateINS_4pairINS_12basic_stringIcNS_11char_traitsIcEENS_9allocatorIcEEEEdEENS_12__async_funcIZN10RiskEngine11computeRiskESF_NS_10shared_ptrI5TradeEEbE3$_0JSL_SF_6MarketSN_EEEEEFvvEPSP_EEC1B7v160006IJLm0ELm1ELm2EEJS7_SR_SS_EJEJEJS7_SR_SS_EEENS1_IJXspT_EEEENS_13__tuple_typesIJDpT0_EEENS1_IJXspT1_EEEENSW_IJDpT2_EEEDpOT3_', symObjAddr: 0xBF30, symBinAddr: 0x100021170, symSize: 0x40 }
  - { offsetInCU: 0x23043, offset: 0x8834B, size: 0x8, addend: 0x0, symName: '__ZNSt3__112__tuple_implINS_15__tuple_indicesIJLm0ELm1ELm2EEEEJNS_10unique_ptrINS_15__thread_structENS_14default_deleteIS4_EEEEMNS_19__async_assoc_stateINS_4pairINS_12basic_stringIcNS_11char_traitsIcEENS_9allocatorIcEEEEdEENS_12__async_funcIZN10RiskEngine11computeRiskESF_NS_10shared_ptrI5TradeEEbE3$_0JSL_SF_6MarketSN_EEEEEFvvEPSP_EEC2B7v160006IJLm0ELm1ELm2EEJS7_SR_SS_EJEJEJS7_SR_SS_EEENS1_IJXspT_EEEENS_13__tuple_typesIJDpT0_EEENS1_IJXspT1_EEEENSW_IJDpT2_EEEDpOT3_', symObjAddr: 0xBF70, symBinAddr: 0x1000211B0, symSize: 0x60 }
  - { offsetInCU: 0x23112, offset: 0x8841A, size: 0x8, addend: 0x0, symName: __ZNSt3__112__tuple_leafILm0ENS_10unique_ptrINS_15__thread_structENS_14default_deleteIS2_EEEELb0EEC2B7v160006IS5_vEEOT_, symObjAddr: 0xBFD0, symBinAddr: 0x100021210, symSize: 0x30 }
  - { offsetInCU: 0x23155, offset: 0x8845D, size: 0x8, addend: 0x0, symName: '__ZNSt3__112__tuple_leafILm1EMNS_19__async_assoc_stateINS_4pairINS_12basic_stringIcNS_11char_traitsIcEENS_9allocatorIcEEEEdEENS_12__async_funcIZN10RiskEngine11computeRiskES8_NS_10shared_ptrI5TradeEEbE3$_0JSE_S8_6MarketSG_EEEEEFvvELb0EEC2B7v160006ISK_vEEOT_', symObjAddr: 0xC000, symBinAddr: 0x100021240, symSize: 0x30 }
  - { offsetInCU: 0x23198, offset: 0x884A0, size: 0x8, addend: 0x0, symName: '__ZNSt3__112__tuple_leafILm2EPNS_19__async_assoc_stateINS_4pairINS_12basic_stringIcNS_11char_traitsIcEENS_9allocatorIcEEEEdEENS_12__async_funcIZN10RiskEngine11computeRiskES8_NS_10shared_ptrI5TradeEEbE3$_0JSE_S8_6MarketSG_EEEEELb0EEC2B7v160006ISJ_vEEOT_', symObjAddr: 0xC030, symBinAddr: 0x100021270, symSize: 0x20 }
  - { offsetInCU: 0x231DB, offset: 0x884E3, size: 0x8, addend: 0x0, symName: __ZNSt3__110unique_ptrINS_15__thread_structENS_14default_deleteIS1_EEEC1B7v160006EOS4_, symObjAddr: 0xC050, symBinAddr: 0x100021290, symSize: 0x30 }
  - { offsetInCU: 0x23213, offset: 0x8851B, size: 0x8, addend: 0x0, symName: __ZNSt3__110unique_ptrINS_15__thread_structENS_14default_deleteIS1_EEEC2B7v160006EOS4_, symObjAddr: 0xC080, symBinAddr: 0x1000212C0, symSize: 0x60 }
  - { offsetInCU: 0x2324B, offset: 0x88553, size: 0x8, addend: 0x0, symName: __ZNSt3__110unique_ptrINS_15__thread_structENS_14default_deleteIS1_EEE7releaseB7v160006Ev, symObjAddr: 0xC0E0, symBinAddr: 0x100021320, symSize: 0x40 }
  - { offsetInCU: 0x23280, offset: 0x88588, size: 0x8, addend: 0x0, symName: __ZNSt3__110unique_ptrINS_15__thread_structENS_14default_deleteIS1_EEE11get_deleterB7v160006Ev, symObjAddr: 0xC120, symBinAddr: 0x100021360, symSize: 0x20 }
  - { offsetInCU: 0x232B0, offset: 0x885B8, size: 0x8, addend: 0x0, symName: __ZNSt3__117__compressed_pairIPNS_15__thread_structENS_14default_deleteIS1_EEEC1B7v160006IS2_S4_EEOT_OT0_, symObjAddr: 0xC140, symBinAddr: 0x100021380, symSize: 0x30 }
  - { offsetInCU: 0x23308, offset: 0x88610, size: 0x8, addend: 0x0, symName: __ZNSt3__117__compressed_pairIPNS_15__thread_structENS_14default_deleteIS1_EEE5firstB7v160006Ev, symObjAddr: 0xC170, symBinAddr: 0x1000213B0, symSize: 0x20 }
  - { offsetInCU: 0x2332E, offset: 0x88636, size: 0x8, addend: 0x0, symName: __ZNSt3__122__compressed_pair_elemIPNS_15__thread_structELi0ELb0EE5__getB7v160006Ev, symObjAddr: 0xC190, symBinAddr: 0x1000213D0, symSize: 0x10 }
  - { offsetInCU: 0x23354, offset: 0x8865C, size: 0x8, addend: 0x0, symName: __ZNSt3__117__compressed_pairIPNS_15__thread_structENS_14default_deleteIS1_EEE6secondB7v160006Ev, symObjAddr: 0xC1A0, symBinAddr: 0x1000213E0, symSize: 0x20 }
  - { offsetInCU: 0x2337A, offset: 0x88682, size: 0x8, addend: 0x0, symName: __ZNSt3__122__compressed_pair_elemINS_14default_deleteINS_15__thread_structEEELi1ELb1EE5__getB7v160006Ev, symObjAddr: 0xC1C0, symBinAddr: 0x100021400, symSize: 0x10 }
  - { offsetInCU: 0x233A0, offset: 0x886A8, size: 0x8, addend: 0x0, symName: __ZNSt3__117__compressed_pairIPNS_15__thread_structENS_14default_deleteIS1_EEEC2B7v160006IS2_S4_EEOT_OT0_, symObjAddr: 0xC1D0, symBinAddr: 0x100021410, symSize: 0x40 }
  - { offsetInCU: 0x233F8, offset: 0x88700, size: 0x8, addend: 0x0, symName: __ZNSt3__122__compressed_pair_elemIPNS_15__thread_structELi0ELb0EEC2B7v160006IS2_vEEOT_, symObjAddr: 0xC210, symBinAddr: 0x100021450, symSize: 0x20 }
  - { offsetInCU: 0x2343A, offset: 0x88742, size: 0x8, addend: 0x0, symName: __ZNSt3__122__compressed_pair_elemINS_14default_deleteINS_15__thread_structEEELi1ELb1EEC2B7v160006IS3_vEEOT_, symObjAddr: 0xC230, symBinAddr: 0x100021470, symSize: 0x10 }
  - { offsetInCU: 0x2347C, offset: 0x88784, size: 0x8, addend: 0x0, symName: '__ZNSt3__110unique_ptrINS_5tupleIJNS0_INS_15__thread_structENS_14default_deleteIS2_EEEEMNS_19__async_assoc_stateINS_4pairINS_12basic_stringIcNS_11char_traitsIcEENS_9allocatorIcEEEEdEENS_12__async_funcIZN10RiskEngine11computeRiskESD_NS_10shared_ptrI5TradeEEbE3$_0JSJ_SD_6MarketSL_EEEEEFvvEPSN_EEENS3_ISR_EEEC2B7v160006ILb1EvEEPSR_', symObjAddr: 0xC240, symBinAddr: 0x100021480, symSize: 0x40 }
  - { offsetInCU: 0x234BF, offset: 0x887C7, size: 0x8, addend: 0x0, symName: '__ZNSt3__117__compressed_pairIPNS_5tupleIJNS_10unique_ptrINS_15__thread_structENS_14default_deleteIS3_EEEEMNS_19__async_assoc_stateINS_4pairINS_12basic_stringIcNS_11char_traitsIcEENS_9allocatorIcEEEEdEENS_12__async_funcIZN10RiskEngine11computeRiskESE_NS_10shared_ptrI5TradeEEbE3$_0JSK_SE_6MarketSM_EEEEEFvvEPSO_EEENS4_ISS_EEEC1B7v160006IRST_NS_16__value_init_tagEEEOT_OT0_', symObjAddr: 0xC280, symBinAddr: 0x1000214C0, symSize: 0x30 }
  - { offsetInCU: 0x23517, offset: 0x8881F, size: 0x8, addend: 0x0, symName: '__ZNSt3__117__compressed_pairIPNS_5tupleIJNS_10unique_ptrINS_15__thread_structENS_14default_deleteIS3_EEEEMNS_19__async_assoc_stateINS_4pairINS_12basic_stringIcNS_11char_traitsIcEENS_9allocatorIcEEEEdEENS_12__async_funcIZN10RiskEngine11computeRiskESE_NS_10shared_ptrI5TradeEEbE3$_0JSK_SE_6MarketSM_EEEEEFvvEPSO_EEENS4_ISS_EEEC2B7v160006IRST_NS_16__value_init_tagEEEOT_OT0_', symObjAddr: 0xC2B0, symBinAddr: 0x1000214F0, symSize: 0x40 }
  - { offsetInCU: 0x2356F, offset: 0x88877, size: 0x8, addend: 0x0, symName: '__ZNSt3__122__compressed_pair_elemIPNS_5tupleIJNS_10unique_ptrINS_15__thread_structENS_14default_deleteIS3_EEEEMNS_19__async_assoc_stateINS_4pairINS_12basic_stringIcNS_11char_traitsIcEENS_9allocatorIcEEEEdEENS_12__async_funcIZN10RiskEngine11computeRiskESE_NS_10shared_ptrI5TradeEEbE3$_0JSK_SE_6MarketSM_EEEEEFvvEPSO_EEELi0ELb0EEC2B7v160006IRST_vEEOT_', symObjAddr: 0xC2F0, symBinAddr: 0x100021530, symSize: 0x20 }
  - { offsetInCU: 0x235B1, offset: 0x888B9, size: 0x8, addend: 0x0, symName: '__ZNSt3__122__compressed_pair_elemINS_14default_deleteINS_5tupleIJNS_10unique_ptrINS_15__thread_structENS1_IS4_EEEEMNS_19__async_assoc_stateINS_4pairINS_12basic_stringIcNS_11char_traitsIcEENS_9allocatorIcEEEEdEENS_12__async_funcIZN10RiskEngine11computeRiskESE_NS_10shared_ptrI5TradeEEbE3$_0JSK_SE_6MarketSM_EEEEEFvvEPSO_EEEEELi1ELb1EEC2B7v160006ENS_16__value_init_tagE', symObjAddr: 0xC310, symBinAddr: 0x100021550, symSize: 0x10 }
  - { offsetInCU: 0x23615, offset: 0x8891D, size: 0x8, addend: 0x0, symName: __ZNSt3__121__thread_specific_ptrINS_15__thread_structEE11set_pointerEPS1_, symObjAddr: 0xC320, symBinAddr: 0x100021560, symSize: 0x30 }
  - { offsetInCU: 0x2364A, offset: 0x88952, size: 0x8, addend: 0x0, symName: __ZNSt3__112__tuple_leafILm0ENS_10unique_ptrINS_15__thread_structENS_14default_deleteIS2_EEEELb0EE3getB7v160006Ev, symObjAddr: 0xC3E0, symBinAddr: 0x100021620, symSize: 0x10 }
  - { offsetInCU: 0x23670, offset: 0x88978, size: 0x8, addend: 0x0, symName: '__ZNSt3__112__tuple_leafILm1EMNS_19__async_assoc_stateINS_4pairINS_12basic_stringIcNS_11char_traitsIcEENS_9allocatorIcEEEEdEENS_12__async_funcIZN10RiskEngine11computeRiskES8_NS_10shared_ptrI5TradeEEbE3$_0JSE_S8_6MarketSG_EEEEEFvvELb0EE3getB7v160006Ev', symObjAddr: 0xC4A0, symBinAddr: 0x1000216E0, symSize: 0x10 }
  - { offsetInCU: 0x23696, offset: 0x8899E, size: 0x8, addend: 0x0, symName: '__ZNSt3__112__tuple_leafILm2EPNS_19__async_assoc_stateINS_4pairINS_12basic_stringIcNS_11char_traitsIcEENS_9allocatorIcEEEEdEENS_12__async_funcIZN10RiskEngine11computeRiskES8_NS_10shared_ptrI5TradeEEbE3$_0JSE_S8_6MarketSG_EEEEELb0EE3getB7v160006Ev', symObjAddr: 0xC4B0, symBinAddr: 0x1000216F0, symSize: 0x10 }
  - { offsetInCU: 0x236BC, offset: 0x889C4, size: 0x8, addend: 0x0, symName: '__ZNKSt3__117__compressed_pairIPNS_5tupleIJNS_10unique_ptrINS_15__thread_structENS_14default_deleteIS3_EEEEMNS_19__async_assoc_stateINS_4pairINS_12basic_stringIcNS_11char_traitsIcEENS_9allocatorIcEEEEdEENS_12__async_funcIZN10RiskEngine11computeRiskESE_NS_10shared_ptrI5TradeEEbE3$_0JSK_SE_6MarketSM_EEEEEFvvEPSO_EEENS4_ISS_EEE5firstB7v160006Ev', symObjAddr: 0xC4C0, symBinAddr: 0x100021700, symSize: 0x20 }
  - { offsetInCU: 0x236E2, offset: 0x889EA, size: 0x8, addend: 0x0, symName: '__ZNKSt3__122__compressed_pair_elemIPNS_5tupleIJNS_10unique_ptrINS_15__thread_structENS_14default_deleteIS3_EEEEMNS_19__async_assoc_stateINS_4pairINS_12basic_stringIcNS_11char_traitsIcEENS_9allocatorIcEEEEdEENS_12__async_funcIZN10RiskEngine11computeRiskESE_NS_10shared_ptrI5TradeEEbE3$_0JSK_SE_6MarketSM_EEEEEFvvEPSO_EEELi0ELb0EE5__getB7v160006Ev', symObjAddr: 0xC4E0, symBinAddr: 0x100021720, symSize: 0x10 }
  - { offsetInCU: 0x23708, offset: 0x88A10, size: 0x8, addend: 0x0, symName: '__ZNSt3__117__compressed_pairIPNS_5tupleIJNS_10unique_ptrINS_15__thread_structENS_14default_deleteIS3_EEEEMNS_19__async_assoc_stateINS_4pairINS_12basic_stringIcNS_11char_traitsIcEENS_9allocatorIcEEEEdEENS_12__async_funcIZN10RiskEngine11computeRiskESE_NS_10shared_ptrI5TradeEEbE3$_0JSK_SE_6MarketSM_EEEEEFvvEPSO_EEENS4_ISS_EEE5firstB7v160006Ev', symObjAddr: 0xC4F0, symBinAddr: 0x100021730, symSize: 0x20 }
  - { offsetInCU: 0x2372E, offset: 0x88A36, size: 0x8, addend: 0x0, symName: '__ZNSt3__122__compressed_pair_elemIPNS_5tupleIJNS_10unique_ptrINS_15__thread_structENS_14default_deleteIS3_EEEEMNS_19__async_assoc_stateINS_4pairINS_12basic_stringIcNS_11char_traitsIcEENS_9allocatorIcEEEEdEENS_12__async_funcIZN10RiskEngine11computeRiskESE_NS_10shared_ptrI5TradeEEbE3$_0JSK_SE_6MarketSM_EEEEEFvvEPSO_EEELi0ELb0EE5__getB7v160006Ev', symObjAddr: 0xC510, symBinAddr: 0x100021750, symSize: 0x10 }
  - { offsetInCU: 0x23754, offset: 0x88A5C, size: 0x8, addend: 0x0, symName: '__ZNSt3__110unique_ptrINS_5tupleIJNS0_INS_15__thread_structENS_14default_deleteIS2_EEEEMNS_19__async_assoc_stateINS_4pairINS_12basic_stringIcNS_11char_traitsIcEENS_9allocatorIcEEEEdEENS_12__async_funcIZN10RiskEngine11computeRiskESD_NS_10shared_ptrI5TradeEEbE3$_0JSJ_SD_6MarketSL_EEEEEFvvEPSN_EEENS3_ISR_EEED2B7v160006Ev', symObjAddr: 0xC520, symBinAddr: 0x100021760, symSize: 0x20 }
  - { offsetInCU: 0x2377E, offset: 0x88A86, size: 0x8, addend: 0x0, symName: '__ZNSt3__110unique_ptrINS_5tupleIJNS0_INS_15__thread_structENS_14default_deleteIS2_EEEEMNS_19__async_assoc_stateINS_4pairINS_12basic_stringIcNS_11char_traitsIcEENS_9allocatorIcEEEEdEENS_12__async_funcIZN10RiskEngine11computeRiskESD_NS_10shared_ptrI5TradeEEbE3$_0JSJ_SD_6MarketSL_EEEEEFvvEPSN_EEENS3_ISR_EEE5resetB7v160006EPSR_', symObjAddr: 0xC540, symBinAddr: 0x100021780, symSize: 0x70 }
  - { offsetInCU: 0x237C2, offset: 0x88ACA, size: 0x8, addend: 0x0, symName: '__ZNSt3__117__compressed_pairIPNS_5tupleIJNS_10unique_ptrINS_15__thread_structENS_14default_deleteIS3_EEEEMNS_19__async_assoc_stateINS_4pairINS_12basic_stringIcNS_11char_traitsIcEENS_9allocatorIcEEEEdEENS_12__async_funcIZN10RiskEngine11computeRiskESE_NS_10shared_ptrI5TradeEEbE3$_0JSK_SE_6MarketSM_EEEEEFvvEPSO_EEENS4_ISS_EEE6secondB7v160006Ev', symObjAddr: 0xC5B0, symBinAddr: 0x1000217F0, symSize: 0x20 }
  - { offsetInCU: 0x237E8, offset: 0x88AF0, size: 0x8, addend: 0x0, symName: '__ZNKSt3__114default_deleteINS_5tupleIJNS_10unique_ptrINS_15__thread_structENS0_IS3_EEEEMNS_19__async_assoc_stateINS_4pairINS_12basic_stringIcNS_11char_traitsIcEENS_9allocatorIcEEEEdEENS_12__async_funcIZN10RiskEngine11computeRiskESD_NS_10shared_ptrI5TradeEEbE3$_0JSJ_SD_6MarketSL_EEEEEFvvEPSN_EEEEclB7v160006EPSR_', symObjAddr: 0xC5D0, symBinAddr: 0x100021810, symSize: 0x40 }
  - { offsetInCU: 0x2381C, offset: 0x88B24, size: 0x8, addend: 0x0, symName: '__ZNSt3__122__compressed_pair_elemINS_14default_deleteINS_5tupleIJNS_10unique_ptrINS_15__thread_structENS1_IS4_EEEEMNS_19__async_assoc_stateINS_4pairINS_12basic_stringIcNS_11char_traitsIcEENS_9allocatorIcEEEEdEENS_12__async_funcIZN10RiskEngine11computeRiskESE_NS_10shared_ptrI5TradeEEbE3$_0JSK_SE_6MarketSM_EEEEEFvvEPSO_EEEEELi1ELb1EE5__getB7v160006Ev', symObjAddr: 0xC610, symBinAddr: 0x100021850, symSize: 0x10 }
  - { offsetInCU: 0x23842, offset: 0x88B4A, size: 0x8, addend: 0x0, symName: '__ZNSt3__15tupleIJNS_10unique_ptrINS_15__thread_structENS_14default_deleteIS2_EEEEMNS_19__async_assoc_stateINS_4pairINS_12basic_stringIcNS_11char_traitsIcEENS_9allocatorIcEEEEdEENS_12__async_funcIZN10RiskEngine11computeRiskESD_NS_10shared_ptrI5TradeEEbE3$_0JSJ_SD_6MarketSL_EEEEEFvvEPSN_EED1Ev', symObjAddr: 0xC620, symBinAddr: 0x100021860, symSize: 0x20 }
  - { offsetInCU: 0x2386F, offset: 0x88B77, size: 0x8, addend: 0x0, symName: '__ZNSt3__15tupleIJNS_10unique_ptrINS_15__thread_structENS_14default_deleteIS2_EEEEMNS_19__async_assoc_stateINS_4pairINS_12basic_stringIcNS_11char_traitsIcEENS_9allocatorIcEEEEdEENS_12__async_funcIZN10RiskEngine11computeRiskESD_NS_10shared_ptrI5TradeEEbE3$_0JSJ_SD_6MarketSL_EEEEEFvvEPSN_EED2Ev', symObjAddr: 0xC640, symBinAddr: 0x100021880, symSize: 0x20 }
  - { offsetInCU: 0x2389C, offset: 0x88BA4, size: 0x8, addend: 0x0, symName: '__ZNSt3__112__tuple_implINS_15__tuple_indicesIJLm0ELm1ELm2EEEEJNS_10unique_ptrINS_15__thread_structENS_14default_deleteIS4_EEEEMNS_19__async_assoc_stateINS_4pairINS_12basic_stringIcNS_11char_traitsIcEENS_9allocatorIcEEEEdEENS_12__async_funcIZN10RiskEngine11computeRiskESF_NS_10shared_ptrI5TradeEEbE3$_0JSL_SF_6MarketSN_EEEEEFvvEPSP_EED1Ev', symObjAddr: 0xC660, symBinAddr: 0x1000218A0, symSize: 0x20 }
  - { offsetInCU: 0x238C9, offset: 0x88BD1, size: 0x8, addend: 0x0, symName: '__ZNSt3__112__tuple_implINS_15__tuple_indicesIJLm0ELm1ELm2EEEEJNS_10unique_ptrINS_15__thread_structENS_14default_deleteIS4_EEEEMNS_19__async_assoc_stateINS_4pairINS_12basic_stringIcNS_11char_traitsIcEENS_9allocatorIcEEEEdEENS_12__async_funcIZN10RiskEngine11computeRiskESF_NS_10shared_ptrI5TradeEEbE3$_0JSL_SF_6MarketSN_EEEEEFvvEPSP_EED2Ev', symObjAddr: 0xC680, symBinAddr: 0x1000218C0, symSize: 0x20 }
  - { offsetInCU: 0x238F6, offset: 0x88BFE, size: 0x8, addend: 0x0, symName: __ZNSt3__112__tuple_leafILm0ENS_10unique_ptrINS_15__thread_structENS_14default_deleteIS2_EEEELb0EED2Ev, symObjAddr: 0xC6A0, symBinAddr: 0x1000218E0, symSize: 0x20 }
  - { offsetInCU: 0x23923, offset: 0x88C2B, size: 0x8, addend: 0x0, symName: __ZNSt3__110unique_ptrINS_15__thread_structENS_14default_deleteIS1_EEED2B7v160006Ev, symObjAddr: 0xC6C0, symBinAddr: 0x100021900, symSize: 0x20 }
  - { offsetInCU: 0x2394D, offset: 0x88C55, size: 0x8, addend: 0x0, symName: __ZNSt3__110unique_ptrINS_15__thread_structENS_14default_deleteIS1_EEE5resetB7v160006EPS1_, symObjAddr: 0xC6E0, symBinAddr: 0x100021920, symSize: 0x70 }
  - { offsetInCU: 0x23991, offset: 0x88C99, size: 0x8, addend: 0x0, symName: __ZNKSt3__114default_deleteINS_15__thread_structEEclB7v160006EPS1_, symObjAddr: 0xC750, symBinAddr: 0x100021990, symSize: 0x40 }
  - { offsetInCU: 0x239C5, offset: 0x88CCD, size: 0x8, addend: 0x0, symName: __ZNSt3__16futureINS_4pairINS_12basic_stringIcNS_11char_traitsIcEENS_9allocatorIcEEEEdEEEC2EPNS_13__assoc_stateIS8_EE, symObjAddr: 0xC790, symBinAddr: 0x1000219D0, symSize: 0x30 }
  - { offsetInCU: 0x23A00, offset: 0x88D08, size: 0x8, addend: 0x0, symName: __ZNSt3__117__assoc_sub_state15__attach_futureB7v160006Ev, symObjAddr: 0xC7C0, symBinAddr: 0x100021A00, symSize: 0xB0 }
  - { offsetInCU: 0x23A5D, offset: 0x88D65, size: 0x8, addend: 0x0, symName: __ZNSt3__110lock_guardINS_5mutexEEC1B7v160006ERS1_, symObjAddr: 0xC870, symBinAddr: 0x100021AB0, symSize: 0x30 }
  - { offsetInCU: 0x23A95, offset: 0x88D9D, size: 0x8, addend: 0x0, symName: __ZNSt3__114__shared_count12__add_sharedB7v160006Ev, symObjAddr: 0xC8A0, symBinAddr: 0x100021AE0, symSize: 0x20 }
  - { offsetInCU: 0x23ABB, offset: 0x88DC3, size: 0x8, addend: 0x0, symName: __ZNSt3__110lock_guardINS_5mutexEED1B7v160006Ev, symObjAddr: 0xC8C0, symBinAddr: 0x100021B00, symSize: 0x20 }
  - { offsetInCU: 0x23AE5, offset: 0x88DED, size: 0x8, addend: 0x0, symName: __ZNSt3__110lock_guardINS_5mutexEEC2B7v160006ERS1_, symObjAddr: 0xC8E0, symBinAddr: 0x100021B20, symSize: 0x30 }
  - { offsetInCU: 0x23B1D, offset: 0x88E25, size: 0x8, addend: 0x0, symName: __ZNSt3__110lock_guardINS_5mutexEED2B7v160006Ev, symObjAddr: 0xC940, symBinAddr: 0x100021B80, symSize: 0x20 }
  - { offsetInCU: 0x23B47, offset: 0x88E4F, size: 0x8, addend: 0x0, symName: '__ZNSt3__110unique_ptrINS_19__async_assoc_stateINS_4pairINS_12basic_stringIcNS_11char_traitsIcEENS_9allocatorIcEEEEdEENS_12__async_funcIZN10RiskEngine11computeRiskES8_NS_10shared_ptrI5TradeEEbE3$_0JSE_S8_6MarketSG_EEEEENS_22__release_shared_countEED2B7v160006Ev', symObjAddr: 0xC960, symBinAddr: 0x100021BA0, symSize: 0x20 }
  - { offsetInCU: 0x23B71, offset: 0x88E79, size: 0x8, addend: 0x0, symName: '__ZNSt3__110unique_ptrINS_19__async_assoc_stateINS_4pairINS_12basic_stringIcNS_11char_traitsIcEENS_9allocatorIcEEEEdEENS_12__async_funcIZN10RiskEngine11computeRiskES8_NS_10shared_ptrI5TradeEEbE3$_0JSE_S8_6MarketSG_EEEEENS_22__release_shared_countEE5resetB7v160006EPSI_', symObjAddr: 0xC980, symBinAddr: 0x100021BC0, symSize: 0x80 }
  - { offsetInCU: 0x23BB5, offset: 0x88EBD, size: 0x8, addend: 0x0, symName: '__ZNSt3__117__compressed_pairIPNS_19__async_assoc_stateINS_4pairINS_12basic_stringIcNS_11char_traitsIcEENS_9allocatorIcEEEEdEENS_12__async_funcIZN10RiskEngine11computeRiskES8_NS_10shared_ptrI5TradeEEbE3$_0JSE_S8_6MarketSG_EEEEENS_22__release_shared_countEE5firstB7v160006Ev', symObjAddr: 0xCA00, symBinAddr: 0x100021C40, symSize: 0x20 }
  - { offsetInCU: 0x23BDB, offset: 0x88EE3, size: 0x8, addend: 0x0, symName: '__ZNSt3__117__compressed_pairIPNS_19__async_assoc_stateINS_4pairINS_12basic_stringIcNS_11char_traitsIcEENS_9allocatorIcEEEEdEENS_12__async_funcIZN10RiskEngine11computeRiskES8_NS_10shared_ptrI5TradeEEbE3$_0JSE_S8_6MarketSG_EEEEENS_22__release_shared_countEE6secondB7v160006Ev', symObjAddr: 0xCA20, symBinAddr: 0x100021C60, symSize: 0x20 }
  - { offsetInCU: 0x23C01, offset: 0x88F09, size: 0x8, addend: 0x0, symName: __ZNSt3__122__release_shared_countclEPNS_14__shared_countE, symObjAddr: 0xCA40, symBinAddr: 0x100021C80, symSize: 0x20 }
  - { offsetInCU: 0x23C36, offset: 0x88F3E, size: 0x8, addend: 0x0, symName: '__ZNSt3__122__compressed_pair_elemIPNS_19__async_assoc_stateINS_4pairINS_12basic_stringIcNS_11char_traitsIcEENS_9allocatorIcEEEEdEENS_12__async_funcIZN10RiskEngine11computeRiskES8_NS_10shared_ptrI5TradeEEbE3$_0JSE_S8_6MarketSG_EEEEELi0ELb0EE5__getB7v160006Ev', symObjAddr: 0xCA60, symBinAddr: 0x100021CA0, symSize: 0x10 }
  - { offsetInCU: 0x23C5C, offset: 0x88F64, size: 0x8, addend: 0x0, symName: __ZNSt3__122__compressed_pair_elemINS_22__release_shared_countELi1ELb1EE5__getB7v160006Ev, symObjAddr: 0xCA70, symBinAddr: 0x100021CB0, symSize: 0x10 }
  - { offsetInCU: 0x23C82, offset: 0x88F8A, size: 0x8, addend: 0x0, symName: __ZNSt3__114__shared_count16__release_sharedB7v160006Ev, symObjAddr: 0xCA80, symBinAddr: 0x100021CC0, symSize: 0x50 }
  - { offsetInCU: 0x23CA8, offset: 0x88FB0, size: 0x8, addend: 0x0, symName: __ZNSt3__110shared_ptrI5TradeEC2B7v160006ERKS2_, symObjAddr: 0xCB00, symBinAddr: 0x100021D40, symSize: 0x50 }
  - { offsetInCU: 0x23CE1, offset: 0x88FE9, size: 0x8, addend: 0x0, symName: __ZNSt3__119__shared_weak_count12__add_sharedB7v160006Ev, symObjAddr: 0xCB50, symBinAddr: 0x100021D90, symSize: 0x20 }
  - { offsetInCU: 0x23D07, offset: 0x8900F, size: 0x8, addend: 0x0, symName: '__ZNSt3__112__async_funcIZN10RiskEngine11computeRiskENS_12basic_stringIcNS_11char_traitsIcEENS_9allocatorIcEEEENS_10shared_ptrI5TradeEEbE3$_0JSA_S7_6MarketSC_EEC2B7v160006EOSB_OSA_OS7_OSC_SH_', symObjAddr: 0xCB70, symBinAddr: 0x100021DB0, symSize: 0x50 }
  - { offsetInCU: 0x23D7C, offset: 0x89084, size: 0x8, addend: 0x0, symName: '__ZNSt3__15tupleIJZN10RiskEngine11computeRiskENS_12basic_stringIcNS_11char_traitsIcEENS_9allocatorIcEEEENS_10shared_ptrI5TradeEEbE3$_0SA_S7_6MarketSC_EEC1B7v160006IJSB_SA_S7_SC_SC_ELi0EEEDpOT_', symObjAddr: 0xCBC0, symBinAddr: 0x100021E00, symSize: 0x50 }
  - { offsetInCU: 0x23E16, offset: 0x8911E, size: 0x8, addend: 0x0, symName: '__ZNSt3__15tupleIJZN10RiskEngine11computeRiskENS_12basic_stringIcNS_11char_traitsIcEENS_9allocatorIcEEEENS_10shared_ptrI5TradeEEbE3$_0SA_S7_6MarketSC_EEC2B7v160006IJSB_SA_S7_SC_SC_ELi0EEEDpOT_', symObjAddr: 0xCC10, symBinAddr: 0x100021E50, symSize: 0x50 }
  - { offsetInCU: 0x23EB0, offset: 0x891B8, size: 0x8, addend: 0x0, symName: '__ZNSt3__112__tuple_implINS_15__tuple_indicesIJLm0ELm1ELm2ELm3ELm4EEEEJZN10RiskEngine11computeRiskENS_12basic_stringIcNS_11char_traitsIcEENS_9allocatorIcEEEENS_10shared_ptrI5TradeEEbE3$_0SC_S9_6MarketSE_EEC1B7v160006IJLm0ELm1ELm2ELm3ELm4EEJSD_SC_S9_SE_SE_EJEJEJSD_SC_S9_SE_SE_EEENS1_IJXspT_EEEENS_13__tuple_typesIJDpT0_EEENS1_IJXspT1_EEEENSI_IJDpT2_EEEDpOT3_', symObjAddr: 0xCC60, symBinAddr: 0x100021EA0, symSize: 0x50 }
  - { offsetInCU: 0x23FBF, offset: 0x892C7, size: 0x8, addend: 0x0, symName: '__ZNSt3__112__tuple_implINS_15__tuple_indicesIJLm0ELm1ELm2ELm3ELm4EEEEJZN10RiskEngine11computeRiskENS_12basic_stringIcNS_11char_traitsIcEENS_9allocatorIcEEEENS_10shared_ptrI5TradeEEbE3$_0SC_S9_6MarketSE_EEC2B7v160006IJLm0ELm1ELm2ELm3ELm4EEJSD_SC_S9_SE_SE_EJEJEJSD_SC_S9_SE_SE_EEENS1_IJXspT_EEEENS_13__tuple_typesIJDpT0_EEENS1_IJXspT1_EEEENSI_IJDpT2_EEEDpOT3_', symObjAddr: 0xCCB0, symBinAddr: 0x100021EF0, symSize: 0xD0 }
  - { offsetInCU: 0x240CE, offset: 0x893D6, size: 0x8, addend: 0x0, symName: '__ZNSt3__112__tuple_leafILm0EZN10RiskEngine11computeRiskENS_12basic_stringIcNS_11char_traitsIcEENS_9allocatorIcEEEENS_10shared_ptrI5TradeEEbE3$_0Lb1EEC2B7v160006ISB_vEEOT_', symObjAddr: 0xCD80, symBinAddr: 0x100021FC0, symSize: 0x10 }
  - { offsetInCU: 0x24111, offset: 0x89419, size: 0x8, addend: 0x0, symName: __ZNSt3__112__tuple_leafILm1ENS_10shared_ptrI5TradeEELb0EEC2B7v160006IS3_vEEOT_, symObjAddr: 0xCD90, symBinAddr: 0x100021FD0, symSize: 0x30 }
  - { offsetInCU: 0x24154, offset: 0x8945C, size: 0x8, addend: 0x0, symName: __ZNSt3__112__tuple_leafILm2ENS_12basic_stringIcNS_11char_traitsIcEENS_9allocatorIcEEEELb0EEC2B7v160006IS6_vEEOT_, symObjAddr: 0xCDC0, symBinAddr: 0x100022000, symSize: 0x30 }
  - { offsetInCU: 0x24197, offset: 0x8949F, size: 0x8, addend: 0x0, symName: __ZNSt3__112__tuple_leafILm3E6MarketLb0EEC2B7v160006IS1_vEEOT_, symObjAddr: 0xCDF0, symBinAddr: 0x100022030, symSize: 0x30 }
  - { offsetInCU: 0x241DA, offset: 0x894E2, size: 0x8, addend: 0x0, symName: __ZNSt3__112__tuple_leafILm4E6MarketLb0EEC2B7v160006IS1_vEEOT_, symObjAddr: 0xCE20, symBinAddr: 0x100022060, symSize: 0x30 }
  - { offsetInCU: 0x2421D, offset: 0x89525, size: 0x8, addend: 0x0, symName: '__ZNSt3__112__async_funcIZN10RiskEngine11computeRiskENS_12basic_stringIcNS_11char_traitsIcEENS_9allocatorIcEEEENS_10shared_ptrI5TradeEEbE3$_0JSA_S7_6MarketSC_EED2Ev', symObjAddr: 0xCE50, symBinAddr: 0x100022090, symSize: 0x20 }
  - { offsetInCU: 0x2424A, offset: 0x89552, size: 0x8, addend: 0x0, symName: '__ZNSt3__15tupleIJZN10RiskEngine11computeRiskENS_12basic_stringIcNS_11char_traitsIcEENS_9allocatorIcEEEENS_10shared_ptrI5TradeEEbE3$_0SA_S7_6MarketSC_EED1Ev', symObjAddr: 0xCE70, symBinAddr: 0x1000220B0, symSize: 0x20 }
  - { offsetInCU: 0x24277, offset: 0x8957F, size: 0x8, addend: 0x0, symName: '__ZNSt3__15tupleIJZN10RiskEngine11computeRiskENS_12basic_stringIcNS_11char_traitsIcEENS_9allocatorIcEEEENS_10shared_ptrI5TradeEEbE3$_0SA_S7_6MarketSC_EED2Ev', symObjAddr: 0xCE90, symBinAddr: 0x1000220D0, symSize: 0x20 }
